 client

 Timestamp is 602442e2 (Thu Feb 11 03:32:34 2021)

 Preferred load address is 10000000

 Start         Length     Name                   Class
 0001:00000000 0007bf76H .text                   CODE
 0001:0007bf80 00000ee5H .text$x                 CODE
 0002:00000000 00000a3cH .idata$5                DATA
 0002:00000a40 0000c6e8H .rdata                  DATA
 0002:0000d128 00000044H .rdata$r                DATA
 0002:0000d170 00000d50H .xdata$x                DATA
 0002:0000dec0 00000064H .idata$2                DATA
 0002:0000df24 00000014H .idata$3                DATA
 0002:0000df38 00000a3cH .idata$4                DATA
 0002:0000e974 000068a6H .idata$6                DATA
 0002:00015220 000067d6H .edata                  DATA
 0003:00000000 00000004H .CRT$XCA                DATA
 0003:00000004 000000d8H .CRT$XCU                DATA
 0003:000000dc 00000004H .CRT$XCZ                DATA
 0003:000000e0 00000004H .CRT$XIA                DATA
 0003:000000e4 0000000cH .CRT$XIC                DATA
 0003:000000f0 00000004H .CRT$XIY                DATA
 0003:000000f4 00000004H .CRT$XIZ                DATA
 0003:000000f8 00000004H .CRT$XPA                DATA
 0003:000000fc 00000004H .CRT$XPX                DATA
 0003:00000100 00000004H .CRT$XPZ                DATA
 0003:00000104 00000004H .CRT$XTA                DATA
 0003:00000108 00000004H .CRT$XTB                DATA
 0003:0000010c 00000004H .CRT$XTZ                DATA
 0003:00000110 0000c86cH .data                   DATA
 0003:0000c980 003b73bcH .bss                    DATA

  Address         Publics by Value              Rva+Base     Lib:Object

 0001:00000000       ?EV_HLDM_PlayTextureSound@@YAMHPAUpmtrace_s@@PAM1H@Z 10001000 f   ev_hldm.obj
 0001:00000780       ?EV_HLDM_DamageDecal@@YAPADPAUphysent_s@@@Z 10001780 f   ev_hldm.obj
 0001:00000800       ?EV_HLDM_GunshotDecalTrace@@YAXPAUpmtrace_s@@PAD@Z 10001800 f   ev_hldm.obj
 0001:000009b0       ??0Vector@@QAE@ABV0@@Z     100019b0 f i ev_hldm.obj
 0001:000009d0       ?EV_HLDM_DecalGunshot@@YAXPAUpmtrace_s@@H@Z 100019d0 f   ev_hldm.obj
 0001:00000a10       ?EV_HLDM_CheckTracer@@YAHHPAM000HHPAH@Z 10001a10 f   ev_hldm.obj
 0001:00000b00       ?EV_HLDM_FireBullets@@YAXHPAM00H00MHHPAHMM@Z 10001b00 f   ev_hldm.obj
 0001:00000db0       ??4?$Dar@D@vgui@@QAEAAV01@ABV01@@Z 10001db0 f i ev_hldm.obj
 0001:00000dd0       ??4?$Dar@PAD@vgui@@QAEAAV01@ABV01@@Z 10001dd0 f i ev_hldm.obj
 0001:00000df0       ??4?$Dar@H@vgui@@QAEAAV01@ABV01@@Z 10001df0 f i ev_hldm.obj
 0001:00000e10       ??4?$Dar@PAVButton@vgui@@@vgui@@QAEAAV01@ABV01@@Z 10001e10 f i ev_hldm.obj
 0001:00000e30       _EV_FireGlock2             10001e30 f   ev_hldm.obj
 0001:00001000       ??4?$Dar@PAVSurfaceBase@vgui@@@vgui@@QAEAAV01@ABV01@@Z 10002000 f i ev_hldm.obj
 0001:00001020       ??4?$Dar@PAVInputSignal@vgui@@@vgui@@QAEAAV01@ABV01@@Z 10002020 f i ev_hldm.obj
 0001:00001040       ??4?$Dar@PAVFocusChangeSignal@vgui@@@vgui@@QAEAAV01@ABV01@@Z 10002040 f i ev_hldm.obj
 0001:00001060       ??4?$Dar@PAVFrameSignal@vgui@@@vgui@@QAEAAV01@ABV01@@Z 10002060 f i ev_hldm.obj
 0001:00001080       ??4?$Dar@PAVActionSignal@vgui@@@vgui@@QAEAAV01@ABV01@@Z 10002080 f i ev_hldm.obj
 0001:000010a0       ??4?$Dar@PAVIntChangeSignal@vgui@@@vgui@@QAEAAV01@ABV01@@Z 100020a0 f i ev_hldm.obj
 0001:000010c0       ??4?$Dar@PAVTickSignal@vgui@@@vgui@@QAEAAV01@ABV01@@Z 100020c0 f i ev_hldm.obj
 0001:000010e0       ??4?$Dar@PAV?$Dar@D@vgui@@@vgui@@QAEAAV01@ABV01@@Z 100020e0 f i ev_hldm.obj
 0001:00001100       ??4?$Dar@PAVFrame@vgui@@@vgui@@QAEAAV01@ABV01@@Z 10002100 f i ev_hldm.obj
 0001:00001120       ??4?$Dar@PAVDesktopIcon@vgui@@@vgui@@QAEAAV01@ABV01@@Z 10002120 f i ev_hldm.obj
 0001:00001140       ??4?$Dar@PAVChangeSignal@vgui@@@vgui@@QAEAAV01@ABV01@@Z 10002140 f i ev_hldm.obj
 0001:00001160       ??4?$Dar@PAVPanel@vgui@@@vgui@@QAEAAV01@ABV01@@Z 10002160 f i ev_hldm.obj
 0001:00001180       ??4?$Dar@PAVLabel@vgui@@@vgui@@QAEAAV01@ABV01@@Z 10002180 f i ev_hldm.obj
 0001:000011a0       ??4?$Dar@PAVRepaintSignal@vgui@@@vgui@@QAEAAV01@ABV01@@Z 100021a0 f i ev_hldm.obj
 0001:000011c0       ??0Scheme@vgui@@QAE@ABV01@@Z 100021c0 f i ev_hldm.obj
 0001:00001210       ??4Scheme@vgui@@QAEAAV01@ABV01@@Z 10002210 f i ev_hldm.obj
 0001:00001260       ??0Color@vgui@@QAE@ABV01@@Z 10002260 f i ev_hldm.obj
 0001:00001280       _EV_FireShotGunDouble      10002280 f   ev_hldm.obj
 0001:00001480       ??4Color@vgui@@QAEAAV01@ABV01@@Z 10002480 f i ev_hldm.obj
 0001:000014c0       ??0Panel@vgui@@QAE@ABV01@@Z 100024c0 f i ev_hldm.obj
 0001:00001670       ??4Panel@vgui@@QAEAAV01@ABV01@@Z 10002670 f i ev_hldm.obj
 0001:00001850       _EV_FireShotGunSingle      10002850 f   ev_hldm.obj
 0001:00001a70       ??0Label@vgui@@QAE@XZ      10002a70 f i ev_hldm.obj
 0001:00001aa0       ??0Label@vgui@@QAE@ABV01@@Z 10002aa0 f i ev_hldm.obj
 0001:00001cb0       ??4Label@vgui@@QAEAAV01@ABV01@@Z 10002cb0 f i ev_hldm.obj
 0001:00001ef0       ??0Image@vgui@@QAE@ABV01@@Z 10002ef0 f i ev_hldm.obj
 0001:00001f30       ??4Image@vgui@@QAEAAV01@ABV01@@Z 10002f30 f i ev_hldm.obj
 0001:00001fa0       ??0Border@vgui@@QAE@ABV01@@Z 10002fa0 f i ev_hldm.obj
 0001:00002010       _EV_FirePython             10003010 f   ev_hldm.obj
 0001:000021a0       ??4Border@vgui@@QAEAAV01@ABV01@@Z 100031a0 f i ev_hldm.obj
 0001:00002230       ?setLineColor@LineBorder@vgui@@QAEXHHHH@Z 10003230 f i ev_hldm.obj
 0001:00002290       ??0LineBorder@vgui@@QAE@ABV01@@Z 10003290 f i ev_hldm.obj
 0001:00002320       ??4LineBorder@vgui@@QAEAAV01@ABV01@@Z 10003320 f i ev_hldm.obj
 0001:000023d0       ??0ImagePanel@vgui@@QAE@XZ 100033d0 f i ev_hldm.obj
 0001:000023f0       ??0ImagePanel@vgui@@QAE@ABV01@@Z 100033f0 f i ev_hldm.obj
 0001:000025b0       ??4ImagePanel@vgui@@QAEAAV01@ABV01@@Z 100035b0 f i ev_hldm.obj
 0001:000027a0       ??0Bitmap@vgui@@QAE@ABV01@@Z 100037a0 f i ev_hldm.obj
 0001:00002800       ??4Bitmap@vgui@@QAEAAV01@ABV01@@Z 10003800 f i ev_hldm.obj
 0001:00002880       ??0BitmapTGA@vgui@@QAE@ABV01@@Z 10003880 f i ev_hldm.obj
 0001:000028e0       _EV_SpinGauss              100038e0 f   ev_hldm.obj
 0001:00002940       ??4BitmapTGA@vgui@@QAEAAV01@ABV01@@Z 10003940 f i ev_hldm.obj
 0001:000029c0       ??0InputSignal@vgui@@QAE@XZ 100039c0 f i ev_hldm.obj
 0001:000029d0       ??0InputSignal@vgui@@QAE@ABV01@@Z 100039d0 f i ev_hldm.obj
 0001:000029e0       ??4InputSignal@vgui@@QAEAAV01@ABV01@@Z 100039e0 f i ev_hldm.obj
 0001:000029f0       ??0Button@vgui@@QAE@ABV01@@Z 100039f0 f i ev_hldm.obj
 0001:00002c70       ?EV_StopPreviousGauss@@YAXH@Z 10003c70 f   ev_hldm.obj
 0001:00002ca0       ??4Button@vgui@@QAEAAV01@ABV01@@Z 10003ca0 f i ev_hldm.obj
 0001:00002f50       _EV_FireGauss              10003f50 f   ev_hldm.obj
 0001:000038d0       ??_H@YGXPAXIHP6EX0@Z@Z     100048d0 f i ev_hldm.obj
 0001:00003900       _EV_Crowbar                10004900 f   ev_hldm.obj
 0001:000039d0       ?EV_BoltCallback@@YAXPAUtempent_s@@MM@Z 100049d0 f   ev_hldm.obj
 0001:00003a10       _EV_FireCrossbow2          10004a10 f   ev_hldm.obj
 0001:00003e50       _EV_FireCrossbow           10004e50 f   ev_hldm.obj
 0001:00003f40       _EV_FireRpg                10004f40 f   ev_hldm.obj
 0001:00003fe0       _EV_EgonFire               10004fe0 f   ev_hldm.obj
 0001:000042e0       _EV_EgonStop               100052e0 f   ev_hldm.obj
 0001:00004380       _EV_HornetGunFire          10005380 f   ev_hldm.obj
 0001:00004480       _EV_TripmineFire           10005480 f   ev_hldm.obj
 0001:000045e0       _EV_SnarkFire              100055e0 f   ev_hldm.obj
 0001:00004790       _EV_TrainPitchAdjust       10005790 f   ev_hldm.obj
 0001:00004920       ?EV_TFC_IsAllyTeam@@YAHHH@Z 10005920 f   ev_hldm.obj
 0001:00004930       _EV_FireAKS                10005930 f   ev_hldm.obj
 0001:00004ba0       _EV_FireAPS                10005ba0 f   ev_hldm.obj
 0001:00004da0       _EV_FireVAL                10005da0 f   ev_hldm.obj
 0001:00004ff0       _EV_FireRPK                10005ff0 f   ev_hldm.obj
 0001:00005260       _EV_FireMP5                10006260 f   ev_hldm.obj
 0001:00005550       _EV_FireAK74               10006550 f   ev_hldm.obj
 0001:00005790       _EV_FireGroza              10006790 f   ev_hldm.obj
 0001:000059e0       _EV_FireGlock1             100069e0 f   ev_hldm.obj
 0001:00005be0       _EV_SmokePuff              10006be0 f   ev_hldm.obj
 0001:00005c80       ??0Vector@@QAE@QAM@Z       10006c80 f i ev_hldm.obj
 0001:00005ca0       ??0?$Dar@D@vgui@@QAE@XZ    10006ca0 f i ev_hldm.obj
 0001:00005d20       ??0?$Dar@D@vgui@@QAE@H@Z   10006d20 f i ev_hldm.obj
 0001:00005db0       ?ensureCapacity@?$Dar@D@vgui@@QAEXH@Z 10006db0 f i ev_hldm.obj
 0001:00005e30       ?setCount@?$Dar@D@vgui@@QAEXH@Z 10006e30 f i ev_hldm.obj
 0001:00005e50       ?getCount@?$Dar@D@vgui@@QAEHXZ 10006e50 f i ev_hldm.obj
 0001:00005e60       ?addElement@?$Dar@D@vgui@@QAEXD@Z 10006e60 f i ev_hldm.obj
 0001:00005ef0       ?hasElement@?$Dar@D@vgui@@QAE_ND@Z 10006ef0 f i ev_hldm.obj
 0001:00005f20       ?putElement@?$Dar@D@vgui@@QAEXD@Z 10006f20 f i ev_hldm.obj
 0001:00005fd0       ?insertElementAt@?$Dar@D@vgui@@QAEXDH@Z 10006fd0 f i ev_hldm.obj
 0001:00006130       ?setElementAt@?$Dar@D@vgui@@QAEXDH@Z 10007130 f i ev_hldm.obj
 0001:00006150       ?removeElementAt@?$Dar@D@vgui@@QAEXH@Z 10007150 f i ev_hldm.obj
 0001:00006180       ?removeElement@?$Dar@D@vgui@@QAEXD@Z 10007180 f i ev_hldm.obj
 0001:000061d0       ?removeAll@?$Dar@D@vgui@@QAEXXZ 100071d0 f i ev_hldm.obj
 0001:000061e0       ??A?$Dar@D@vgui@@QAEDH@Z   100071e0 f i ev_hldm.obj
 0001:00006200       ??0?$Dar@PAD@vgui@@QAE@XZ  10007200 f i ev_hldm.obj
 0001:00006280       ??0?$Dar@PAD@vgui@@QAE@H@Z 10007280 f i ev_hldm.obj
 0001:00006310       ?ensureCapacity@?$Dar@PAD@vgui@@QAEXH@Z 10007310 f i ev_hldm.obj
 0001:000063a0       ?setCount@?$Dar@PAD@vgui@@QAEXH@Z 100073a0 f i ev_hldm.obj
 0001:000063c0       ?getCount@?$Dar@PAD@vgui@@QAEHXZ 100073c0 f i ev_hldm.obj
 0001:000063d0       ?addElement@?$Dar@PAD@vgui@@QAEXPAD@Z 100073d0 f i ev_hldm.obj
 0001:00006470       ?hasElement@?$Dar@PAD@vgui@@QAE_NPAD@Z 10007470 f i ev_hldm.obj
 0001:000064a0       ?putElement@?$Dar@PAD@vgui@@QAEXPAD@Z 100074a0 f i ev_hldm.obj
 0001:00006560       ?insertElementAt@?$Dar@PAD@vgui@@QAEXPADH@Z 10007560 f i ev_hldm.obj
 0001:000066d0       ?setElementAt@?$Dar@PAD@vgui@@QAEXPADH@Z 100076d0 f i ev_hldm.obj
 0001:000066f0       ?removeElementAt@?$Dar@PAD@vgui@@QAEXH@Z 100076f0 f i ev_hldm.obj
 0001:00006720       ?removeElement@?$Dar@PAD@vgui@@QAEXPAD@Z 10007720 f i ev_hldm.obj
 0001:00006770       ?removeAll@?$Dar@PAD@vgui@@QAEXXZ 10007770 f i ev_hldm.obj
 0001:00006780       ??A?$Dar@PAD@vgui@@QAEPADH@Z 10007780 f i ev_hldm.obj
 0001:000067a0       ??0?$Dar@H@vgui@@QAE@XZ    100077a0 f i ev_hldm.obj
 0001:00006820       ??0?$Dar@H@vgui@@QAE@H@Z   10007820 f i ev_hldm.obj
 0001:000068b0       ?ensureCapacity@?$Dar@H@vgui@@QAEXH@Z 100078b0 f i ev_hldm.obj
 0001:00006940       ?setCount@?$Dar@H@vgui@@QAEXH@Z 10007940 f i ev_hldm.obj
 0001:00006960       ?getCount@?$Dar@H@vgui@@QAEHXZ 10007960 f i ev_hldm.obj
 0001:00006970       ?addElement@?$Dar@H@vgui@@QAEXH@Z 10007970 f i ev_hldm.obj
 0001:00006a10       ?hasElement@?$Dar@H@vgui@@QAE_NH@Z 10007a10 f i ev_hldm.obj
 0001:00006a40       ?putElement@?$Dar@H@vgui@@QAEXH@Z 10007a40 f i ev_hldm.obj
 0001:00006b00       ?insertElementAt@?$Dar@H@vgui@@QAEXHH@Z 10007b00 f i ev_hldm.obj
 0001:00006c70       ?setElementAt@?$Dar@H@vgui@@QAEXHH@Z 10007c70 f i ev_hldm.obj
 0001:00006c90       ?removeElementAt@?$Dar@H@vgui@@QAEXH@Z 10007c90 f i ev_hldm.obj
 0001:00006cc0       ?removeElement@?$Dar@H@vgui@@QAEXH@Z 10007cc0 f i ev_hldm.obj
 0001:00006d10       ?removeAll@?$Dar@H@vgui@@QAEXXZ 10007d10 f i ev_hldm.obj
 0001:00006d20       ??A?$Dar@H@vgui@@QAEHH@Z   10007d20 f i ev_hldm.obj
 0001:00006d40       ??0?$Dar@PAVButton@vgui@@@vgui@@QAE@XZ 10007d40 f i ev_hldm.obj
 0001:00006dc0       ??0?$Dar@PAVButton@vgui@@@vgui@@QAE@H@Z 10007dc0 f i ev_hldm.obj
 0001:00006e50       ?ensureCapacity@?$Dar@PAVButton@vgui@@@vgui@@QAEXH@Z 10007e50 f i ev_hldm.obj
 0001:00006ee0       ?setCount@?$Dar@PAVButton@vgui@@@vgui@@QAEXH@Z 10007ee0 f i ev_hldm.obj
 0001:00006f00       ?getCount@?$Dar@PAVButton@vgui@@@vgui@@QAEHXZ 10007f00 f i ev_hldm.obj
 0001:00006f10       ?addElement@?$Dar@PAVButton@vgui@@@vgui@@QAEXPAVButton@2@@Z 10007f10 f i ev_hldm.obj
 0001:00006fb0       ?hasElement@?$Dar@PAVButton@vgui@@@vgui@@QAE_NPAVButton@2@@Z 10007fb0 f i ev_hldm.obj
 0001:00006fe0       ?putElement@?$Dar@PAVButton@vgui@@@vgui@@QAEXPAVButton@2@@Z 10007fe0 f i ev_hldm.obj
 0001:000070a0       ?insertElementAt@?$Dar@PAVButton@vgui@@@vgui@@QAEXPAVButton@2@H@Z 100080a0 f i ev_hldm.obj
 0001:00007210       ?setElementAt@?$Dar@PAVButton@vgui@@@vgui@@QAEXPAVButton@2@H@Z 10008210 f i ev_hldm.obj
 0001:00007230       ?removeElementAt@?$Dar@PAVButton@vgui@@@vgui@@QAEXH@Z 10008230 f i ev_hldm.obj
 0001:00007260       ?removeElement@?$Dar@PAVButton@vgui@@@vgui@@QAEXPAVButton@2@@Z 10008260 f i ev_hldm.obj
 0001:000072b0       ?removeAll@?$Dar@PAVButton@vgui@@@vgui@@QAEXXZ 100082b0 f i ev_hldm.obj
 0001:000072c0       ??A?$Dar@PAVButton@vgui@@@vgui@@QAEPAVButton@1@H@Z 100082c0 f i ev_hldm.obj
 0001:000072e0       ??0?$Dar@PAVSurfaceBase@vgui@@@vgui@@QAE@XZ 100082e0 f i ev_hldm.obj
 0001:00007360       ??0?$Dar@PAVSurfaceBase@vgui@@@vgui@@QAE@H@Z 10008360 f i ev_hldm.obj
 0001:000073f0       ?ensureCapacity@?$Dar@PAVSurfaceBase@vgui@@@vgui@@QAEXH@Z 100083f0 f i ev_hldm.obj
 0001:00007480       ?setCount@?$Dar@PAVSurfaceBase@vgui@@@vgui@@QAEXH@Z 10008480 f i ev_hldm.obj
 0001:000074a0       ?getCount@?$Dar@PAVSurfaceBase@vgui@@@vgui@@QAEHXZ 100084a0 f i ev_hldm.obj
 0001:000074b0       ?addElement@?$Dar@PAVSurfaceBase@vgui@@@vgui@@QAEXPAVSurfaceBase@2@@Z 100084b0 f i ev_hldm.obj
 0001:00007550       ?hasElement@?$Dar@PAVSurfaceBase@vgui@@@vgui@@QAE_NPAVSurfaceBase@2@@Z 10008550 f i ev_hldm.obj
 0001:00007580       ?putElement@?$Dar@PAVSurfaceBase@vgui@@@vgui@@QAEXPAVSurfaceBase@2@@Z 10008580 f i ev_hldm.obj
 0001:00007640       ?insertElementAt@?$Dar@PAVSurfaceBase@vgui@@@vgui@@QAEXPAVSurfaceBase@2@H@Z 10008640 f i ev_hldm.obj
 0001:000077b0       ?setElementAt@?$Dar@PAVSurfaceBase@vgui@@@vgui@@QAEXPAVSurfaceBase@2@H@Z 100087b0 f i ev_hldm.obj
 0001:000077d0       ?removeElementAt@?$Dar@PAVSurfaceBase@vgui@@@vgui@@QAEXH@Z 100087d0 f i ev_hldm.obj
 0001:00007800       ?removeElement@?$Dar@PAVSurfaceBase@vgui@@@vgui@@QAEXPAVSurfaceBase@2@@Z 10008800 f i ev_hldm.obj
 0001:00007850       ?removeAll@?$Dar@PAVSurfaceBase@vgui@@@vgui@@QAEXXZ 10008850 f i ev_hldm.obj
 0001:00007860       ??A?$Dar@PAVSurfaceBase@vgui@@@vgui@@QAEPAVSurfaceBase@1@H@Z 10008860 f i ev_hldm.obj
 0001:00007880       ??0?$Dar@PAVInputSignal@vgui@@@vgui@@QAE@XZ 10008880 f i ev_hldm.obj
 0001:00007900       ??0?$Dar@PAVInputSignal@vgui@@@vgui@@QAE@H@Z 10008900 f i ev_hldm.obj
 0001:00007990       ?ensureCapacity@?$Dar@PAVInputSignal@vgui@@@vgui@@QAEXH@Z 10008990 f i ev_hldm.obj
 0001:00007a20       ?setCount@?$Dar@PAVInputSignal@vgui@@@vgui@@QAEXH@Z 10008a20 f i ev_hldm.obj
 0001:00007a40       ?getCount@?$Dar@PAVInputSignal@vgui@@@vgui@@QAEHXZ 10008a40 f i ev_hldm.obj
 0001:00007a50       ?addElement@?$Dar@PAVInputSignal@vgui@@@vgui@@QAEXPAVInputSignal@2@@Z 10008a50 f i ev_hldm.obj
 0001:00007af0       ?hasElement@?$Dar@PAVInputSignal@vgui@@@vgui@@QAE_NPAVInputSignal@2@@Z 10008af0 f i ev_hldm.obj
 0001:00007b20       ?putElement@?$Dar@PAVInputSignal@vgui@@@vgui@@QAEXPAVInputSignal@2@@Z 10008b20 f i ev_hldm.obj
 0001:00007be0       ?insertElementAt@?$Dar@PAVInputSignal@vgui@@@vgui@@QAEXPAVInputSignal@2@H@Z 10008be0 f i ev_hldm.obj
 0001:00007d50       ?setElementAt@?$Dar@PAVInputSignal@vgui@@@vgui@@QAEXPAVInputSignal@2@H@Z 10008d50 f i ev_hldm.obj
 0001:00007d70       ?removeElementAt@?$Dar@PAVInputSignal@vgui@@@vgui@@QAEXH@Z 10008d70 f i ev_hldm.obj
 0001:00007da0       ?removeElement@?$Dar@PAVInputSignal@vgui@@@vgui@@QAEXPAVInputSignal@2@@Z 10008da0 f i ev_hldm.obj
 0001:00007df0       ?removeAll@?$Dar@PAVInputSignal@vgui@@@vgui@@QAEXXZ 10008df0 f i ev_hldm.obj
 0001:00007e00       ??A?$Dar@PAVInputSignal@vgui@@@vgui@@QAEPAVInputSignal@1@H@Z 10008e00 f i ev_hldm.obj
 0001:00007e20       ??0?$Dar@PAVFocusChangeSignal@vgui@@@vgui@@QAE@XZ 10008e20 f i ev_hldm.obj
 0001:00007ea0       ??0?$Dar@PAVFocusChangeSignal@vgui@@@vgui@@QAE@H@Z 10008ea0 f i ev_hldm.obj
 0001:00007f30       ?ensureCapacity@?$Dar@PAVFocusChangeSignal@vgui@@@vgui@@QAEXH@Z 10008f30 f i ev_hldm.obj
 0001:00007fc0       ?setCount@?$Dar@PAVFocusChangeSignal@vgui@@@vgui@@QAEXH@Z 10008fc0 f i ev_hldm.obj
 0001:00007fe0       ?getCount@?$Dar@PAVFocusChangeSignal@vgui@@@vgui@@QAEHXZ 10008fe0 f i ev_hldm.obj
 0001:00007ff0       ?addElement@?$Dar@PAVFocusChangeSignal@vgui@@@vgui@@QAEXPAVFocusChangeSignal@2@@Z 10008ff0 f i ev_hldm.obj
 0001:00008090       ?hasElement@?$Dar@PAVFocusChangeSignal@vgui@@@vgui@@QAE_NPAVFocusChangeSignal@2@@Z 10009090 f i ev_hldm.obj
 0001:000080c0       ?putElement@?$Dar@PAVFocusChangeSignal@vgui@@@vgui@@QAEXPAVFocusChangeSignal@2@@Z 100090c0 f i ev_hldm.obj
 0001:00008180       ?insertElementAt@?$Dar@PAVFocusChangeSignal@vgui@@@vgui@@QAEXPAVFocusChangeSignal@2@H@Z 10009180 f i ev_hldm.obj
 0001:000082f0       ?setElementAt@?$Dar@PAVFocusChangeSignal@vgui@@@vgui@@QAEXPAVFocusChangeSignal@2@H@Z 100092f0 f i ev_hldm.obj
 0001:00008310       ?removeElementAt@?$Dar@PAVFocusChangeSignal@vgui@@@vgui@@QAEXH@Z 10009310 f i ev_hldm.obj
 0001:00008340       ?removeElement@?$Dar@PAVFocusChangeSignal@vgui@@@vgui@@QAEXPAVFocusChangeSignal@2@@Z 10009340 f i ev_hldm.obj
 0001:00008390       ?removeAll@?$Dar@PAVFocusChangeSignal@vgui@@@vgui@@QAEXXZ 10009390 f i ev_hldm.obj
 0001:000083a0       ??A?$Dar@PAVFocusChangeSignal@vgui@@@vgui@@QAEPAVFocusChangeSignal@1@H@Z 100093a0 f i ev_hldm.obj
 0001:000083c0       ??0?$Dar@PAVFrameSignal@vgui@@@vgui@@QAE@XZ 100093c0 f i ev_hldm.obj
 0001:00008440       ??0?$Dar@PAVFrameSignal@vgui@@@vgui@@QAE@H@Z 10009440 f i ev_hldm.obj
 0001:000084d0       ?ensureCapacity@?$Dar@PAVFrameSignal@vgui@@@vgui@@QAEXH@Z 100094d0 f i ev_hldm.obj
 0001:00008560       ?setCount@?$Dar@PAVFrameSignal@vgui@@@vgui@@QAEXH@Z 10009560 f i ev_hldm.obj
 0001:00008580       ?getCount@?$Dar@PAVFrameSignal@vgui@@@vgui@@QAEHXZ 10009580 f i ev_hldm.obj
 0001:00008590       ?addElement@?$Dar@PAVFrameSignal@vgui@@@vgui@@QAEXPAVFrameSignal@2@@Z 10009590 f i ev_hldm.obj
 0001:00008630       ?hasElement@?$Dar@PAVFrameSignal@vgui@@@vgui@@QAE_NPAVFrameSignal@2@@Z 10009630 f i ev_hldm.obj
 0001:00008660       ?putElement@?$Dar@PAVFrameSignal@vgui@@@vgui@@QAEXPAVFrameSignal@2@@Z 10009660 f i ev_hldm.obj
 0001:00008720       ?insertElementAt@?$Dar@PAVFrameSignal@vgui@@@vgui@@QAEXPAVFrameSignal@2@H@Z 10009720 f i ev_hldm.obj
 0001:00008890       ?setElementAt@?$Dar@PAVFrameSignal@vgui@@@vgui@@QAEXPAVFrameSignal@2@H@Z 10009890 f i ev_hldm.obj
 0001:000088b0       ?removeElementAt@?$Dar@PAVFrameSignal@vgui@@@vgui@@QAEXH@Z 100098b0 f i ev_hldm.obj
 0001:000088e0       ?removeElement@?$Dar@PAVFrameSignal@vgui@@@vgui@@QAEXPAVFrameSignal@2@@Z 100098e0 f i ev_hldm.obj
 0001:00008930       ?removeAll@?$Dar@PAVFrameSignal@vgui@@@vgui@@QAEXXZ 10009930 f i ev_hldm.obj
 0001:00008940       ??A?$Dar@PAVFrameSignal@vgui@@@vgui@@QAEPAVFrameSignal@1@H@Z 10009940 f i ev_hldm.obj
 0001:00008960       ??0?$Dar@PAVActionSignal@vgui@@@vgui@@QAE@XZ 10009960 f i ev_hldm.obj
 0001:000089e0       ??0?$Dar@PAVActionSignal@vgui@@@vgui@@QAE@H@Z 100099e0 f i ev_hldm.obj
 0001:00008a70       ?ensureCapacity@?$Dar@PAVActionSignal@vgui@@@vgui@@QAEXH@Z 10009a70 f i ev_hldm.obj
 0001:00008b00       ?setCount@?$Dar@PAVActionSignal@vgui@@@vgui@@QAEXH@Z 10009b00 f i ev_hldm.obj
 0001:00008b20       ?getCount@?$Dar@PAVActionSignal@vgui@@@vgui@@QAEHXZ 10009b20 f i ev_hldm.obj
 0001:00008b30       ?addElement@?$Dar@PAVActionSignal@vgui@@@vgui@@QAEXPAVActionSignal@2@@Z 10009b30 f i ev_hldm.obj
 0001:00008bd0       ?hasElement@?$Dar@PAVActionSignal@vgui@@@vgui@@QAE_NPAVActionSignal@2@@Z 10009bd0 f i ev_hldm.obj
 0001:00008c00       ?putElement@?$Dar@PAVActionSignal@vgui@@@vgui@@QAEXPAVActionSignal@2@@Z 10009c00 f i ev_hldm.obj
 0001:00008cc0       ?insertElementAt@?$Dar@PAVActionSignal@vgui@@@vgui@@QAEXPAVActionSignal@2@H@Z 10009cc0 f i ev_hldm.obj
 0001:00008e30       ?setElementAt@?$Dar@PAVActionSignal@vgui@@@vgui@@QAEXPAVActionSignal@2@H@Z 10009e30 f i ev_hldm.obj
 0001:00008e50       ?removeElementAt@?$Dar@PAVActionSignal@vgui@@@vgui@@QAEXH@Z 10009e50 f i ev_hldm.obj
 0001:00008e80       ?removeElement@?$Dar@PAVActionSignal@vgui@@@vgui@@QAEXPAVActionSignal@2@@Z 10009e80 f i ev_hldm.obj
 0001:00008ed0       ?removeAll@?$Dar@PAVActionSignal@vgui@@@vgui@@QAEXXZ 10009ed0 f i ev_hldm.obj
 0001:00008ee0       ??A?$Dar@PAVActionSignal@vgui@@@vgui@@QAEPAVActionSignal@1@H@Z 10009ee0 f i ev_hldm.obj
 0001:00008f00       ??0?$Dar@PAVIntChangeSignal@vgui@@@vgui@@QAE@XZ 10009f00 f i ev_hldm.obj
 0001:00008f80       ??0?$Dar@PAVIntChangeSignal@vgui@@@vgui@@QAE@H@Z 10009f80 f i ev_hldm.obj
 0001:00009010       ?ensureCapacity@?$Dar@PAVIntChangeSignal@vgui@@@vgui@@QAEXH@Z 1000a010 f i ev_hldm.obj
 0001:000090a0       ?setCount@?$Dar@PAVIntChangeSignal@vgui@@@vgui@@QAEXH@Z 1000a0a0 f i ev_hldm.obj
 0001:000090c0       ?getCount@?$Dar@PAVIntChangeSignal@vgui@@@vgui@@QAEHXZ 1000a0c0 f i ev_hldm.obj
 0001:000090d0       ?addElement@?$Dar@PAVIntChangeSignal@vgui@@@vgui@@QAEXPAVIntChangeSignal@2@@Z 1000a0d0 f i ev_hldm.obj
 0001:00009170       ?hasElement@?$Dar@PAVIntChangeSignal@vgui@@@vgui@@QAE_NPAVIntChangeSignal@2@@Z 1000a170 f i ev_hldm.obj
 0001:000091a0       ?putElement@?$Dar@PAVIntChangeSignal@vgui@@@vgui@@QAEXPAVIntChangeSignal@2@@Z 1000a1a0 f i ev_hldm.obj
 0001:00009260       ?insertElementAt@?$Dar@PAVIntChangeSignal@vgui@@@vgui@@QAEXPAVIntChangeSignal@2@H@Z 1000a260 f i ev_hldm.obj
 0001:000093d0       ?setElementAt@?$Dar@PAVIntChangeSignal@vgui@@@vgui@@QAEXPAVIntChangeSignal@2@H@Z 1000a3d0 f i ev_hldm.obj
 0001:000093f0       ?removeElementAt@?$Dar@PAVIntChangeSignal@vgui@@@vgui@@QAEXH@Z 1000a3f0 f i ev_hldm.obj
 0001:00009420       ?removeElement@?$Dar@PAVIntChangeSignal@vgui@@@vgui@@QAEXPAVIntChangeSignal@2@@Z 1000a420 f i ev_hldm.obj
 0001:00009470       ?removeAll@?$Dar@PAVIntChangeSignal@vgui@@@vgui@@QAEXXZ 1000a470 f i ev_hldm.obj
 0001:00009480       ??A?$Dar@PAVIntChangeSignal@vgui@@@vgui@@QAEPAVIntChangeSignal@1@H@Z 1000a480 f i ev_hldm.obj
 0001:000094a0       ??0?$Dar@PAVTickSignal@vgui@@@vgui@@QAE@XZ 1000a4a0 f i ev_hldm.obj
 0001:00009520       ??0?$Dar@PAVTickSignal@vgui@@@vgui@@QAE@H@Z 1000a520 f i ev_hldm.obj
 0001:000095b0       ?ensureCapacity@?$Dar@PAVTickSignal@vgui@@@vgui@@QAEXH@Z 1000a5b0 f i ev_hldm.obj
 0001:00009640       ?setCount@?$Dar@PAVTickSignal@vgui@@@vgui@@QAEXH@Z 1000a640 f i ev_hldm.obj
 0001:00009660       ?getCount@?$Dar@PAVTickSignal@vgui@@@vgui@@QAEHXZ 1000a660 f i ev_hldm.obj
 0001:00009670       ?addElement@?$Dar@PAVTickSignal@vgui@@@vgui@@QAEXPAVTickSignal@2@@Z 1000a670 f i ev_hldm.obj
 0001:00009710       ?hasElement@?$Dar@PAVTickSignal@vgui@@@vgui@@QAE_NPAVTickSignal@2@@Z 1000a710 f i ev_hldm.obj
 0001:00009740       ?putElement@?$Dar@PAVTickSignal@vgui@@@vgui@@QAEXPAVTickSignal@2@@Z 1000a740 f i ev_hldm.obj
 0001:00009800       ?insertElementAt@?$Dar@PAVTickSignal@vgui@@@vgui@@QAEXPAVTickSignal@2@H@Z 1000a800 f i ev_hldm.obj
 0001:00009970       ?setElementAt@?$Dar@PAVTickSignal@vgui@@@vgui@@QAEXPAVTickSignal@2@H@Z 1000a970 f i ev_hldm.obj
 0001:00009990       ?removeElementAt@?$Dar@PAVTickSignal@vgui@@@vgui@@QAEXH@Z 1000a990 f i ev_hldm.obj
 0001:000099c0       ?removeElement@?$Dar@PAVTickSignal@vgui@@@vgui@@QAEXPAVTickSignal@2@@Z 1000a9c0 f i ev_hldm.obj
 0001:00009a10       ?removeAll@?$Dar@PAVTickSignal@vgui@@@vgui@@QAEXXZ 1000aa10 f i ev_hldm.obj
 0001:00009a20       ??A?$Dar@PAVTickSignal@vgui@@@vgui@@QAEPAVTickSignal@1@H@Z 1000aa20 f i ev_hldm.obj
 0001:00009a40       ??0?$Dar@PAV?$Dar@D@vgui@@@vgui@@QAE@XZ 1000aa40 f i ev_hldm.obj
 0001:00009ac0       ??0?$Dar@PAV?$Dar@D@vgui@@@vgui@@QAE@H@Z 1000aac0 f i ev_hldm.obj
 0001:00009b50       ?ensureCapacity@?$Dar@PAV?$Dar@D@vgui@@@vgui@@QAEXH@Z 1000ab50 f i ev_hldm.obj
 0001:00009be0       ?setCount@?$Dar@PAV?$Dar@D@vgui@@@vgui@@QAEXH@Z 1000abe0 f i ev_hldm.obj
 0001:00009c00       ?getCount@?$Dar@PAV?$Dar@D@vgui@@@vgui@@QAEHXZ 1000ac00 f i ev_hldm.obj
 0001:00009c10       ?addElement@?$Dar@PAV?$Dar@D@vgui@@@vgui@@QAEXPAV?$Dar@D@2@@Z 1000ac10 f i ev_hldm.obj
 0001:00009cb0       ?hasElement@?$Dar@PAV?$Dar@D@vgui@@@vgui@@QAE_NPAV?$Dar@D@2@@Z 1000acb0 f i ev_hldm.obj
 0001:00009ce0       ?putElement@?$Dar@PAV?$Dar@D@vgui@@@vgui@@QAEXPAV?$Dar@D@2@@Z 1000ace0 f i ev_hldm.obj
 0001:00009da0       ?insertElementAt@?$Dar@PAV?$Dar@D@vgui@@@vgui@@QAEXPAV?$Dar@D@2@H@Z 1000ada0 f i ev_hldm.obj
 0001:00009f10       ?setElementAt@?$Dar@PAV?$Dar@D@vgui@@@vgui@@QAEXPAV?$Dar@D@2@H@Z 1000af10 f i ev_hldm.obj
 0001:00009f30       ?removeElementAt@?$Dar@PAV?$Dar@D@vgui@@@vgui@@QAEXH@Z 1000af30 f i ev_hldm.obj
 0001:00009f60       ?removeElement@?$Dar@PAV?$Dar@D@vgui@@@vgui@@QAEXPAV?$Dar@D@2@@Z 1000af60 f i ev_hldm.obj
 0001:00009fb0       ?removeAll@?$Dar@PAV?$Dar@D@vgui@@@vgui@@QAEXXZ 1000afb0 f i ev_hldm.obj
 0001:00009fc0       ??A?$Dar@PAV?$Dar@D@vgui@@@vgui@@QAEPAV?$Dar@D@1@H@Z 1000afc0 f i ev_hldm.obj
 0001:00009fe0       ??0?$Dar@PAVFrame@vgui@@@vgui@@QAE@XZ 1000afe0 f i ev_hldm.obj
 0001:0000a060       ??0?$Dar@PAVFrame@vgui@@@vgui@@QAE@H@Z 1000b060 f i ev_hldm.obj
 0001:0000a0f0       ?ensureCapacity@?$Dar@PAVFrame@vgui@@@vgui@@QAEXH@Z 1000b0f0 f i ev_hldm.obj
 0001:0000a180       ?setCount@?$Dar@PAVFrame@vgui@@@vgui@@QAEXH@Z 1000b180 f i ev_hldm.obj
 0001:0000a1a0       ?getCount@?$Dar@PAVFrame@vgui@@@vgui@@QAEHXZ 1000b1a0 f i ev_hldm.obj
 0001:0000a1b0       ?addElement@?$Dar@PAVFrame@vgui@@@vgui@@QAEXPAVFrame@2@@Z 1000b1b0 f i ev_hldm.obj
 0001:0000a250       ?hasElement@?$Dar@PAVFrame@vgui@@@vgui@@QAE_NPAVFrame@2@@Z 1000b250 f i ev_hldm.obj
 0001:0000a280       ?putElement@?$Dar@PAVFrame@vgui@@@vgui@@QAEXPAVFrame@2@@Z 1000b280 f i ev_hldm.obj
 0001:0000a340       ?insertElementAt@?$Dar@PAVFrame@vgui@@@vgui@@QAEXPAVFrame@2@H@Z 1000b340 f i ev_hldm.obj
 0001:0000a4b0       ?setElementAt@?$Dar@PAVFrame@vgui@@@vgui@@QAEXPAVFrame@2@H@Z 1000b4b0 f i ev_hldm.obj
 0001:0000a4d0       ?removeElementAt@?$Dar@PAVFrame@vgui@@@vgui@@QAEXH@Z 1000b4d0 f i ev_hldm.obj
 0001:0000a500       ?removeElement@?$Dar@PAVFrame@vgui@@@vgui@@QAEXPAVFrame@2@@Z 1000b500 f i ev_hldm.obj
 0001:0000a550       ?removeAll@?$Dar@PAVFrame@vgui@@@vgui@@QAEXXZ 1000b550 f i ev_hldm.obj
 0001:0000a560       ??A?$Dar@PAVFrame@vgui@@@vgui@@QAEPAVFrame@1@H@Z 1000b560 f i ev_hldm.obj
 0001:0000a580       ??0?$Dar@PAVDesktopIcon@vgui@@@vgui@@QAE@XZ 1000b580 f i ev_hldm.obj
 0001:0000a600       ??0?$Dar@PAVDesktopIcon@vgui@@@vgui@@QAE@H@Z 1000b600 f i ev_hldm.obj
 0001:0000a690       ?ensureCapacity@?$Dar@PAVDesktopIcon@vgui@@@vgui@@QAEXH@Z 1000b690 f i ev_hldm.obj
 0001:0000a720       ?setCount@?$Dar@PAVDesktopIcon@vgui@@@vgui@@QAEXH@Z 1000b720 f i ev_hldm.obj
 0001:0000a740       ?getCount@?$Dar@PAVDesktopIcon@vgui@@@vgui@@QAEHXZ 1000b740 f i ev_hldm.obj
 0001:0000a750       ?addElement@?$Dar@PAVDesktopIcon@vgui@@@vgui@@QAEXPAVDesktopIcon@2@@Z 1000b750 f i ev_hldm.obj
 0001:0000a7f0       ?hasElement@?$Dar@PAVDesktopIcon@vgui@@@vgui@@QAE_NPAVDesktopIcon@2@@Z 1000b7f0 f i ev_hldm.obj
 0001:0000a820       ?putElement@?$Dar@PAVDesktopIcon@vgui@@@vgui@@QAEXPAVDesktopIcon@2@@Z 1000b820 f i ev_hldm.obj
 0001:0000a8e0       ?insertElementAt@?$Dar@PAVDesktopIcon@vgui@@@vgui@@QAEXPAVDesktopIcon@2@H@Z 1000b8e0 f i ev_hldm.obj
 0001:0000aa50       ?setElementAt@?$Dar@PAVDesktopIcon@vgui@@@vgui@@QAEXPAVDesktopIcon@2@H@Z 1000ba50 f i ev_hldm.obj
 0001:0000aa70       ?removeElementAt@?$Dar@PAVDesktopIcon@vgui@@@vgui@@QAEXH@Z 1000ba70 f i ev_hldm.obj
 0001:0000aaa0       ?removeElement@?$Dar@PAVDesktopIcon@vgui@@@vgui@@QAEXPAVDesktopIcon@2@@Z 1000baa0 f i ev_hldm.obj
 0001:0000aaf0       ?removeAll@?$Dar@PAVDesktopIcon@vgui@@@vgui@@QAEXXZ 1000baf0 f i ev_hldm.obj
 0001:0000ab00       ??A?$Dar@PAVDesktopIcon@vgui@@@vgui@@QAEPAVDesktopIcon@1@H@Z 1000bb00 f i ev_hldm.obj
 0001:0000ab20       ??0?$Dar@PAVChangeSignal@vgui@@@vgui@@QAE@XZ 1000bb20 f i ev_hldm.obj
 0001:0000aba0       ??0?$Dar@PAVChangeSignal@vgui@@@vgui@@QAE@H@Z 1000bba0 f i ev_hldm.obj
 0001:0000ac30       ?ensureCapacity@?$Dar@PAVChangeSignal@vgui@@@vgui@@QAEXH@Z 1000bc30 f i ev_hldm.obj
 0001:0000acc0       ?setCount@?$Dar@PAVChangeSignal@vgui@@@vgui@@QAEXH@Z 1000bcc0 f i ev_hldm.obj
 0001:0000ace0       ?getCount@?$Dar@PAVChangeSignal@vgui@@@vgui@@QAEHXZ 1000bce0 f i ev_hldm.obj
 0001:0000acf0       ?addElement@?$Dar@PAVChangeSignal@vgui@@@vgui@@QAEXPAVChangeSignal@2@@Z 1000bcf0 f i ev_hldm.obj
 0001:0000ad90       ?hasElement@?$Dar@PAVChangeSignal@vgui@@@vgui@@QAE_NPAVChangeSignal@2@@Z 1000bd90 f i ev_hldm.obj
 0001:0000adc0       ?putElement@?$Dar@PAVChangeSignal@vgui@@@vgui@@QAEXPAVChangeSignal@2@@Z 1000bdc0 f i ev_hldm.obj
 0001:0000ae80       ?insertElementAt@?$Dar@PAVChangeSignal@vgui@@@vgui@@QAEXPAVChangeSignal@2@H@Z 1000be80 f i ev_hldm.obj
 0001:0000aff0       ?setElementAt@?$Dar@PAVChangeSignal@vgui@@@vgui@@QAEXPAVChangeSignal@2@H@Z 1000bff0 f i ev_hldm.obj
 0001:0000b010       ?removeElementAt@?$Dar@PAVChangeSignal@vgui@@@vgui@@QAEXH@Z 1000c010 f i ev_hldm.obj
 0001:0000b040       ?removeElement@?$Dar@PAVChangeSignal@vgui@@@vgui@@QAEXPAVChangeSignal@2@@Z 1000c040 f i ev_hldm.obj
 0001:0000b090       ?removeAll@?$Dar@PAVChangeSignal@vgui@@@vgui@@QAEXXZ 1000c090 f i ev_hldm.obj
 0001:0000b0a0       ??A?$Dar@PAVChangeSignal@vgui@@@vgui@@QAEPAVChangeSignal@1@H@Z 1000c0a0 f i ev_hldm.obj
 0001:0000b0c0       ??0?$Dar@PAVPanel@vgui@@@vgui@@QAE@XZ 1000c0c0 f i ev_hldm.obj
 0001:0000b140       ??0?$Dar@PAVPanel@vgui@@@vgui@@QAE@H@Z 1000c140 f i ev_hldm.obj
 0001:0000b1d0       ?ensureCapacity@?$Dar@PAVPanel@vgui@@@vgui@@QAEXH@Z 1000c1d0 f i ev_hldm.obj
 0001:0000b260       ?setCount@?$Dar@PAVPanel@vgui@@@vgui@@QAEXH@Z 1000c260 f i ev_hldm.obj
 0001:0000b280       ?getCount@?$Dar@PAVPanel@vgui@@@vgui@@QAEHXZ 1000c280 f i ev_hldm.obj
 0001:0000b290       ?addElement@?$Dar@PAVPanel@vgui@@@vgui@@QAEXPAVPanel@2@@Z 1000c290 f i ev_hldm.obj
 0001:0000b330       ?hasElement@?$Dar@PAVPanel@vgui@@@vgui@@QAE_NPAVPanel@2@@Z 1000c330 f i ev_hldm.obj
 0001:0000b360       ?putElement@?$Dar@PAVPanel@vgui@@@vgui@@QAEXPAVPanel@2@@Z 1000c360 f i ev_hldm.obj
 0001:0000b420       ?insertElementAt@?$Dar@PAVPanel@vgui@@@vgui@@QAEXPAVPanel@2@H@Z 1000c420 f i ev_hldm.obj
 0001:0000b590       ?setElementAt@?$Dar@PAVPanel@vgui@@@vgui@@QAEXPAVPanel@2@H@Z 1000c590 f i ev_hldm.obj
 0001:0000b5b0       ?removeElementAt@?$Dar@PAVPanel@vgui@@@vgui@@QAEXH@Z 1000c5b0 f i ev_hldm.obj
 0001:0000b5e0       ?removeElement@?$Dar@PAVPanel@vgui@@@vgui@@QAEXPAVPanel@2@@Z 1000c5e0 f i ev_hldm.obj
 0001:0000b630       ?removeAll@?$Dar@PAVPanel@vgui@@@vgui@@QAEXXZ 1000c630 f i ev_hldm.obj
 0001:0000b640       ??A?$Dar@PAVPanel@vgui@@@vgui@@QAEPAVPanel@1@H@Z 1000c640 f i ev_hldm.obj
 0001:0000b660       ??0?$Dar@PAVLabel@vgui@@@vgui@@QAE@XZ 1000c660 f i ev_hldm.obj
 0001:0000b6e0       ??0?$Dar@PAVLabel@vgui@@@vgui@@QAE@H@Z 1000c6e0 f i ev_hldm.obj
 0001:0000b770       ?ensureCapacity@?$Dar@PAVLabel@vgui@@@vgui@@QAEXH@Z 1000c770 f i ev_hldm.obj
 0001:0000b800       ?setCount@?$Dar@PAVLabel@vgui@@@vgui@@QAEXH@Z 1000c800 f i ev_hldm.obj
 0001:0000b820       ?getCount@?$Dar@PAVLabel@vgui@@@vgui@@QAEHXZ 1000c820 f i ev_hldm.obj
 0001:0000b830       ?addElement@?$Dar@PAVLabel@vgui@@@vgui@@QAEXPAVLabel@2@@Z 1000c830 f i ev_hldm.obj
 0001:0000b8d0       ?hasElement@?$Dar@PAVLabel@vgui@@@vgui@@QAE_NPAVLabel@2@@Z 1000c8d0 f i ev_hldm.obj
 0001:0000b900       ?putElement@?$Dar@PAVLabel@vgui@@@vgui@@QAEXPAVLabel@2@@Z 1000c900 f i ev_hldm.obj
 0001:0000b9c0       ?insertElementAt@?$Dar@PAVLabel@vgui@@@vgui@@QAEXPAVLabel@2@H@Z 1000c9c0 f i ev_hldm.obj
 0001:0000bb30       ?setElementAt@?$Dar@PAVLabel@vgui@@@vgui@@QAEXPAVLabel@2@H@Z 1000cb30 f i ev_hldm.obj
 0001:0000bb50       ?removeElementAt@?$Dar@PAVLabel@vgui@@@vgui@@QAEXH@Z 1000cb50 f i ev_hldm.obj
 0001:0000bb80       ?removeElement@?$Dar@PAVLabel@vgui@@@vgui@@QAEXPAVLabel@2@@Z 1000cb80 f i ev_hldm.obj
 0001:0000bbd0       ?removeAll@?$Dar@PAVLabel@vgui@@@vgui@@QAEXXZ 1000cbd0 f i ev_hldm.obj
 0001:0000bbe0       ??A?$Dar@PAVLabel@vgui@@@vgui@@QAEPAVLabel@1@H@Z 1000cbe0 f i ev_hldm.obj
 0001:0000bc00       ??0?$Dar@PAVRepaintSignal@vgui@@@vgui@@QAE@XZ 1000cc00 f i ev_hldm.obj
 0001:0000bc80       ??0?$Dar@PAVRepaintSignal@vgui@@@vgui@@QAE@H@Z 1000cc80 f i ev_hldm.obj
 0001:0000bd10       ?ensureCapacity@?$Dar@PAVRepaintSignal@vgui@@@vgui@@QAEXH@Z 1000cd10 f i ev_hldm.obj
 0001:0000bda0       ?setCount@?$Dar@PAVRepaintSignal@vgui@@@vgui@@QAEXH@Z 1000cda0 f i ev_hldm.obj
 0001:0000bdc0       ?getCount@?$Dar@PAVRepaintSignal@vgui@@@vgui@@QAEHXZ 1000cdc0 f i ev_hldm.obj
 0001:0000bdd0       ?addElement@?$Dar@PAVRepaintSignal@vgui@@@vgui@@QAEXPAVRepaintSignal@2@@Z 1000cdd0 f i ev_hldm.obj
 0001:0000be70       ?hasElement@?$Dar@PAVRepaintSignal@vgui@@@vgui@@QAE_NPAVRepaintSignal@2@@Z 1000ce70 f i ev_hldm.obj
 0001:0000bea0       ?putElement@?$Dar@PAVRepaintSignal@vgui@@@vgui@@QAEXPAVRepaintSignal@2@@Z 1000cea0 f i ev_hldm.obj
 0001:0000bf60       ?insertElementAt@?$Dar@PAVRepaintSignal@vgui@@@vgui@@QAEXPAVRepaintSignal@2@H@Z 1000cf60 f i ev_hldm.obj
 0001:0000c0d0       ?setElementAt@?$Dar@PAVRepaintSignal@vgui@@@vgui@@QAEXPAVRepaintSignal@2@H@Z 1000d0d0 f i ev_hldm.obj
 0001:0000c0f0       ?removeElementAt@?$Dar@PAVRepaintSignal@vgui@@@vgui@@QAEXH@Z 1000d0f0 f i ev_hldm.obj
 0001:0000c120       ?removeElement@?$Dar@PAVRepaintSignal@vgui@@@vgui@@QAEXPAVRepaintSignal@2@@Z 1000d120 f i ev_hldm.obj
 0001:0000c170       ?removeAll@?$Dar@PAVRepaintSignal@vgui@@@vgui@@QAEXXZ 1000d170 f i ev_hldm.obj
 0001:0000c180       ??A?$Dar@PAVRepaintSignal@vgui@@@vgui@@QAEPAVRepaintSignal@1@H@Z 1000d180 f i ev_hldm.obj
 0001:0000c1a0       ?Game_HookEvents@@YAXXZ    1000d1a0 f   hl_events.obj
 0001:0000c340       ?UpdateBeams@@YAXXZ        1000d340 f   hl_objects.obj
 0001:0000c480       ?Game_AddObjects@@YAXXZ    1000d480 f   hl_objects.obj
 0001:0000c4c0       ?HUD_GetLastOrg@@YAXPAM@Z  1000d4c0 f   hl_weapons.obj
 0001:0000c4e0       ?HUD_SetLastOrg@@YAXXZ     1000d4e0 f   hl_weapons.obj
 0001:0000c510       _HUD_PostRunCmd            1000d510 f   hl_weapons.obj
 0001:0000c530       ??0InterfaceReg@@QAE@P6APAVIBaseInterface@@XZPBD@Z 1000d530 f   interface.obj
 0001:0000c550       _CreateInterface           1000d550 f   interface.obj
 0001:0000c5d0       ?Sys_LoadModule@@YAPAUHInterfaceModule_t@@PBD@Z 1000d5d0 f   interface.obj
 0001:0000c5e0       ?Sys_FreeModule@@YAXPAUHInterfaceModule_t@@@Z 1000d5e0 f   interface.obj
 0001:0000c5f0       ?Sys_GetFactoryThis@@YAP6APAVIBaseInterface@@PBDPAH@ZXZ 1000d5f0 f   interface.obj
 0001:0000c600       ?Sys_GetFactory@@YAP6APAVIBaseInterface@@PBDPAH@ZPAUHInterfaceModule_t@@@Z 1000d600 f   interface.obj
 0001:0000c620       ??0ScrollBar2@vgui@@QAE@HHHH_N@Z 1000d620 f   vgui_scrollbar2.obj
 0001:0000cac0       ?paintBackground@ScrollBarButton@@UAEXXZ 1000dac0 f i vgui_scrollbar2.obj
 0001:0000cb10       ?setSize@ScrollBar2@vgui@@UAEXHH@Z 1000db10 f   vgui_scrollbar2.obj
 0001:0000cc20       ?performLayout@ScrollBar2@vgui@@MAEXXZ 1000dc20 f   vgui_scrollbar2.obj
 0001:0000cc30       ?setValue@ScrollBar2@vgui@@UAEXH@Z 1000dc30 f   vgui_scrollbar2.obj
 0001:0000cc50       ?getValue@ScrollBar2@vgui@@UAEHXZ 1000dc50 f   vgui_scrollbar2.obj
 0001:0000cc60       ?addIntChangeSignal@ScrollBar2@vgui@@UAEXPAVIntChangeSignal@2@@Z 1000dc60 f   vgui_scrollbar2.obj
 0001:0000cd80       ?intChanged@FooDefaultScrollBarIntChangeSignal@?%C:\Projects\paranoia_coop\code_src\game_shared\vgui_scrollbar2.cpp2035421799@@UAEXHPAVPanel@vgui@@@Z 1000dd80 f i vgui_scrollbar2.obj
 0001:0000cd90       ?setRange@ScrollBar2@vgui@@UAEXHH@Z 1000dd90 f   vgui_scrollbar2.obj
 0001:0000cdb0       ?fireIntChangeSignal@ScrollBar2@vgui@@UAEXXZ 1000ddb0 f   vgui_scrollbar2.obj
 0001:0000ce10       ?isVertical@ScrollBar2@vgui@@UAE_NXZ 1000de10 f   vgui_scrollbar2.obj
 0001:0000ce20       ?hasFullRange@ScrollBar2@vgui@@UAE_NXZ 1000de20 f   vgui_scrollbar2.obj
 0001:0000ce30       ?setButton@ScrollBar2@vgui@@UAEXPAVButton@2@H@Z 1000de30 f   vgui_scrollbar2.obj
 0001:0000cea0       ?actionPerformed@FooDefaultButtonSignal@?%C:\Projects\paranoia_coop\code_src\game_shared\vgui_scrollbar2.cpp2035421799@@UAEXPAVPanel@vgui@@@Z 1000dea0 f i vgui_scrollbar2.obj
 0001:0000cec0       ?getButton@ScrollBar2@vgui@@UAEPAVButton@2@H@Z 1000dec0 f   vgui_scrollbar2.obj
 0001:0000ced0       ?setSlider@ScrollBar2@vgui@@UAEXPAVSlider2@2@@Z 1000ded0 f   vgui_scrollbar2.obj
 0001:0000cf30       ??0ScrollBar2@vgui@@QAE@ABV01@@Z 1000df30 f i vgui_scrollbar2.obj
 0001:0000d130       ?getSlider@ScrollBar2@vgui@@UAEPAVSlider2@2@XZ 1000e130 f   vgui_scrollbar2.obj
 0001:0000d140       ?doButtonPressed@ScrollBar2@vgui@@UAEXH@Z 1000e140 f   vgui_scrollbar2.obj
 0001:0000d1a0       ??4ScrollBar2@vgui@@QAEAAV01@ABV01@@Z 1000e1a0 f i vgui_scrollbar2.obj
 0001:0000d3e0       ?setButtonPressedScrollValue@ScrollBar2@vgui@@UAEXH@Z 1000e3e0 f   vgui_scrollbar2.obj
 0001:0000d3f0       ?setRangeWindow@ScrollBar2@vgui@@UAEXH@Z 1000e3f0 f   vgui_scrollbar2.obj
 0001:0000d410       ??0Slider2@vgui@@QAE@ABV01@@Z 1000e410 f i vgui_scrollbar2.obj
 0001:0000d690       ?setRangeWindowEnabled@ScrollBar2@vgui@@UAEX_N@Z 1000e690 f   vgui_scrollbar2.obj
 0001:0000d6b0       ?validate@ScrollBar2@vgui@@UAEXXZ 1000e6b0 f   vgui_scrollbar2.obj
 0001:0000d740       ??4Slider2@vgui@@QAEAAV01@ABV01@@Z 1000e740 f i vgui_scrollbar2.obj
 0001:0000d9f0       ??0IntChangeSignal@vgui@@QAE@XZ 1000e9f0 f i vgui_scrollbar2.obj
 0001:0000da00       ??0IntChangeSignal@vgui@@QAE@ABV01@@Z 1000ea00 f i vgui_scrollbar2.obj
 0001:0000da10       ??4IntChangeSignal@vgui@@QAEAAV01@ABV01@@Z 1000ea10 f i vgui_scrollbar2.obj
 0001:0000da20       ??0ActionSignal@vgui@@QAE@XZ 1000ea20 f i vgui_scrollbar2.obj
 0001:0000da30       ??0ActionSignal@vgui@@QAE@ABV01@@Z 1000ea30 f i vgui_scrollbar2.obj
 0001:0000da40       ??4ActionSignal@vgui@@QAEAAV01@ABV01@@Z 1000ea40 f i vgui_scrollbar2.obj
 0001:0000da50       ??0Slider2@vgui@@QAE@HHHH_N@Z 1000ea50 f   vgui_slider2.obj
 0001:0000db90       ?cursorMoved@FooDefaultSliderSignal@?%C:\Projects\paranoia_coop\code_src\game_shared\vgui_slider2.cpp1815711199@@UAEXHHPAVPanel@vgui@@@Z 1000eb90 f i vgui_slider2.obj
 0001:0000dbb0       ?cursorEntered@FooDefaultSliderSignal@?%C:\Projects\paranoia_coop\code_src\game_shared\vgui_slider2.cpp1815711199@@UAEXPAVPanel@vgui@@@Z 1000ebb0 f i vgui_slider2.obj
 0001:0000dbc0       ?cursorExited@FooDefaultSliderSignal@?%C:\Projects\paranoia_coop\code_src\game_shared\vgui_slider2.cpp1815711199@@UAEXPAVPanel@vgui@@@Z 1000ebc0 f i vgui_slider2.obj
 0001:0000dbd0       ?mouseDoublePressed@FooDefaultSliderSignal@?%C:\Projects\paranoia_coop\code_src\game_shared\vgui_slider2.cpp1815711199@@UAEXW4MouseCode@vgui@@PAVPanel@4@@Z 1000ebd0 f i vgui_slider2.obj
 0001:0000dbe0       ?mousePressed@FooDefaultSliderSignal@?%C:\Projects\paranoia_coop\code_src\game_shared\vgui_slider2.cpp1815711199@@UAEXW4MouseCode@vgui@@PAVPanel@4@@Z 1000ebe0 f i vgui_slider2.obj
 0001:0000dc00       ?mouseReleased@FooDefaultSliderSignal@?%C:\Projects\paranoia_coop\code_src\game_shared\vgui_slider2.cpp1815711199@@UAEXW4MouseCode@vgui@@PAVPanel@4@@Z 1000ec00 f i vgui_slider2.obj
 0001:0000dc20       ?mouseWheeled@FooDefaultSliderSignal@?%C:\Projects\paranoia_coop\code_src\game_shared\vgui_slider2.cpp1815711199@@UAEXHPAVPanel@vgui@@@Z 1000ec20 f i vgui_slider2.obj
 0001:0000dc30       ?keyPressed@FooDefaultSliderSignal@?%C:\Projects\paranoia_coop\code_src\game_shared\vgui_slider2.cpp1815711199@@UAEXW4KeyCode@vgui@@PAVPanel@4@@Z 1000ec30 f i vgui_slider2.obj
 0001:0000dc40       ?keyTyped@FooDefaultSliderSignal@?%C:\Projects\paranoia_coop\code_src\game_shared\vgui_slider2.cpp1815711199@@UAEXW4KeyCode@vgui@@PAVPanel@4@@Z 1000ec40 f i vgui_slider2.obj
 0001:0000dc50       ?keyReleased@FooDefaultSliderSignal@?%C:\Projects\paranoia_coop\code_src\game_shared\vgui_slider2.cpp1815711199@@UAEXW4KeyCode@vgui@@PAVPanel@4@@Z 1000ec50 f i vgui_slider2.obj
 0001:0000dc60       ?keyFocusTicked@FooDefaultSliderSignal@?%C:\Projects\paranoia_coop\code_src\game_shared\vgui_slider2.cpp1815711199@@UAEXPAVPanel@vgui@@@Z 1000ec60 f i vgui_slider2.obj
 0001:0000dc70       ?setSize@Slider2@vgui@@UAEXHH@Z 1000ec70 f   vgui_slider2.obj
 0001:0000dca0       ?isVertical@Slider2@vgui@@UAE_NXZ 1000eca0 f   vgui_slider2.obj
 0001:0000dcb0       ?setValue@Slider2@vgui@@UAEXH@Z 1000ecb0 f   vgui_slider2.obj
 0001:0000dd00       ?getValue@Slider2@vgui@@UAEHXZ 1000ed00 f   vgui_slider2.obj
 0001:0000dd10       ?recomputeNobPosFromValue@Slider2@vgui@@EAEXXZ 1000ed10 f   vgui_slider2.obj
 0001:0000de70       ?recomputeValueFromNobPos@Slider2@vgui@@EAEXXZ 1000ee70 f   vgui_slider2.obj
 0001:0000df70       ?hasFullRange@Slider2@vgui@@UAE_NXZ 1000ef70 f   vgui_slider2.obj
 0001:0000e030       ?addIntChangeSignal@Slider2@vgui@@UAEXPAVIntChangeSignal@2@@Z 1000f030 f   vgui_slider2.obj
 0001:0000e120       ?fireIntChangeSignal@Slider2@vgui@@MAEXXZ 1000f120 f   vgui_slider2.obj
 0001:0000e170       ?paintBackground@Slider2@vgui@@MAEXXZ 1000f170 f   vgui_slider2.obj
 0001:0000e330       ?setRange@Slider2@vgui@@UAEXHH@Z 1000f330 f   vgui_slider2.obj
 0001:0000e360       ?getRange@Slider2@vgui@@UAEXAAH0@Z 1000f360 f   vgui_slider2.obj
 0001:0000e380       ?privateCursorMoved@Slider2@vgui@@UAEXHHPAVPanel@2@@Z 1000f380 f   vgui_slider2.obj
 0001:0000e4c0       ??0Cursor@vgui@@QAE@ABV01@@Z 1000f4c0 f i vgui_slider2.obj
 0001:0000e4f0       ??4Cursor@vgui@@QAEAAV01@ABV01@@Z 1000f4f0 f i vgui_slider2.obj
 0001:0000e530       ??0App@vgui@@QAE@ABV01@@Z  1000f530 f i vgui_slider2.obj
 0001:0000e6b0       ?privateMousePressed@Slider2@vgui@@UAEXW4MouseCode@2@PAVPanel@2@@Z 1000f6b0 f   vgui_slider2.obj
 0001:0000e770       ??4App@vgui@@QAEAAV01@ABV01@@Z 1000f770 f i vgui_slider2.obj
 0001:0000e920       ?privateMouseReleased@Slider2@vgui@@UAEXW4MouseCode@2@PAVPanel@2@@Z 1000f920 f   vgui_slider2.obj
 0001:0000e940       ?getNobPos@Slider2@vgui@@UAEXAAH0@Z 1000f940 f   vgui_slider2.obj
 0001:0000e960       ?setRangeWindow@Slider2@vgui@@UAEXH@Z 1000f960 f   vgui_slider2.obj
 0001:0000e970       ?setRangeWindowEnabled@Slider2@vgui@@UAEX_N@Z 1000f970 f   vgui_slider2.obj
 0001:0000e980       ?setButtonOffset@Slider2@vgui@@UAEXH@Z 1000f980 f   vgui_slider2.obj
 0001:0000e990       ?HashPlayerID@@YAEQBD@Z    1000f990 f   voice_banmgr.obj
 0001:0000e9b0       ??0CVoiceBanMgr@@QAE@XZ    1000f9b0 f   voice_banmgr.obj
 0001:0000e9c0       ??1CVoiceBanMgr@@QAE@XZ    1000f9c0 f   voice_banmgr.obj
 0001:0000e9d0       ?Init@CVoiceBanMgr@@QAE_NPBD@Z 1000f9d0 f   voice_banmgr.obj
 0001:0000eab0       ?Term@CVoiceBanMgr@@QAEXXZ 1000fab0 f   voice_banmgr.obj
 0001:0000eaf0       ?SaveState@CVoiceBanMgr@@QAEXPBD@Z 1000faf0 f   voice_banmgr.obj
 0001:0000eb90       ?GetPlayerBan@CVoiceBanMgr@@QAE_NQBD@Z 1000fb90 f   voice_banmgr.obj
 0001:0000ebb0       ?SetPlayerBan@CVoiceBanMgr@@QAEXQBD_N@Z 1000fbb0 f   voice_banmgr.obj
 0001:0000ec10       ?ForEachBannedPlayer@CVoiceBanMgr@@QAEXP6AXQAD@Z@Z 1000fc10 f   voice_banmgr.obj
 0001:0000ec40       ?Clear@CVoiceBanMgr@@IAEXXZ 1000fc40 f   voice_banmgr.obj
 0001:0000ec60       ?InternalFindPlayerSquelch@CVoiceBanMgr@@IAEPAVBannedPlayer@1@QBD@Z 1000fc60 f   voice_banmgr.obj
 0001:0000ecb0       ?AddBannedPlayer@CVoiceBanMgr@@IAEPAVBannedPlayer@1@QBD@Z 1000fcb0 f   voice_banmgr.obj
 0001:0000ed60       ?GetClientVoiceMgr@@YAPAVCVoiceStatus@@XZ 1000fd60 f   voice_status.obj
 0001:0000ed70       ?__MsgFunc_VoiceMask@@YAHPBDHPAX@Z 1000fd70 f   voice_status.obj
 0001:0000ed90       ?__MsgFunc_ReqState@@YAHPBDHPAX@Z 1000fd90 f   voice_status.obj
 0001:0000edb0       ?ForEachBannedPlayer@@YAXQAD@Z 1000fdb0 f   voice_status.obj
 0001:0000ee50       ?ShowBannedCallback@@YAXXZ 1000fe50 f   voice_status.obj
 0001:0000eea0       ??0CVoiceStatus@@QAE@XZ    1000fea0 f   voice_status.obj
 0001:0000efb0       ??_ECVoiceStatus@@UAEPAXI@Z 1000ffb0 f i voice_status.obj
 0001:0000efb0       ??_GCVoiceStatus@@UAEPAXI@Z 1000ffb0 f i voice_status.obj
 0001:0000efd0       ??0position_history_t@@QAE@XZ 1000ffd0 f i voice_status.obj
 0001:0000efe0       ??1CVoiceStatus@@UAE@XZ    1000ffe0 f   voice_status.obj
 0001:0000f0d0       ?Init@CVoiceStatus@@UAEHPAVIVoiceStatusHelper@@PAPAVPanel@vgui@@@Z 100100d0 f   voice_status.obj
 0001:0000f360       ?VidInit@CVoiceStatus@@UAEHXZ 10010360 f   voice_status.obj
 0001:0000f640       ??0Vector@@QAE@XZ          10010640 f i voice_status.obj
 0001:0000f650       ?Frame@CVoiceStatus@@QAEXN@Z 10010650 f   voice_status.obj
 0001:0000f6e0       ?CreateEntities@CVoiceStatus@@QAEXXZ 100106e0 f   voice_status.obj
 0001:0000f870       ??1CHudBase@@UAE@XZ        10010870 f i voice_status.obj
 0001:0000f880       ?Init@CHudBase@@UAEHXZ     10010880 f i voice_status.obj
 0001:0000f890       ?VidInit@CHudBase@@UAEHXZ  10010890 f i voice_status.obj
 0001:0000f8a0       ?Draw@CHudBase@@UAEHM@Z    100108a0 f i voice_status.obj
 0001:0000f8b0       ?Think@CHudBase@@UAEXXZ    100108b0 f i voice_status.obj
 0001:0000f8c0       ?Reset@CHudBase@@UAEXXZ    100108c0 f i voice_status.obj
 0001:0000f8d0       ?InitHUDData@CHudBase@@UAEXXZ 100108d0 f i voice_status.obj
 0001:0000f8e0       ??_GCHudBase@@UAEPAXI@Z    100108e0 f i voice_status.obj
 0001:0000f8e0       ??_ECHudBase@@UAEPAXI@Z    100108e0 f i voice_status.obj
 0001:0000f900       ?UpdateSpeakerStatus@CVoiceStatus@@QAEXHH@Z 10010900 f   voice_status.obj
 0001:0000fb80       ?UpdateServerState@CVoiceStatus@@QAEX_N@Z 10010b80 f   voice_status.obj
 0001:0000fdf0       ?UpdateSpeakerImage@CVoiceStatus@@QAEXPAVLabel@vgui@@H@Z 10010df0 f   voice_status.obj
 0001:0000fe10       ?UpdateBanButton@CVoiceStatus@@QAEXH@Z 10010e10 f   voice_status.obj
 0001:0000ff60       ?HandleVoiceMaskMsg@CVoiceStatus@@QAEXHPAX@Z 10010f60 f   voice_status.obj
 0001:00010010       ?HandleReqStateMsg@CVoiceStatus@@QAEXHPAX@Z 10011010 f   voice_status.obj
 0001:00010050       ?StartSquelchMode@CVoiceStatus@@QAEXXZ 10011050 f   voice_status.obj
 0001:00010070       ?StopSquelchMode@CVoiceStatus@@QAEXXZ 10011070 f   voice_status.obj
 0001:00010090       ?IsInSquelchMode@CVoiceStatus@@QAE_NXZ 10011090 f   voice_status.obj
 0001:000100a0       ?FindVoiceLabel@CVoiceStatus@@QAEPAVCVoiceLabel@@H@Z 100110a0 f   voice_status.obj
 0001:000100d0       ?GetFreeVoiceLabel@CVoiceStatus@@QAEPAVCVoiceLabel@@XZ 100110d0 f   voice_status.obj
 0001:000100e0       ?RepositionLabels@CVoiceStatus@@QAEXXZ 100110e0 f   voice_status.obj
 0001:00010340       ?FreeBitmaps@CVoiceStatus@@QAEXXZ 10011340 f   voice_status.obj
 0001:00010430       ?IsPlayerBlocked@CVoiceStatus@@QAE_NH@Z 10011430 f   voice_status.obj
 0001:00010470       ?IsPlayerAudible@CVoiceStatus@@QAE_NH@Z 10011470 f   voice_status.obj
 0001:000104a0       ?SetPlayerBlockedState@CVoiceStatus@@QAEXH_N@Z 100114a0 f   voice_status.obj
 0001:000105a0       ?cursorMoved@CDefaultInputSignal@vgui@@UAEXHHPAVPanel@2@@Z 100115a0 f i voice_status.obj
 0001:000105b0       ?cursorEntered@CDefaultInputSignal@vgui@@UAEXPAVPanel@2@@Z 100115b0 f i voice_status.obj
 0001:000105c0       ?cursorExited@CDefaultInputSignal@vgui@@UAEXPAVPanel@2@@Z 100115c0 f i voice_status.obj
 0001:000105d0       ?mousePressed@CDefaultInputSignal@vgui@@UAEXW4MouseCode@2@PAVPanel@2@@Z 100115d0 f i voice_status.obj
 0001:000105e0       ?mouseDoublePressed@CDefaultInputSignal@vgui@@UAEXW4MouseCode@2@PAVPanel@2@@Z 100115e0 f i voice_status.obj
 0001:000105f0       ?mouseReleased@CDefaultInputSignal@vgui@@UAEXW4MouseCode@2@PAVPanel@2@@Z 100115f0 f i voice_status.obj
 0001:00010600       ?mouseWheeled@CDefaultInputSignal@vgui@@UAEXHPAVPanel@2@@Z 10011600 f i voice_status.obj
 0001:00010610       ?keyPressed@CDefaultInputSignal@vgui@@UAEXW4KeyCode@2@PAVPanel@2@@Z 10011610 f i voice_status.obj
 0001:00010620       ?keyTyped@CDefaultInputSignal@vgui@@UAEXW4KeyCode@2@PAVPanel@2@@Z 10011620 f i voice_status.obj
 0001:00010630       ?keyReleased@CDefaultInputSignal@vgui@@UAEXW4KeyCode@2@PAVPanel@2@@Z 10011630 f i voice_status.obj
 0001:00010640       ?keyFocusTicked@CDefaultInputSignal@vgui@@UAEXPAVPanel@2@@Z 10011640 f i voice_status.obj
 0001:00010650       ??0TextImage@vgui@@QAE@ABV01@@Z 10011650 f i voice_status.obj
 0001:000106e0       ??4TextImage@vgui@@QAEAAV01@ABV01@@Z 100116e0 f i voice_status.obj
 0001:00010780       ?IsTweakDlgOpen@@YA_NXZ    10011780 f   voice_vgui_tweakdlg.obj
 0001:000107d0       ?GetVoiceTweakDlg@@YAPAVCMenuPanel@@XZ 100117d0 f   voice_vgui_tweakdlg.obj
 0001:00010800       ?actionPerformed@CVoiceTweakOKButton@@UAEXPAVPanel@vgui@@@Z 10011800 f i voice_vgui_tweakdlg.obj
 0001:00010810       ??0TweakScroller@@QAE@XZ   10011810 f   voice_vgui_tweakdlg.obj
 0001:00010850       ?Init@TweakScroller@@QAEXPAVPanel@vgui@@PADH@Z 10011850 f   voice_vgui_tweakdlg.obj
 0001:000109b0       ?GetValue@TweakScroller@@QAEMXZ 100119b0 f   voice_vgui_tweakdlg.obj
 0001:000109e0       ?SetValue@TweakScroller@@QAEXM@Z 100119e0 f   voice_vgui_tweakdlg.obj
 0001:00010a10       ??0CVoiceVGUITweakDlg@@QAE@XZ 10011a10 f   voice_vgui_tweakdlg.obj
 0001:00010b10       ??1CVoiceVGUITweakDlg@@QAE@XZ 10011b10 f   voice_vgui_tweakdlg.obj
 0001:00010b30       ?Open@CVoiceVGUITweakDlg@@UAEXXZ 10011b30 f   voice_vgui_tweakdlg.obj
 0001:00010df0       ?Close@CVoiceVGUITweakDlg@@UAEXXZ 10011df0 f   voice_vgui_tweakdlg.obj
 0001:00010e30       ?paintBackground@CVoiceVGUITweakDlg@@UAEXXZ 10011e30 f   voice_vgui_tweakdlg.obj
 0001:00010ef0       ?StateChanged@CVoiceVGUITweakDlg@@UAEXPAVCCheckButton2@vgui@@@Z 10011ef0 f   voice_vgui_tweakdlg.obj
 0001:00010f30       ??0Frame@vgui@@QAE@ABV01@@Z 10011f30 f i voice_vgui_tweakdlg.obj
 0001:000111f0       ??4Frame@vgui@@QAEAAV01@ABV01@@Z 100121f0 f i voice_vgui_tweakdlg.obj
 0001:000114e0       ??0TextPanel@vgui@@QAE@ABV01@@Z 100124e0 f i voice_vgui_tweakdlg.obj
 0001:000116a0       ??4TextPanel@vgui@@QAEAAV01@ABV01@@Z 100126a0 f i voice_vgui_tweakdlg.obj
 0001:00011890       ??0InputStream@vgui@@QAE@XZ 10012890 f i voice_vgui_tweakdlg.obj
 0001:000118a0       ??0InputStream@vgui@@QAE@ABV01@@Z 100128a0 f i voice_vgui_tweakdlg.obj
 0001:000118b0       ??4InputStream@vgui@@QAEAAV01@ABV01@@Z 100128b0 f i voice_vgui_tweakdlg.obj
 0001:000118c0       ??0FileInputStream@vgui@@QAE@ABV01@@Z 100128c0 f i voice_vgui_tweakdlg.obj
 0001:000118e0       ??4FileInputStream@vgui@@QAEAAV01@ABV01@@Z 100128e0 f i voice_vgui_tweakdlg.obj
 0001:000118f0       ??0DesktopIcon@vgui@@QAE@ABV01@@Z 100128f0 f i voice_vgui_tweakdlg.obj
 0001:00011ad0       ??4DesktopIcon@vgui@@QAEAAV01@ABV01@@Z 10012ad0 f i voice_vgui_tweakdlg.obj
 0001:00011ce0       ??0MiniApp@vgui@@QAE@ABV01@@Z 10012ce0 f i voice_vgui_tweakdlg.obj
 0001:00011d00       ??4MiniApp@vgui@@QAEAAV01@ABV01@@Z 10012d00 f i voice_vgui_tweakdlg.obj
 0001:00011d10       ??4String@vgui@@QAEAAV01@ABV01@@Z 10012d10 f i voice_vgui_tweakdlg.obj
 0001:00011d20       ??0ScrollPanel@vgui@@QAE@ABV01@@Z 10012d20 f i voice_vgui_tweakdlg.obj
 0001:00011f10       ??4ScrollPanel@vgui@@QAEAAV01@ABV01@@Z 10012f10 f i voice_vgui_tweakdlg.obj
 0001:00012150       ??0ScrollBar@vgui@@QAE@ABV01@@Z 10013150 f i voice_vgui_tweakdlg.obj
 0001:00012350       ??4ScrollBar@vgui@@QAEAAV01@ABV01@@Z 10013350 f i voice_vgui_tweakdlg.obj
 0001:00012590       ??0Slider@vgui@@QAE@ABV01@@Z 10013590 f i voice_vgui_tweakdlg.obj
 0001:00012810       ??4Slider@vgui@@QAEAAV01@ABV01@@Z 10013810 f i voice_vgui_tweakdlg.obj
 0001:00012ac0       ??0Font@vgui@@QAE@ABV01@@Z 10013ac0 f i voice_vgui_tweakdlg.obj
 0001:00012af0       ??4Font@vgui@@QAEAAV01@ABV01@@Z 10013af0 f i voice_vgui_tweakdlg.obj
 0001:00012b10       ?paintBackground@CTransparentPanel@@UAEXXZ 10013b10 f i voice_vgui_tweakdlg.obj
 0001:00012b50       ?Reset@CMenuPanel@@UAEXXZ  10013b50 f i voice_vgui_tweakdlg.obj
 0001:00012b70       ?Open@CMenuPanel@@UAEXXZ   10013b70 f i voice_vgui_tweakdlg.obj
 0001:00012b90       ?Close@CMenuPanel@@UAEXXZ  10013b90 f i voice_vgui_tweakdlg.obj
 0001:00012bc0       ?SlotInput@CMenuPanel@@UAE_NH@Z 10013bc0 f i voice_vgui_tweakdlg.obj
 0001:00012bd0       ?SetActiveInfo@CMenuPanel@@UAEXH@Z 10013bd0 f i voice_vgui_tweakdlg.obj
 0001:00012be0       ?LoadAllWeaponSprites@WeaponsResource@@QAEXXZ 10013be0 f   ammo.obj
 0001:00012c10       ?CountAmmo@WeaponsResource@@QAEHH@Z 10013c10 f   ammo.obj
 0001:00012c30       ?HasAmmo@WeaponsResource@@QAEHPAUWEAPON@@@Z 10013c30 f   ammo.obj
 0001:00012ca0       ?LoadWeaponSprites@WeaponsResource@@QAEXPAUWEAPON@@@Z 10013ca0 f   ammo.obj
 0001:00013260       ?GetFirstPos@WeaponsResource@@QAEPAUWEAPON@@H@Z 10014260 f   ammo.obj
 0001:000132b0       ?GetLastPos@WeaponsResource@@QAEPAUWEAPON@@H@Z 100142b0 f   ammo.obj
 0001:00013310       ?GetNextActivePos@WeaponsResource@@QAEPAUWEAPON@@HH@Z 10014310 f   ammo.obj
 0001:00013360       ?GetPrevActivePos@WeaponsResource@@QAEPAUWEAPON@@HH@Z 10014360 f   ammo.obj
 0001:000133b0       ?__MsgFunc_CurWeapon@@YAHPBDHPAX@Z 100143b0 f   ammo.obj
 0001:000133d0       ?__MsgFunc_WeaponList@@YAHPBDHPAX@Z 100143d0 f   ammo.obj
 0001:000133f0       ?__MsgFunc_AmmoX@@YAHPBDHPAX@Z 100143f0 f   ammo.obj
 0001:00013410       ?__MsgFunc_AmmoPickup@@YAHPBDHPAX@Z 10014410 f   ammo.obj
 0001:00013430       ?__MsgFunc_WeapPickup@@YAHPBDHPAX@Z 10014430 f   ammo.obj
 0001:00013450       ?__MsgFunc_HideWeapon@@YAHPBDHPAX@Z 10014450 f   ammo.obj
 0001:00013470       ?__MsgFunc_ItemPickup@@YAHPBDHPAX@Z 10014470 f   ammo.obj
 0001:00013490       ?__CmdFunc_Slot1@@YAXXZ    10014490 f   ammo.obj
 0001:000134a0       ?__CmdFunc_Slot2@@YAXXZ    100144a0 f   ammo.obj
 0001:000134b0       ?__CmdFunc_Slot3@@YAXXZ    100144b0 f   ammo.obj
 0001:000134c0       ?__CmdFunc_Slot4@@YAXXZ    100144c0 f   ammo.obj
 0001:000134d0       ?__CmdFunc_Slot5@@YAXXZ    100144d0 f   ammo.obj
 0001:000134e0       ?__CmdFunc_Slot6@@YAXXZ    100144e0 f   ammo.obj
 0001:000134f0       ?__CmdFunc_Slot7@@YAXXZ    100144f0 f   ammo.obj
 0001:00013500       ?__CmdFunc_Slot8@@YAXXZ    10014500 f   ammo.obj
 0001:00013510       ?__CmdFunc_Slot9@@YAXXZ    10014510 f   ammo.obj
 0001:00013520       ?__CmdFunc_Slot10@@YAXXZ   10014520 f   ammo.obj
 0001:00013530       ?__CmdFunc_Close@@YAXXZ    10014530 f   ammo.obj
 0001:00013540       ?__CmdFunc_NextWeapon@@YAXXZ 10014540 f   ammo.obj
 0001:00013550       ?__CmdFunc_PrevWeapon@@YAXXZ 10014550 f   ammo.obj
 0001:00013560       ?Init@CHudAmmo@@UAEHXZ     10014560 f   ammo.obj
 0001:00013740       ?LoadMenuSettings@CHudAmmo@@QAEXXZ 10014740 f   ammo.obj
 0001:00013cc0       ?Reset@CHudAmmo@@UAEXXZ    10014cc0 f   ammo.obj
 0001:00013d10       ?VidInit@CHudAmmo@@UAEHXZ  10014d10 f   ammo.obj
 0001:00013e20       ?Think@CHudAmmo@@UAEXXZ    10014e20 f   ammo.obj
 0001:00013f70       ?GetAmmoPicFromWeapon@WeaponsResource@@QAEPAHHAAUrect_s@@@Z 10014f70 f   ammo.obj
 0001:00014010       ?SelectSlot@WeaponsResource@@QAEXHHH@Z 10015010 f   ammo.obj
 0001:00014210       ?MsgFunc_AmmoX@CHudAmmo@@QAEHPBDHPAX@Z 10015210 f   ammo.obj
 0001:00014250       ?MsgFunc_AmmoPickup@CHudAmmo@@QAEHPBDHPAX@Z 10015250 f   ammo.obj
 0001:00014310       ?MsgFunc_WeapPickup@CHudAmmo@@QAEHPBDHPAX@Z 10015310 f   ammo.obj
 0001:00014390       ?MsgFunc_ItemPickup@CHudAmmo@@QAEHPBDHPAX@Z 10015390 f   ammo.obj
 0001:000143f0       ?MsgFunc_HideWeapon@CHudAmmo@@QAEHPBDHPAX@Z 100153f0 f   ammo.obj
 0001:00014450       ?MsgFunc_CurWeapon@CHudAmmo@@QAEHPBDHPAX@Z 10015450 f   ammo.obj
 0001:00014590       ?MsgFunc_WeaponList@CHudAmmo@@QAEHPBDHPAX@Z 10015590 f   ammo.obj
 0001:000146b0       ?SlotInput@CHudAmmo@@QAEXH@Z 100156b0 f   ammo.obj
 0001:000146e0       ?UserCmd_Slot1@CHudAmmo@@QAAXXZ 100156e0 f   ammo.obj
 0001:000146f0       ?UserCmd_Slot2@CHudAmmo@@QAAXXZ 100156f0 f   ammo.obj
 0001:00014700       ?UserCmd_Slot3@CHudAmmo@@QAAXXZ 10015700 f   ammo.obj
 0001:00014710       ?UserCmd_Slot4@CHudAmmo@@QAAXXZ 10015710 f   ammo.obj
 0001:00014720       ?UserCmd_Slot5@CHudAmmo@@QAAXXZ 10015720 f   ammo.obj
 0001:00014730       ?UserCmd_Slot6@CHudAmmo@@QAAXXZ 10015730 f   ammo.obj
 0001:00014740       ?UserCmd_Slot7@CHudAmmo@@QAAXXZ 10015740 f   ammo.obj
 0001:00014750       ?UserCmd_Slot8@CHudAmmo@@QAAXXZ 10015750 f   ammo.obj
 0001:00014760       ?UserCmd_Slot9@CHudAmmo@@QAAXXZ 10015760 f   ammo.obj
 0001:00014770       ?UserCmd_Slot10@CHudAmmo@@QAAXXZ 10015770 f   ammo.obj
 0001:00014780       ?UserCmd_Close@CHudAmmo@@QAAXXZ 10015780 f   ammo.obj
 0001:000147c0       ?UserCmd_NextWeapon@CHudAmmo@@QAAXXZ 100157c0 f   ammo.obj
 0001:00014890       ?UserCmd_PrevWeapon@CHudAmmo@@QAAXXZ 10015890 f   ammo.obj
 0001:00014960       ?Draw@CHudAmmo@@UAEHM@Z    10015960 f   ammo.obj
 0001:00014a50       ?DrawBar@@YAHHHHHM@Z       10015a50 f   ammo.obj
 0001:00014b20       ?DrawAmmoBar@@YAXPAUWEAPON@@HHHH@Z 10015b20 f   ammo.obj
 0001:00014be0       ?DrawWList@CHudAmmo@@QAEHM@Z 10015be0 f   ammo.obj
 0001:00014f60       ?GetSpriteList@@YAPAUclient_sprite_s@@PAU1@PBDHH@Z 10015f60 f   ammo.obj
 0001:00014fe0       ?__MsgFunc_SecAmmoVal@@YAHPBDHPAX@Z 10015fe0 f   ammo_secondary.obj
 0001:00015000       ?__MsgFunc_SecAmmoIcon@@YAHPBDHPAX@Z 10016000 f   ammo_secondary.obj
 0001:00015020       ?Init@CHudAmmoSecondary@@UAEHXZ 10016020 f   ammo_secondary.obj
 0001:00015080       ?Reset@CHudAmmoSecondary@@UAEXXZ 10016080 f   ammo_secondary.obj
 0001:00015090       ?VidInit@CHudAmmoSecondary@@UAEHXZ 10016090 f   ammo_secondary.obj
 0001:000150a0       ?Draw@CHudAmmoSecondary@@UAEHM@Z 100160a0 f   ammo_secondary.obj
 0001:000152b0       ?MsgFunc_SecAmmoIcon@CHudAmmoSecondary@@QAEHPBDHPAX@Z 100162b0 f   ammo_secondary.obj
 0001:000152f0       ?MsgFunc_SecAmmoVal@CHudAmmoSecondary@@QAEHPBDHPAX@Z 100162f0 f   ammo_secondary.obj
 0001:00015370       ?AddToHistory@HistoryResource@@QAEXHHH@Z 10016370 f   ammohistory.obj
 0001:00015410       ?AddToHistory@HistoryResource@@QAEXHPBDH@Z 10016410 f   ammohistory.obj
 0001:000154c0       ?CheckClearHistory@HistoryResource@@QAEXXZ 100164c0 f   ammohistory.obj
 0001:000154e0       ?DrawAmmoHistory@HistoryResource@@QAEHM@Z 100164e0 f   ammohistory.obj
 0001:000158b0       ?__MsgFunc_Battery@@YAHPBDHPAX@Z 100168b0 f   battery.obj
 0001:000158d0       ?Init@CHudBattery@@UAEHXZ  100168d0 f   battery.obj
 0001:00015910       ?VidInit@CHudBattery@@UAEHXZ 10016910 f   battery.obj
 0001:00015970       ?MsgFunc_Battery@CHudBattery@@QAEHPBDHPAX@Z 10016970 f   battery.obj
 0001:000159c0       ?Draw@CHudBattery@@UAEHM@Z 100169c0 f   battery.obj
 0001:00015a10       _HUD_GetHullBounds         10016a10 f   cdll_int.obj
 0001:00015a30       _HUD_ConnectionlessPacket  10016a30 f   cdll_int.obj
 0001:00015a40       _HUD_PlayerMoveInit        10016a40 f   cdll_int.obj
 0001:00015a50       _HUD_PlayerMoveTexture     10016a50 f   cdll_int.obj
 0001:00015a60       _HUD_PlayerMove            10016a60 f   cdll_int.obj
 0001:00015a80       _Initialize                10016a80 f   cdll_int.obj
 0001:00015ac0       _HUD_VidInit               10016ac0 f   cdll_int.obj
 0001:00015ae0       _HUD_Init                  10016ae0 f   cdll_int.obj
 0001:00015b00       _HUD_Redraw                10016b00 f   cdll_int.obj
 0001:00015b20       _HUD_UpdateClientData      10016b20 f   cdll_int.obj
 0001:00015b40       _HUD_Reset                 10016b40 f   cdll_int.obj
 0001:00015b50       _HUD_Frame                 10016b50 f   cdll_int.obj
 0001:00015b80       _HUD_VoiceStatus           10016b80 f   cdll_int.obj
 0001:00015ba0       _HUD_DirectorMessage       10016ba0 f   cdll_int.obj
 0001:00015bc0       ??0CHud@@QAE@XZ            10016bc0 f i cdll_int.obj
 0001:00015c70       ??_ECHudAmmo@@UAEPAXI@Z    10016c70 f i cdll_int.obj
 0001:00015c70       ??_GCHudAmmo@@UAEPAXI@Z    10016c70 f i cdll_int.obj
 0001:00015c90       ??1CHudAmmo@@UAE@XZ        10016c90 f i cdll_int.obj
 0001:00015ca0       ??_GCHudHealth@@UAEPAXI@Z  10016ca0 f i cdll_int.obj
 0001:00015ca0       ??_ECHudHealth@@UAEPAXI@Z  10016ca0 f i cdll_int.obj
 0001:00015cc0       ??1CHudHealth@@UAE@XZ      10016cc0 f i cdll_int.obj
 0001:00015cd0       ??_GCHudSpectator@@UAEPAXI@Z 10016cd0 f i cdll_int.obj
 0001:00015cd0       ??_ECHudSpectator@@UAEPAXI@Z 10016cd0 f i cdll_int.obj
 0001:00015cf0       ??1CHudSpectator@@UAE@XZ   10016cf0 f i cdll_int.obj
 0001:00015d00       ??_GCHudGeiger@@UAEPAXI@Z  10016d00 f i cdll_int.obj
 0001:00015d00       ??_ECHudGeiger@@UAEPAXI@Z  10016d00 f i cdll_int.obj
 0001:00015d20       ??1CHudGeiger@@UAE@XZ      10016d20 f i cdll_int.obj
 0001:00015d30       ??_GCHudBattery@@UAEPAXI@Z 10016d30 f i cdll_int.obj
 0001:00015d30       ??_ECHudBattery@@UAEPAXI@Z 10016d30 f i cdll_int.obj
 0001:00015d50       ??1CHudBattery@@UAE@XZ     10016d50 f i cdll_int.obj
 0001:00015d60       ??_ECHudTrain@@UAEPAXI@Z   10016d60 f i cdll_int.obj
 0001:00015d60       ??_GCHudTrain@@UAEPAXI@Z   10016d60 f i cdll_int.obj
 0001:00015d80       ??1CHudTrain@@UAE@XZ       10016d80 f i cdll_int.obj
 0001:00015d90       ??_ECHudFlashlight@@UAEPAXI@Z 10016d90 f i cdll_int.obj
 0001:00015d90       ??_GCHudFlashlight@@UAEPAXI@Z 10016d90 f i cdll_int.obj
 0001:00015db0       ??1CHudFlashlight@@UAE@XZ  10016db0 f i cdll_int.obj
 0001:00015dc0       ??_GCHudMessage@@UAEPAXI@Z 10016dc0 f i cdll_int.obj
 0001:00015dc0       ??_ECHudMessage@@UAEPAXI@Z 10016dc0 f i cdll_int.obj
 0001:00015de0       ??1CHudMessage@@UAE@XZ     10016de0 f i cdll_int.obj
 0001:00015df0       ??_ECHudStatusBar@@UAEPAXI@Z 10016df0 f i cdll_int.obj
 0001:00015df0       ??_GCHudStatusBar@@UAEPAXI@Z 10016df0 f i cdll_int.obj
 0001:00015e10       ??1CHudStatusBar@@UAE@XZ   10016e10 f i cdll_int.obj
 0001:00015e20       ??_GCHudDeathNotice@@UAEPAXI@Z 10016e20 f i cdll_int.obj
 0001:00015e20       ??_ECHudDeathNotice@@UAEPAXI@Z 10016e20 f i cdll_int.obj
 0001:00015e40       ??1CHudDeathNotice@@UAE@XZ 10016e40 f i cdll_int.obj
 0001:00015e50       ??_GCHudSayText@@UAEPAXI@Z 10016e50 f i cdll_int.obj
 0001:00015e50       ??_ECHudSayText@@UAEPAXI@Z 10016e50 f i cdll_int.obj
 0001:00015e70       ??1CHudSayText@@UAE@XZ     10016e70 f i cdll_int.obj
 0001:00015e80       ??_GCHudMenu@@UAEPAXI@Z    10016e80 f i cdll_int.obj
 0001:00015e80       ??_ECHudMenu@@UAEPAXI@Z    10016e80 f i cdll_int.obj
 0001:00015ea0       ??1CHudMenu@@UAE@XZ        10016ea0 f i cdll_int.obj
 0001:00015eb0       ??_GCHudAmmoSecondary@@UAEPAXI@Z 10016eb0 f i cdll_int.obj
 0001:00015eb0       ??_ECHudAmmoSecondary@@UAEPAXI@Z 10016eb0 f i cdll_int.obj
 0001:00015ed0       ??1CHudAmmoSecondary@@UAE@XZ 10016ed0 f i cdll_int.obj
 0001:00015ee0       ??_ECHudTextMessage@@UAEPAXI@Z 10016ee0 f i cdll_int.obj
 0001:00015ee0       ??_GCHudTextMessage@@UAEPAXI@Z 10016ee0 f i cdll_int.obj
 0001:00015f00       ??1CHudTextMessage@@UAE@XZ 10016f00 f i cdll_int.obj
 0001:00015f10       ??_GCHudStatusIcons@@UAEPAXI@Z 10016f10 f i cdll_int.obj
 0001:00015f10       ??_ECHudStatusIcons@@UAEPAXI@Z 10016f10 f i cdll_int.obj
 0001:00015f30       ??1CHudStatusIcons@@UAE@XZ 10016f30 f i cdll_int.obj
 0001:00015f40       ??_ECHudParticle@@UAEPAXI@Z 10016f40 f i cdll_int.obj
 0001:00015f40       ??_GCHudParticle@@UAEPAXI@Z 10016f40 f i cdll_int.obj
 0001:00015f60       ??1CHudParticle@@UAE@XZ    10016f60 f i cdll_int.obj
 0001:00015f70       ?__MsgFunc_DeathMsg@@YAHPBDHPAX@Z 10016f70 f   death.obj
 0001:00015f90       ?GetClientColor@@YAPAMH@Z  10016f90 f   death.obj
 0001:00015fe0       ?Init@CHudDeathNotice@@UAEHXZ 10016fe0 f   death.obj
 0001:00016020       ?InitHUDData@CHudDeathNotice@@UAEXXZ 10017020 f   death.obj
 0001:00016040       ?VidInit@CHudDeathNotice@@UAEHXZ 10017040 f   death.obj
 0001:00016060       ?Draw@CHudDeathNotice@@UAEHM@Z 10017060 f   death.obj
 0001:00016310       ?MsgFunc_DeathMsg@CHudDeathNotice@@QAEHPBDHPAX@Z 10017310 f   death.obj
 0001:000167c0       ?Demo_WriteBuffer@@YAXHHPAE@Z 100177c0 f   demo.obj
 0001:00016820       _Demo_ReadBuffer           10017820 f   demo.obj
 0001:000168a0       _HUD_AddEntity             100178a0 f   entity.obj
 0001:00016920       _HUD_TxferLocalOverrides   10017920 f   entity.obj
 0001:000169b0       _HUD_ProcessPlayerState    100179b0 f   entity.obj
 0001:00016b80       _HUD_TxferPredictionData   10017b80 f   entity.obj
 0001:00016d70       _HUD_CreateEntities        10017d70 f   entity.obj
 0001:00016e60       ?DlightFlash@@YAXPAM@Z     10017e60 f   entity.obj
 0001:00016f20       _HUD_StudioEvent           10017f20 f   entity.obj
 0001:000172c0       _HUD_TempEntUpdate         100182c0 f   entity.obj
 0001:00017b40       _HUD_GetUserEntity         10018b40 f   entity.obj
 0001:00017b50       ?GetEntity@@YAPAUcl_entity_s@@H@Z 10018b50 f   ev_common.obj
 0001:00017b60       ?GetViewEntity@@YAPAUcl_entity_s@@XZ 10018b60 f   ev_common.obj
 0001:00017b70       ?EV_CreateTracer@@YAXPAM0@Z 10018b70 f   ev_common.obj
 0001:00017b90       ?EV_IsPlayer@@YAHH@Z       10018b90 f   ev_common.obj
 0001:00017bb0       ?EV_IsLocal@@YAHH@Z        10018bb0 f   ev_common.obj
 0001:00017c00       ?EV_GetGunPosition@@YAXPAUevent_args_s@@PAM1@Z 10018c00 f   ev_common.obj
 0001:00017cb0       ?EV_EjectBrass@@YAXPAM0MHH@Z 10018cb0 f   ev_common.obj
 0001:00017d00       ?EV_GetDefaultShellInfo@@YAXPAUevent_args_s@@PAM111111MMM@Z 10018d00 f   ev_common.obj
 0001:00017e30       ?EV_MuzzleFlash@@YAXXZ     10018e30 f   ev_common.obj
 0001:00017e50       ?EV_HookEvents@@YAXXZ      10018e50 f   events.obj
 0001:00017e60       ?LoadCrashRpt@@YAXXZ       10018e60 f   exception.obj
 0001:00017fe0       ?UnloadCrashRpt@@YAXXZ     10018fe0 f   exception.obj
 0001:00018010       ?GetExceptionStrings@@YAXKPAPBD0@Z 10019010 f   exception.obj
 0001:00018060       ?InstallExceptionHandler@@YAXXZ 10019060 f   exception.obj
 0001:000182d0       ?UnInstallExceptionHandler@@YAXXZ 100192d0 f   exception.obj
 0001:00018300       ?__MsgFunc_FlashBat@@YAHPBDHPAX@Z 10019300 f   flashlight.obj
 0001:00018320       ?__MsgFunc_Flashlight@@YAHPBDHPAX@Z 10019320 f   flashlight.obj
 0001:00018340       ?Init@CHudFlashlight@@UAEHXZ 10019340 f   flashlight.obj
 0001:00018390       ?Reset@CHudFlashlight@@UAEXXZ 10019390 f   flashlight.obj
 0001:000183a0       ?VidInit@CHudFlashlight@@UAEHXZ 100193a0 f   flashlight.obj
 0001:00018460       ?MsgFunc_FlashBat@CHudFlashlight@@QAEHPBDHPAX@Z 10019460 f   flashlight.obj
 0001:000184a0       ?MsgFunc_Flashlight@CHudFlashlight@@QAEHPBDHPAX@Z 100194a0 f   flashlight.obj
 0001:000184e0       ?Draw@CHudFlashlight@@UAEHM@Z 100194e0 f   flashlight.obj
 0001:00018530       ??1CGameStudioModelRenderer@@UAE@XZ 10019530 f i GameStudioModelRenderer.obj
 0001:00018540       ??0CGameStudioModelRenderer@@QAE@XZ 10019540 f   GameStudioModelRenderer.obj
 0001:00018560       ??_GCGameStudioModelRenderer@@UAEPAXI@Z 10019560 f i GameStudioModelRenderer.obj
 0001:00018560       ??_ECGameStudioModelRenderer@@UAEPAXI@Z 10019560 f i GameStudioModelRenderer.obj
 0001:00018580       ?R_StudioDrawPlayer@@YAHHPAUentity_state_s@@@Z 10019580 f   GameStudioModelRenderer.obj
 0001:000185a0       ?R_StudioDrawModel@@YAHH@Z 100195a0 f   GameStudioModelRenderer.obj
 0001:000185d0       ?R_StudioInit@@YAXXZ       100195d0 f   GameStudioModelRenderer.obj
 0001:000185e0       _HUD_GetStudioModelInterface 100195e0 f   GameStudioModelRenderer.obj
 0001:00018620       ?ExtDrawShield@@YAXXZ      10019620 f   GameStudioModelRenderer.obj
 0001:00018630       ?DrawCustomEntModel@@YAXPAUcl_entity_s@@HH@Z 10019630 f   GameStudioModelRenderer.obj
 0001:00018650       ?__MsgFunc_Geiger@@YAHPBDHPAX@Z 10019650 f   geiger.obj
 0001:00018670       ?Init@CHudGeiger@@UAEHXZ   10019670 f   geiger.obj
 0001:000186c0       ?VidInit@CHudGeiger@@UAEHXZ 100196c0 f   geiger.obj
 0001:000186d0       ?MsgFunc_Geiger@CHudGeiger@@QAEHPBDHPAX@Z 100196d0 f   geiger.obj
 0001:00018710       ?Draw@CHudGeiger@@UAEHM@Z  10019710 f   geiger.obj
 0001:000188d0       ?DrawVectorDir@@YAXABVVector@@0MMMMM@Z 100198d0 f   gl_debug.obj
 0001:00018940       ?RecursiveDrawTextureVecs@@YAHPAUmnode_s@@ABVVector@@1@Z 10019940 f   gl_debug.obj
 0001:00018e10       ?DrawTextureVecs@@YAXXZ    10019e10 f   gl_debug.obj
 0001:00018f00       ?WriteTGA_24@@YAHPAUcolor24@@GGPBD@Z 10019f00 f   gl_debug.obj
 0001:00018ff0       ?DumpTextures@@YAXXZ       10019ff0 f   gl_debug.obj
 0001:00019150       ?TextureId@@YAHPBD@Z       1001a150 f   gl_debug.obj
 0001:000191e0       ?DumpLeafInfo@@YAXXZ       1001a1e0 f   gl_debug.obj
 0001:000193b0       ?DumpLevel@@YAXXZ          1001a3b0 f   gl_debug.obj
 0001:00019650       ?PrintOtherDebugInfo@@YAXXZ 1001a650 f   gl_debug.obj
 0001:000197d0       ??0DecalGroup@@QAE@PBDHPAVDecalGroupEntry@@@Z 1001a7d0 f   gl_decals.obj
 0001:00019840       ??1DecalGroup@@QAE@XZ      1001a840 f   gl_decals.obj
 0001:00019870       ?GetEntry@DecalGroup@@QAEPAVDecalGroupEntry@@H@Z 1001a870 f   gl_decals.obj
 0001:00019880       ?GetRandomDecal@DecalGroup@@QAEPBVDecalGroupEntry@@XZ 1001a880 f   gl_decals.obj
 0001:000198b0       ?FindGroup@@YAPAVDecalGroup@@PBD@Z 1001a8b0 f   gl_decals.obj
 0001:00019970       ?FindIntersectionPoint@@YAXABVVector@@000AAV1@@Z 1001a970 f   gl_decals.obj
 0001:00019a30       ?ClipPolygonByPlane@@YAHPBVVector@@HV1@1PAV1@@Z 1001aa30 f   gl_decals.obj
 0001:00019ce0       ?GetUpRight@@YAXVVector@@AAV1@1@Z 1001ace0 f   gl_decals.obj
 0001:00019de0       ?LoadDecalTexture@@YAHPBD@Z 1001ade0 f   gl_decals.obj
 0001:00019f20       ?LoadDecals@@YAXXZ         1001af20 f   gl_decals.obj
 0001:0001a1f0       ?AllocDecal@@YAPAUcustomdecal_s@@XZ 1001b1f0 f   gl_decals.obj
 0001:0001a230       ?AllocStaticDecal@@YAPAUcustomdecal_s@@XZ 1001b230 f   gl_decals.obj
 0001:0001a260       ?CreateDecal@@YAXVVector@@0PBDH@Z 1001b260 f   gl_decals.obj
 0001:0001a8a0       ??DVector@@QBE?AV0@M@Z     1001b8a0 f i gl_decals.obj
 0001:0001a8d0       ?CreateDecal@@YAXAAUpmtrace_s@@PBDH@Z 1001b8d0 f   gl_decals.obj
 0001:0001a930       ?CreateDecalTrace@@YAXVVector@@0PBDH@Z 1001b930 f   gl_decals.obj
 0001:0001a980       ?CreateCachedDecals@@YAXXZ 1001b980 f   gl_decals.obj
 0001:0001a9f0       ?PasteViewDecal@@YAXXZ     1001b9f0 f   gl_decals.obj
 0001:0001aa80       ??HVector@@QBE?AV0@ABV0@@Z 1001ba80 f i gl_decals.obj
 0001:0001aab0       ?DrawSingleDecal@@YAHPAUcustomdecal_s@@@Z 1001bab0 f   gl_decals.obj
 0001:0001adb0       ?DrawDecals@@YAXXZ         1001bdb0 f   gl_decals.obj
 0001:0001aec0       ?MsgCustomDecal@@YAHPBDHPAX@Z 1001bec0 f   gl_decals.obj
 0001:0001af50       ?DeleteDecals@@YAXXZ       1001bf50 f   gl_decals.obj
 0001:0001af70       ?InitDecals@@YAXXZ         1001bf70 f   gl_decals.obj
 0001:0001afe0       ?DecalsShutdown@@YAXXZ     1001bfe0 f   gl_decals.obj
 0001:0001b000       ?DecalsPrintDebugInfo@@YAXXZ 1001c000 f   gl_decals.obj
 0001:0001b1a0       ?SetPointlightBBox@@YAXXZ  1001c1a0 f   gl_light_dynamic.obj
 0001:0001b1f0       ?CullPointlightBBox@@YAHVVector@@0@Z 1001c1f0 f   gl_light_dynamic.obj
 0001:0001b280       ?IsPitchReversed@@YAHM@Z   1001c280 f   gl_light_dynamic.obj
 0001:0001b2b0       ?SetProjectionTexCoords@@YAXMMMM@Z 1001c2b0 f   gl_light_dynamic.obj
 0001:0001b320       ?SetupProjection@@YAXXZ    1001c320 f   gl_light_dynamic.obj
 0001:0001b5f0       ?DisableProjection@@YAXXZ  1001c5f0 f   gl_light_dynamic.obj
 0001:0001b640       ?SetupAttenuationSpotlight@@YAXXZ 1001c640 f   gl_light_dynamic.obj
 0001:0001b6e0       ?DisableAttenuationSpotlight@@YAXXZ 1001c6e0 f   gl_light_dynamic.obj
 0001:0001b6f0       ?SetupAttenuation3D@@YAXXZ 1001c6f0 f   gl_light_dynamic.obj
 0001:0001b820       ?DisableAttenuation3D@@YAXXZ 1001c820 f   gl_light_dynamic.obj
 0001:0001b850       ?SetupAttenuation2D@@YAXXZ 1001c850 f   gl_light_dynamic.obj
 0001:0001b920       ?SetupAttenuation1D@@YAXXZ 1001c920 f   gl_light_dynamic.obj
 0001:0001b9a0       ?DisableAttenuation2D@@YAXXZ 1001c9a0 f   gl_light_dynamic.obj
 0001:0001b9c0       ?DisableAttenuation1D@@YAXXZ 1001c9c0 f   gl_light_dynamic.obj
 0001:0001b9d0       ?SetupSpotLight@@YAHXZ     1001c9d0 f   gl_light_dynamic.obj
 0001:0001bbc0       ?SetupPointLight@@YAHXZ    1001cbc0 f   gl_light_dynamic.obj
 0001:0001bde0       ?FinishSpotLight@@YAXXZ    1001cde0 f   gl_light_dynamic.obj
 0001:0001bf50       ?FinishPointLight@@YAXXZ   1001cf50 f   gl_light_dynamic.obj
 0001:0001c4a0       ?LightDrawPoly@@YAXPAUmsurface_s@@@Z 1001d4a0 f   gl_light_dynamic.obj
 0001:0001c510       ?DrawEntityFacesForLight@@YAXPAUcl_entity_s@@@Z 1001d510 f   gl_light_dynamic.obj
 0001:0001c5c0       ?DrawDynamicLightForEntity@@YAXPAUcl_entity_s@@@Z 1001d5c0 f   gl_light_dynamic.obj
 0001:0001c960       ?RecursiveDrawWorldLight@@YAXPAUmnode_s@@@Z 1001d960 f   gl_light_dynamic.obj
 0001:0001cb60       ?DrawDynamicLights@@YAXXZ  1001db60 f   gl_light_dynamic.obj
 0001:0001ce60       ?MY_AllocDlight@@YAPAUDynamicLight@@H@Z 1001de60 f   gl_light_dynamic.obj
 0001:0001cee0       ?MY_DecayLights@@YAXXZ     1001dee0 f   gl_light_dynamic.obj
 0001:0001cf70       ?ResetDynamicLights@@YAXXZ 1001df70 f   gl_light_dynamic.obj
 0001:0001cf90       ?HasDynamicLights@@YAHXZ   1001df90 f   gl_light_dynamic.obj
 0001:0001cfe0       ?CreateSpotlightAttenuationTexture@@YAHXZ 1001dfe0 f   gl_light_dynamic.obj
 0001:0001d110       ?Create3DAttenuationTexture@@YAHXZ 1001e110 f   gl_light_dynamic.obj
 0001:0001d320       ?Create2DAttenuationForOldCards@@YAHXZ 1001e320 f   gl_light_dynamic.obj
 0001:0001d480       ?Create1DAttenuationForOldCards@@YAHXZ 1001e480 f   gl_light_dynamic.obj
 0001:0001d580       ?CreateAttenuationTextures@@YAXXZ 1001e580 f   gl_light_dynamic.obj
 0001:0001d5d0       ?GetDlightsForPoint@@YAHVVector@@00PAPAUDynamicLight@@H@Z 1001e5d0 f   gl_light_dynamic.obj
 0001:0001d800       ?StyleIndex@@YAHPAUmsurface_s@@H@Z 1001e800 f   gl_lightmap.obj
 0001:0001d830       ?ApplyGamma@@YAMM@Z        1001e830 f   gl_lightmap.obj
 0001:0001d870       ?Clamp@@YAXVVector@@PAUcolor24@@@Z 1001e870 f   gl_lightmap.obj
 0001:0001d980       ?LightmapSize@@YAHPAUmsurface_s@@@Z 1001e980 f   gl_lightmap.obj
 0001:0001d9a0       ?UploadBlocklights@@YAXPAUmsurface_s@@@Z 1001e9a0 f   gl_lightmap.obj
 0001:0001da10       ?BuildLightMap_FromOriginal@@YAXPAUmsurface_s@@@Z 1001ea10 f   gl_lightmap.obj
 0001:0001db10       ?BuildLightMap_FromBaselight@@YAXPAUmsurface_s@@@Z 1001eb10 f   gl_lightmap.obj
 0001:0001dc10       ?BuildLightMap_Combine@@YAXPAUmsurface_s@@@Z 1001ec10 f   gl_lightmap.obj
 0001:0001de20       ?BuildLightMap_FromBumpStyle@@YAXPAUmsurface_s@@HH@Z 1001ee20 f   gl_lightmap.obj
 0001:0001e170       ?BumpMarkFaces@@YAXXZ      1001f170 f   gl_lightmap.obj
 0001:0001e260       ?UploadLightmaps@@YAXH@Z   1001f260 f   gl_lightmap.obj
 0001:0001e2f0       ?LightmapsNeedsUpdate@@YAHXZ 1001f2f0 f   gl_lightmap.obj
 0001:0001e3b0       ?UpdateLightmaps@@YAXXZ    1001f3b0 f   gl_lightmap.obj
 0001:0001e720       ?SetLightmapBaseIndex@@YAXXZ 1001f720 f   gl_lightmap.obj
 0001:0001e750       ?GL_SetSpriteRenderMode@@YAXH@Z 1001f750 f   gl_model.obj
 0001:0001e7e0       ?R_GetSpriteFrame@@YAPAUmspriteframe_s@@PAUmodel_s@@H@Z 1001f7e0 f   gl_model.obj
 0001:0001e870       ?R_DrawSprite@@YAXPAUcl_entity_s@@@Z 1001f870 f   gl_model.obj
 0001:0001f020       ??0Vector@@QAE@MMM@Z       10020020 f i gl_model.obj
 0001:0001f040       ?GetGrayscaleFactor@@YAMXZ 10020040 f   gl_postprocess.obj
 0001:0001f0a0       ?UseRectangleTextures@@YAHXZ 100200a0 f   gl_postprocess.obj
 0001:0001f0d0       ?InitScreenTexture@@YAXXZ  100200d0 f   gl_postprocess.obj
 0001:0001f2a0       ?MakeWeightsTexture@@YAXXZ 100202a0 f   gl_postprocess.obj
 0001:0001f380       ?DrawQuad@@YAXHHHH@Z       10020380 f   gl_postprocess.obj
 0001:0001f450       ?ApplyPostEffects@@YAXXZ   10020450 f   gl_postprocess.obj
 0001:0001fb90       ?InitPostEffects@@YAXXZ    10020b90 f   gl_postprocess.obj
 0001:0001fc10       ?DisableWorldDrawing@@YAXPAUref_params_s@@@Z 10020c10 f   gl_renderer.obj
 0001:0001fcc0       ?RestoreWorldDrawing@@YAXXZ 10020cc0 f   gl_renderer.obj
 0001:0001fcf0       ?getCubeVector@@YAXHHHAAVVector@@@Z 10020cf0 f   gl_renderer.obj
 0001:0001fe10       ?CreateNormalizationCubemap@@YAHXZ 10020e10 f   gl_renderer.obj
 0001:0001ff80       ?CreateDefaultNormalMap@@YAHXZ 10020f80 f   gl_renderer.obj
 0001:00020020       ?ResetRenderState@@YAXXZ   10021020 f   gl_renderer.obj
 0001:000200b0       ?R_RotateForEntity@@YAXPAUcl_entity_s@@@Z 100210b0 f   gl_renderer.obj
 0001:00020120       ?IsEntityMoved@@YAHPAUcl_entity_s@@@Z 10021120 f   gl_renderer.obj
 0001:000201b0       ?IsEntityTransparent@@YAHPAUcl_entity_s@@@Z 100211b0 f   gl_renderer.obj
 0001:000201d0       ?R_DrawBrushModel@@YAXPAUcl_entity_s@@H@Z 100211d0 f   gl_renderer.obj
 0001:00020840       ?RecursiveDrawWorld@@YAXPAUmnode_s@@@Z 10021840 f   gl_renderer.obj
 0001:00020a20       ?PrepareRenderer@@YAXPAUref_params_s@@@Z 10021a20 f   gl_renderer.obj
 0001:00020bd0       ?DrawBump@@YAXXZ           10021bd0 f   gl_renderer.obj
 0001:00020d60       ?MsgCustomDlight@@YAHPBDHPAX@Z 10021d60 f   gl_renderer.obj
 0001:00020e50       ?KillSky@@YAXXZ            10021e50 f   gl_renderer.obj
 0001:00020eb0       ?MakeLight@@YAXXZ          10021eb0 f   gl_renderer.obj
 0001:00020fc0       ?RendererCreateEntities@@YAXXZ 10021fc0 f   gl_renderer.obj
 0001:00021010       ?RendererTentsUpdate@@YAXXZ 10022010 f   gl_renderer.obj
 0001:00021020       ?RendererUpdateEntityList@@YAXXZ 10022020 f   gl_renderer.obj
 0001:00021110       ?RendererFilterEntities@@YAHHPAUcl_entity_s@@PBD@Z 10022110 f   gl_renderer.obj
 0001:00021290       ?RendererCalcRefDef@@YAXPAUref_params_s@@@Z 10022290 f   gl_renderer.obj
 0001:000212c0       ?RendererDrawNormal@@YAXXZ 100222c0 f   gl_renderer.obj
 0001:00021520       ??1GL_MtexStateSaver@@QAE@XZ 10022520 f i gl_renderer.obj
 0001:00021720       ?RendererDrawTransparent@@YAXXZ 10022720 f   gl_renderer.obj
 0001:00021730       ?RendererVidInit@@YAXXZ    10022730 f   gl_renderer.obj
 0001:00021780       ?RendererInit@@YAXXZ       10022780 f   gl_renderer.obj
 0001:000219f0       ?RendererCleanup@@YAXXZ    100229f0 f   gl_renderer.obj
 0001:00021a00       ?RendererDrawHud@@YAXXZ    10022a00 f   gl_renderer.obj
 0001:00021a10       ?FreeBuffer@@YAXXZ         10022a10 f   gl_rsurf.obj
 0001:00021ab0       ?GenerateVertexArray@@YAXXZ 10022ab0 f   gl_rsurf.obj
 0001:00021df0       ?EnableVertexArray@@YAXXZ  10022df0 f   gl_rsurf.obj
 0001:00021e60       ?DisableVertexArray@@YAXXZ 10022e60 f   gl_rsurf.obj
 0001:00021ec0       ?R_TextureAnimation@@YAPAUtexture_s@@PAU1@@Z 10022ec0 f   gl_rsurf.obj
 0001:00021f50       ?Bind2DTexture@@YAXII@Z    10022f50 f   gl_rsurf.obj
 0001:00021f80       ?SetTexEnv_Internal@@YAXH@Z 10022f80 f   gl_rsurf.obj
 0001:00022280       ?SetTexEnvs@@YAXHHHH@Z     10023280 f   gl_rsurf.obj
 0001:00022340       ?SetTexPointer@@YAXHH@Z    10023340 f   gl_rsurf.obj
 0001:00022440       ?ResetCache@@YAXXZ         10023440 f   gl_rsurf.obj
 0001:00022490       ?SetTextureMatrix@@YAXHHH@Z 10023490 f   gl_rsurf.obj
 0001:000224f0       ?GetExtTexData@@YAPAVExtTextureData@@PAUtexture_s@@@Z 100234f0 f   gl_rsurf.obj
 0001:00022510       ?AddPolyToSpecularChain@@YAXPAUmsurface_s@@@Z 10023510 f   gl_rsurf.obj
 0001:00022570       ?AddPolyToTextureChain@@YAXPAUmsurface_s@@@Z 10023570 f   gl_rsurf.obj
 0001:00022590       ?AddPolyToSkyChain@@YAXPAUmsurface_s@@@Z 10023590 f   gl_rsurf.obj
 0001:000225b0       ?AddPolyToLightmapChain@@YAXPAUmsurface_s@@@Z 100235b0 f   gl_rsurf.obj
 0001:000225e0       ?PrepareFirstPass@@YAXXZ   100235e0 f   gl_rsurf.obj
 0001:000226a0       ?DrawPolyFromArray@@YAXPAUglpoly_s@@@Z 100236a0 f   gl_rsurf.obj
 0001:000226d0       ?DrawPolyFromArray@@YAXPAUmsurface_s@@@Z 100236d0 f   gl_rsurf.obj
 0001:000226e0       ?DrawPolyFirstPass@@YAXPAUmsurface_s@@@Z 100236e0 f   gl_rsurf.obj
 0001:00022740       ?DrawNormalPoly@@YAXPAUmsurface_s@@@Z 10023740 f   gl_rsurf.obj
 0001:00022900       ?DrawBumpedPoly@@YAXPAUmsurface_s@@@Z 10023900 f   gl_rsurf.obj
 0001:00022a30       ?RenderAdditionalBumpPass@@YAXXZ 10023a30 f   gl_rsurf.obj
 0001:00022b40       ?RenderSecondPass@@YAXXZ   10023b40 f   gl_rsurf.obj
 0001:00022cb0       ?LoadProgramNative@@YAEIIHPBD@Z 10023cb0 f   gl_rsurf.obj
 0001:00022d50       ?SetupTexMatrix_Reflected@@YAXPAUmsurface_s@@ABVVector@@@Z 10023d50 f   gl_rsurf.obj
 0001:00022e50       ?SetupTexMatrix@@YAXPAUmsurface_s@@ABVVector@@@Z 10023e50 f   gl_rsurf.obj
 0001:00022f60       ?MergeChains@@YAXAAPAUmsurface_s@@PAU1@@Z 10023f60 f   gl_rsurf.obj
 0001:00022f90       ?PrintSpecularSwitchedMsg@@YAXH@Z 10023f90 f   gl_rsurf.obj
 0001:00022fc0       ?ChooseSpecularMode@@YAHXZ 10023fc0 f   gl_rsurf.obj
 0001:00023190       ?RenderSpecular@@YAXXZ     10024190 f   gl_rsurf.obj
 0001:000233b0       ?DrawLowQualitySpecularChain@@YAXH@Z 100243b0 f   gl_rsurf.obj
 0001:00023c80       ?DrawHighQualitySpecularChain@@YAXXZ 10024c80 f   gl_rsurf.obj
 0001:00023d80       ?ResetCounters@@YAXXZ      10024d80 f   gl_rsurf.obj
 0001:00023da0       ?PrintBumpDebugInfo@@YAXXZ 10024da0 f   gl_rsurf.obj
 0001:00024020       ?StoreSkyboxEntity@@YAXPAUcl_entity_s@@@Z 10025020 f   gl_sky.obj
 0001:00024070       ?SetSkyAngles@@YAXXZ       10025070 f   gl_sky.obj
 0001:000240e0       ?MsgSkyMarker_Sky@@YAHPBDHPAX@Z 100250e0 f   gl_sky.obj
 0001:00024170       ?MsgSkyMarker_World@@YAHPBDHPAX@Z 10025170 f   gl_sky.obj
 0001:000241d0       ?ResetSky@@YAXXZ           100251d0 f   gl_sky.obj
 0001:00024230       ?InitSky@@YAXXZ            10025230 f   gl_sky.obj
 0001:00024290       ?CheckSky@@YAXXZ           10025290 f   gl_sky.obj
 0001:00024420       ?DrawSky@@YAXXZ            10025420 f   gl_sky.obj
 0001:00024e10       ??GVector@@QBE?AV0@ABV0@@Z 10025e10 f i gl_sky.obj
 0001:00024f40       ?GL_SetupTextureHeader@CStudioModelRenderer@@QAEXXZ 10025f40 f   gl_studiomodel.obj
 0001:00025040       ?GL_SetupRenderer@CStudioModelRenderer@@QAEXH@Z 10026040 f   gl_studiomodel.obj
 0001:00025360       ?GL_RestoreRenderer@CStudioModelRenderer@@QAEXXZ 10026360 f   gl_studiomodel.obj
 0001:000253d0       ?VectorRotate@@YAXABVVector@@QAY03$$CBMAAV1@@Z 100263d0 f   gl_studiomodel.obj
 0001:00025430       ?VectorIRotate@@YAXABVVector@@QAY03$$CBMAAV1@@Z 10026430 f   gl_studiomodel.obj
 0001:00025490       ?Lighting@CStudioModelRenderer@@QAEXAAVVector@@HHV2@@Z 10026490 f   gl_studiomodel.obj
 0001:00025700       ?Chrome@CStudioModelRenderer@@QAEXPAHHVVector@@@Z 10026700 f   gl_studiomodel.obj
 0001:00025890       ?GL_SetupLighting@CStudioModelRenderer@@QAEXXZ 10026890 f   gl_studiomodel.obj
 0001:00025ea0       ?GL_SetupModel@CStudioModelRenderer@@QAEXH@Z 10026ea0 f   gl_studiomodel.obj
 0001:00025f10       ?GL_DrawPoints@CStudioModelRenderer@@QAEXXZ 10026f10 f   gl_studiomodel.obj
 0001:000263f0       ?EXT_LightPoint@@YAXVVector@@PAUlighting_ext@@H@Z 100273f0 f   gl_studiomodel.obj
 0001:00026540       ?PARSE_COLOR@@YAXAAVVector@@PAUcolor24@@@Z 10027540 f   gl_studiomodel.obj
 0001:00026590       ?EXT_RecursiveLightPoint@@YAHPAUmnode_s@@ABVVector@@1PAUlighting_ext@@@Z 10027590 f   gl_studiomodel.obj
 0001:00026ba0       ??0DetailTexture@@QAE@PADH@Z 10027ba0 f   gl_texloader.obj
 0001:00026bf0       ??1DetailTexture@@QAE@XZ   10027bf0 f   gl_texloader.obj
 0001:00026c10       ??0ExtTextureData@@QAE@PAD@Z 10027c10 f   gl_texloader.obj
 0001:00026c50       ??1ExtTextureData@@QAE@XZ  10027c50 f   gl_texloader.obj
 0001:00026c70       ?GenerateMipMap@@YAXPAUcolor24@@HH@Z 10027c70 f   gl_texloader.obj
 0001:00026d50       ?NormalizeMipMap@@YAXPAUcolor24@@HH@Z 10027d50 f   gl_texloader.obj
 0001:00026e30       ?CreateTexture@@YAHPBDHH@Z 10027e30 f   gl_texloader.obj
 0001:000272a0       ?Create_DSDT_Texture@@YAHPBD@Z 100282a0 f   gl_texloader.obj
 0001:00027610       ?ParseDetailTextureDataFile@@YAHXZ 10028610 f   gl_texloader.obj
 0001:000278e0       ?GetDetailTextureData@@YAHPADAAH11@Z 100288e0 f   gl_texloader.obj
 0001:00027a80       ?FindTextureExtraData@@YAPAVExtTextureData@@PAD@Z 10028a80 f   gl_texloader.obj
 0001:00027ae0       ?CreateExtDataForTextures@@YAXXZ 10028ae0 f   gl_texloader.obj
 0001:00027c90       ?CompareDetailIDs@@YAHPAUtexture_s@@0@Z 10028c90 f   gl_texloader.obj
 0001:00027cd0       ?SortTexturesByDetailTexID@@YAXXZ 10028cd0 f   gl_texloader.obj
 0001:00027d90       ?DeleteExtTextures@@YAXXZ  10028d90 f   gl_texloader.obj
 0001:00027dd0       ?LoadCacheTexture@@YAHPBDHH@Z 10028dd0 f   gl_texloader.obj
 0001:00027f50       ?IsExtensionSupported@GLManager@@QAE_NPBD@Z 10028f50 f   glmanager.obj
 0001:00027fc0       ?IsGLAllowed@GLManager@@QAEHXZ 10028fc0 f   glmanager.obj
 0001:00027fd0       ??0GLManager@@QAE@XZ       10028fd0 f   glmanager.obj
 0001:00027ff0       ?Init@GLManager@@QAEXXZ    10028ff0 f   glmanager.obj
 0001:00028000       ?VidInit@GLManager@@QAEXXZ 10029000 f   glmanager.obj
 0001:00028370       ??1GLManager@@QAE@XZ       10029370 f   glmanager.obj
 0001:000283a0       ?LogDebugInfo@GLManager@@AAEXXZ 100293a0 f   glmanager.obj
 0001:000284e0       ?LoadFunctions@GLManager@@AAEHXZ 100294e0 f   glmanager.obj
 0001:000296b0       ?Load_ARB_multitexture@GLManager@@AAEHXZ 1002a6b0 f   glmanager.obj
 0001:00029840       ?Load_NV_register_combiners@GLManager@@AAEHXZ 1002a840 f   glmanager.obj
 0001:000299d0       ?Load_ARB_dot3@GLManager@@AAEHXZ 1002a9d0 f   glmanager.obj
 0001:00029a20       ?Load_ARB_fragment_program@GLManager@@AAEHXZ 1002aa20 f   glmanager.obj
 0001:00029b90       ?Load_NV_fragment_program@GLManager@@AAEHXZ 1002ab90 f   glmanager.obj
 0001:00029cc0       ?Load_ARB_texture_cube_map@GLManager@@AAEHXZ 1002acc0 f   glmanager.obj
 0001:00029cf0       ?Load_EXT_texture_3D@GLManager@@AAEHXZ 1002acf0 f   glmanager.obj
 0001:00029d70       ?Load_ARB_VBO@GLManager@@AAEHXZ 1002ad70 f   glmanager.obj
 0001:00029ee0       ?Load_Rectangle_Textures@GLManager@@AAEHXZ 1002aee0 f   glmanager.obj
 0001:00029f50       ?gluLookAt@GLManager@@QAEXNNNNNNNNN@Z 1002af50 f   glmanager.obj
 0001:0002a200       ?DrawVector@@YAXABVVector@@0MMMM@Z 1002b200 f   glows.obj
 0001:0002a2a0       ?GlowFilterEntities@@YAHHPAUcl_entity_s@@PBD@Z 1002b2a0 f   glows.obj
 0001:0002a3a0       ?DrawGlows@@YAXXZ          1002b3a0 f   glows.obj
 0001:0002a960       ?InitGlows@@YAXXZ          1002b960 f   glows.obj
 0001:0002a9b0       ?ResetGlows@@YAXXZ         1002b9b0 f   glows.obj
 0001:0002aa30       ?MsgGrassInfo@@YAHPBDHPAX@Z 1002ba30 f   grass.obj
 0001:0002ac90       ?GrassInit@@YAXXZ          1002bc90 f   grass.obj
 0001:0002acb0       ?GrassVidInit@@YAXXZ       1002bcb0 f   grass.obj
 0001:0002acd0       ?AlphaDist@@YAMABVVector@@0M@Z 1002bcd0 f   grass.obj
 0001:0002ad70       ?GetSpriteRandomVec@@YAXAAVVector@@@Z 1002bd70 f   grass.obj
 0001:0002ada0       ?PlaceGrassSprite@@YAXPAUgrass_type_s@@PAUgrass_sprite_s@@@Z 1002bda0 f   grass.obj
 0001:0002af20       ?UpdateGrassSpritePosition@@YAXPAUgrass_type_s@@PAUgrass_sprite_s@@ABVVector@@2@Z 1002bf20 f   grass.obj
 0001:0002b020       ?DrawSpriteFacingPlayer@@YAXPAUgrass_sprite_s@@PAUgrass_type_s@@ABVVector@@M@Z 1002c020 f   grass.obj
 0001:0002b190       ?DrawSpriteParallel@@YAXPAUgrass_sprite_s@@PAUgrass_type_s@@ABVVector@@M@Z 1002c190 f   grass.obj
 0001:0002b2f0       ?GrassDraw@@YAXXZ          1002c2f0 f   grass.obj
 0001:0002b5b0       ?PlaceGrassModel@@YAXPAUgrass_type_s@@PAUcl_entity_s@@@Z 1002c5b0 f   grass.obj
 0001:0002b720       ?UpdateGrassModelPosition@@YAXPAUgrass_type_s@@PAUcl_entity_s@@ABVVector@@2@Z 1002c720 f   grass.obj
 0001:0002b850       ?GrassCreateEntities@@YAXXZ 1002c850 f   grass.obj
 0001:0002ba50       ?__MsgFunc_Health@@YAHPBDHPAX@Z 1002ca50 f   health.obj
 0001:0002ba70       ?__MsgFunc_Damage@@YAHPBDHPAX@Z 1002ca70 f   health.obj
 0001:0002ba90       ?Init@CHudHealth@@UAEHXZ   1002ca90 f   health.obj
 0001:0002bb00       ?Reset@CHudHealth@@UAEXXZ  1002cb00 f   health.obj
 0001:0002bb30       ?VidInit@CHudHealth@@UAEHXZ 1002cb30 f   health.obj
 0001:0002bba0       ?MsgFunc_Health@CHudHealth@@QAEHPBDHPAX@Z 1002cba0 f   health.obj
 0001:0002bbf0       ?MsgFunc_Damage@CHudHealth@@QAEHPBDHPAX@Z 1002cbf0 f   health.obj
 0001:0002bc90       ?GetPainColor@CHudHealth@@QAEXAAH00@Z 1002cc90 f   health.obj
 0001:0002bcf0       ?Draw@CHudHealth@@UAEHM@Z  1002ccf0 f   health.obj
 0001:0002bd40       ?CalcDamageDirection@CHudHealth@@AAEXVVector@@@Z 1002cd40 f   health.obj
 0001:0002bfd0       ?DrawPain@CHudHealth@@AAEHM@Z 1002cfd0 f   health.obj
 0001:0002c420       ??0Vector@@QAE@HHH@Z       1002d420 f i health.obj
 0001:0002c440       ?DrawDamage@CHudHealth@@AAEHM@Z 1002d440 f   health.obj
 0001:0002c5e0       ?UpdateTiles@CHudHealth@@AAEXMJ@Z 1002d5e0 f   health.obj
 0001:0002c700       ??1CHLVoiceStatusHelper@@UAE@XZ 1002d700 f i hud.obj
 0001:0002c710       ??0CHLVoiceStatusHelper@@QAE@XZ 1002d710 f i hud.obj
 0001:0002c720       ?GetPlayerTextColor@CHLVoiceStatusHelper@@UAEXHQAH@Z 1002d720 f i hud.obj
 0001:0002c780       ?UpdateCursorState@CHLVoiceStatusHelper@@UAEXXZ 1002d780 f i hud.obj
 0001:0002c790       ?GetAckIconHeight@CHLVoiceStatusHelper@@UAEHXZ 1002d790 f i hud.obj
 0001:0002c7b0       ?CanShowSpeakerLabels@CHLVoiceStatusHelper@@UAE_NXZ 1002d7b0 f i hud.obj
 0001:0002c7e0       ??_GCHLVoiceStatusHelper@@UAEPAXI@Z 1002d7e0 f i hud.obj
 0001:0002c7e0       ??_ECHLVoiceStatusHelper@@UAEPAXI@Z 1002d7e0 f i hud.obj
 0001:0002c800       ?__MsgFunc_Logo@@YAHPBDHPAX@Z 1002d800 f   hud.obj
 0001:0002c820       ?__MsgFunc_HUDColor@@YAHPBDHPAX@Z 1002d820 f   hud.obj
 0001:0002c840       ?__MsgFunc_SetFog@@YAHPBDHPAX@Z 1002d840 f   hud.obj
 0001:0002c870       ?__MsgFunc_KeyedDLight@@YAHPBDHPAX@Z 1002d870 f   hud.obj
 0001:0002c8a0       ?__MsgFunc_AddShine@@YAHPBDHPAX@Z 1002d8a0 f   hud.obj
 0001:0002c8d0       ?__MsgFunc_SetSky@@YAHPBDHPAX@Z 1002d8d0 f   hud.obj
 0001:0002c900       ?__MsgFunc_ResetHUD@@YAHPBDHPAX@Z 1002d900 f   hud.obj
 0001:0002c920       ?__MsgFunc_InitHUD@@YAHPBDHPAX@Z 1002d920 f   hud.obj
 0001:0002c950       ?__MsgFunc_ViewMode@@YAHPBDHPAX@Z 1002d950 f   hud.obj
 0001:0002c980       ?__MsgFunc_SetFOV@@YAHPBDHPAX@Z 1002d980 f   hud.obj
 0001:0002c9a0       ?__MsgFunc_Concuss@@YAHPBDHPAX@Z 1002d9a0 f   hud.obj
 0001:0002c9c0       ?__MsgFunc_GameMode@@YAHPBDHPAX@Z 1002d9c0 f   hud.obj
 0001:0002c9e0       ?__MsgFunc_GasMask@@YAHPBDHPAX@Z 1002d9e0 f   hud.obj
 0001:0002ca00       ?__MsgFunc_SpecTank@@YAHPBDHPAX@Z 1002da00 f   hud.obj
 0001:0002ca20       ?__CmdFunc_OpenCommandMenu@@YAXXZ 1002da20 f   hud.obj
 0001:0002ca40       ?__CmdFunc_InputPlayerSpecial@@YAXXZ 1002da40 f   hud.obj
 0001:0002ca50       ?__CmdFunc_CloseCommandMenu@@YAXXZ 1002da50 f   hud.obj
 0001:0002ca60       ?__CmdFunc_ForceCloseCommandMenu@@YAXXZ 1002da60 f   hud.obj
 0001:0002ca70       ?__CmdFunc_ToggleServerBrowser@@YAXXZ 1002da70 f   hud.obj
 0001:0002ca80       ?__MsgFunc_ValClass@@YAHPBDHPAX@Z 1002da80 f   hud.obj
 0001:0002cab0       ?__MsgFunc_TeamNames@@YAHPBDHPAX@Z 1002dab0 f   hud.obj
 0001:0002cae0       ?__MsgFunc_Feign@@YAHPBDHPAX@Z 1002dae0 f   hud.obj
 0001:0002cb10       ?__MsgFunc_Detpack@@YAHPBDHPAX@Z 1002db10 f   hud.obj
 0001:0002cb40       ?__MsgFunc_VGUIMenu@@YAHPBDHPAX@Z 1002db40 f   hud.obj
 0001:0002cb70       ?__MsgFunc_MOTD@@YAHPBDHPAX@Z 1002db70 f   hud.obj
 0001:0002cba0       ?__MsgFunc_BuildSt@@YAHPBDHPAX@Z 1002dba0 f   hud.obj
 0001:0002cbd0       ?__MsgFunc_RandomPC@@YAHPBDHPAX@Z 1002dbd0 f   hud.obj
 0001:0002cc00       ?__MsgFunc_ServerName@@YAHPBDHPAX@Z 1002dc00 f   hud.obj
 0001:0002cc30       ?__MsgFunc_ScoreInfo@@YAHPBDHPAX@Z 1002dc30 f   hud.obj
 0001:0002cc60       ?__MsgFunc_TeamScore@@YAHPBDHPAX@Z 1002dc60 f   hud.obj
 0001:0002cc90       ?__MsgFunc_TeamInfo@@YAHPBDHPAX@Z 1002dc90 f   hud.obj
 0001:0002ccc0       ?__MsgFunc_Spectator@@YAHPBDHPAX@Z 1002dcc0 f   hud.obj
 0001:0002ccf0       ?__MsgFunc_AllowSpec@@YAHPBDHPAX@Z 1002dcf0 f   hud.obj
 0001:0002cd20       ?__MsgFunc_PlayMP3@@YAHPBDHPAX@Z 1002dd20 f   hud.obj
 0001:0002cd40       ?__CmdFunc_StopMP3@@YAXXZ  1002dd40 f   hud.obj
 0001:0002cd50       ?__MsgFunc_TextWindow@@YAHPBDHPAX@Z 1002dd50 f   hud.obj
 0001:0002cd80       ?__MsgFunc_RainData@@YAHPBDHPAX@Z 1002dd80 f   hud.obj
 0001:0002cda0       ?Init@CHud@@QAEXXZ         1002dda0 f   hud.obj
 0001:0002d290       ??1CHud@@QAE@XZ            1002e290 f   hud.obj
 0001:0002d390       ?GetSpriteIndex@CHud@@QAEHPBD@Z 1002e390 f   hud.obj
 0001:0002d3e0       ?VidInit@CHud@@QAEXXZ      1002e3e0 f   hud.obj
 0001:0002d750       ?MsgFunc_Logo@CHud@@QAAHPBDHPAX@Z 1002e750 f   hud.obj
 0001:0002d780       ?MsgFunc_HUDColor@CHud@@QAAHPBDHPAX@Z 1002e780 f   hud.obj
 0001:0002d7b0       ?COM_FileBase@@YAXPBDPAD@Z 1002e7b0 f   hud.obj
 0001:0002d830       ?HUD_IsGame@@YAHPBD@Z      1002e830 f   hud.obj
 0001:0002d880       ?MsgFunc_SetFOV@CHud@@QAAHPBDHPAX@Z 1002e880 f   hud.obj
 0001:0002d8a0       ?AddHudElem@CHud@@QAEXPAVCHudBase@@@Z 1002e8a0 f   hud.obj
 0001:0002d8f0       ?GetSensitivity@CHud@@QAEMXZ 1002e8f0 f   hud.obj
 0001:0002d900       ??_EIVoiceStatusHelper@@UAEPAXI@Z 1002e900 f i hud.obj
 0001:0002d900       ??_GIVoiceStatusHelper@@UAEPAXI@Z 1002e900 f i hud.obj
 0001:0002d920       ??0TablePanel@vgui@@QAE@ABV01@@Z 1002e920 f i hud.obj
 0001:0002dbc0       ??4TablePanel@vgui@@QAEAAV01@ABV01@@Z 1002ebc0 f i hud.obj
 0001:0002dea0       ??0HeaderPanel@vgui@@QAE@ABV01@@Z 1002eea0 f i hud.obj
 0001:0002e0f0       ??4HeaderPanel@vgui@@QAEAAV01@ABV01@@Z 1002f0f0 f i hud.obj
 0001:0002e370       ??0TextGrid@vgui@@QAE@ABV01@@Z 1002f370 f i hud.obj
 0001:0002e5a0       ??4TextGrid@vgui@@QAEAAV01@ABV01@@Z 1002f5a0 f i hud.obj
 0001:0002e800       ?MsgFunc_ResetHUD@CHud@@QAAHPBDHPAX@Z 1002f800 f   hud_msg.obj
 0001:0002e850       ?MsgFunc_ViewMode@CHud@@QAAXPBDHPAX@Z 1002f850 f   hud_msg.obj
 0001:0002e860       ?MsgFunc_InitHUD@CHud@@QAAXPBDHPAX@Z 1002f860 f   hud_msg.obj
 0001:0002e8d0       ?MsgFunc_SetFog@CHud@@QAAXPBDHPAX@Z 1002f8d0 f   hud_msg.obj
 0001:0002e9a0       ?MsgFunc_KeyedDLight@CHud@@QAAXPBDHPAX@Z 1002f9a0 f   hud_msg.obj
 0001:0002ea30       ?MsgFunc_AddShine@CHud@@QAAXPBDHPAX@Z 1002fa30 f   hud_msg.obj
 0001:0002eb20       ?MsgFunc_SetSky@CHud@@QAAXPBDHPAX@Z 1002fb20 f   hud_msg.obj
 0001:0002eb70       ?MsgFunc_GameMode@CHud@@QAAHPBDHPAX@Z 1002fb70 f   hud_msg.obj
 0001:0002eba0       ?MsgFunc_Damage@CHud@@QAAHPBDHPAX@Z 1002fba0 f   hud_msg.obj
 0001:0002ebf0       ?MsgFunc_Concuss@CHud@@QAAHPBDHPAX@Z 1002fbf0 f   hud_msg.obj
 0001:0002ec50       ?MsgFunc_GasMask@CHud@@QAAHPBDHPAX@Z 1002fc50 f   hud_msg.obj
 0001:0002ec80       ?MsgFunc_SpecTank@CHud@@QAAHPBDHPAX@Z 1002fc80 f   hud_msg.obj
 0001:0002ed40       ?MsgFunc_PlayMP3@CHud@@QAAHPBDHPAX@Z 1002fd40 f   hud_msg.obj
 0001:0002ed90       ?MsgFunc_RainData@CHud@@QAAHPBDHPAX@Z 1002fd90 f   hud_msg.obj
 0001:0002ee20       ?Think@CHud@@QAEXXZ        1002fe20 f   hud_redraw.obj
 0001:0002eff0       ?Redraw@CHud@@QAEHMH@Z     1002fff0 f   hud_redraw.obj
 0001:0002f590       ?ScaleColors@@YAXAAH00H@Z  10030590 f   hud_redraw.obj
 0001:0002f5d0       ?DrawHudString@CHud@@QAEHHHHPADHHH@Z 100305d0 f   hud_redraw.obj
 0001:0002f640       ?DrawHudNumberString@CHud@@QAEHHHHHHHH@Z 10030640 f   hud_redraw.obj
 0001:0002f690       ?DrawHudStringReverse@CHud@@QAEHHHHPADHHH@Z 10030690 f   hud_redraw.obj
 0001:0002f710       ?DrawHudNumber@CHud@@QAEHHHHHHHH@Z 10030710 f   hud_redraw.obj
 0001:0002f930       ?GetNumWidth@CHud@@QAEHHH@Z 10030930 f   hud_redraw.obj
 0001:0002f980       ?DrawBlurTest@@YAXM@Z      10030980 f   hud_redraw.obj
 0001:0002fb00       ?ListResponse@@YAXPAUnet_response_s@@@Z 10030b00 f   hud_servers.obj
 0001:0002fb20       ?ServerResponse@@YAXPAUnet_response_s@@@Z 10030b20 f   hud_servers.obj
 0001:0002fb40       ?PingResponse@@YAXPAUnet_response_s@@@Z 10030b40 f   hud_servers.obj
 0001:0002fb60       ?RulesResponse@@YAXPAUnet_response_s@@@Z 10030b60 f   hud_servers.obj
 0001:0002fb80       ?PlayersResponse@@YAXPAUnet_response_s@@@Z 10030b80 f   hud_servers.obj
 0001:0002fba0       ?ListResponse@CHudServers@@QAEXPAUnet_response_s@@@Z 10030ba0 f   hud_servers.obj
 0001:0002fc20       ?ServerResponse@CHudServers@@QAEXPAUnet_response_s@@@Z 10030c20 f   hud_servers.obj
 0001:0002fd70       ?PingResponse@CHudServers@@QAEXPAUnet_response_s@@@Z 10030d70 f   hud_servers.obj
 0001:0002fdc0       ?RulesResponse@CHudServers@@QAEXPAUnet_response_s@@@Z 10030dc0 f   hud_servers.obj
 0001:0002fdf0       ?PlayersResponse@CHudServers@@QAEXPAUnet_response_s@@@Z 10030df0 f   hud_servers.obj
 0001:0002fe20       ?CompareServers@CHudServers@@QAEHPAUserver_s@1@0@Z 10030e20 f   hud_servers.obj
 0001:0002fea0       ?AddServer@CHudServers@@QAEXPAPAUserver_s@1@PAU21@@Z 10030ea0 f   hud_servers.obj
 0001:0002ff30       ?Think@CHudServers@@QAEXN@Z 10030f30 f   hud_servers.obj
 0001:0002ff90       ?QueryThink@CHudServers@@QAEXXZ 10030f90 f   hud_servers.obj
 0001:00030050       ?ServerListSize@CHudServers@@QAEHXZ 10031050 f   hud_servers.obj
 0001:00030080       ?FindRequest@CHudServers@@QAEPAUrequest_s@1@HPAU21@@Z 10031080 f   hud_servers.obj
 0001:000300a0       ?RemoveServerFromList@CHudServers@@QAEXPAPAUrequest_s@1@PAU21@@Z 100310a0 f   hud_servers.obj
 0001:000300d0       ?ClearRequestList@CHudServers@@QAEXPAPAUrequest_s@1@@Z 100310d0 f   hud_servers.obj
 0001:00030100       ?ClearServerList@CHudServers@@QAEXPAPAUserver_s@1@@Z 10031100 f   hud_servers.obj
 0001:00030140       ?CompareField@@YAHPAUserver_s@CHudServers@@0PBDH@Z 10031140 f   hud_servers.obj
 0001:000301f0       ?ServerListCompareFunc@@YGHPAUserver_s@CHudServers@@0PBD@Z 100311f0 f   hud_servers.obj
 0001:00030220       ?FnServerCompare@@YAHPBX0@Z 10031220 f   hud_servers.obj
 0001:00030240       ?SortServers@CHudServers@@QAEXPBD@Z 10031240 f   hud_servers.obj
 0001:00030320       ?GetServer@CHudServers@@AAEPAUserver_s@1@H@Z 10031320 f   hud_servers.obj
 0001:00030340       ?GetServerInfo@CHudServers@@QAEPADH@Z 10031340 f   hud_servers.obj
 0001:00030360       ?CancelRequest@CHudServers@@QAEXXZ 10031360 f   hud_servers.obj
 0001:00030380       ?LoadMasterAddresses@CHudServers@@QAEHHPAHPAUnetadr_s@@@Z 10031380 f   hud_servers.obj
 0001:000306b0       ?RequestList@CHudServers@@QAEXXZ 100316b0 f   hud_servers.obj
 0001:00030790       ?RequestBroadcastList@CHudServers@@QAEXH@Z 10031790 f   hud_servers.obj
 0001:000308b0       ?ServerPing@CHudServers@@QAEXH@Z 100318b0 f   hud_servers.obj
 0001:00030900       ?ServerRules@CHudServers@@QAEXH@Z 10031900 f   hud_servers.obj
 0001:00030950       ?ServerPlayers@CHudServers@@QAEXH@Z 10031950 f   hud_servers.obj
 0001:000309a0       ?isQuerying@CHudServers@@QAEHXZ 100319a0 f   hud_servers.obj
 0001:000309b0       ?GetServerCount@CHudServers@@QAEHXZ 100319b0 f   hud_servers.obj
 0001:000309c0       ??0CHudServers@@QAE@XZ     100319c0 f   hud_servers.obj
 0001:00030a20       ??1CHudServers@@QAE@XZ     10031a20 f   hud_servers.obj
 0001:00030ab0       ?ServersGetCount@@YAHXZ    10031ab0 f   hud_servers.obj
 0001:00030ad0       ?ServersIsQuerying@@YAHXZ  10031ad0 f   hud_servers.obj
 0001:00030af0       ?ServersGetInfo@@YAPBDH@Z  10031af0 f   hud_servers.obj
 0001:00030b10       ?SortServers@@YAXPBD@Z     10031b10 f   hud_servers.obj
 0001:00030b30       ?ServersShutdown@@YAXXZ    10031b30 f   hud_servers.obj
 0001:00030b60       ?ServersInit@@YAXXZ        10031b60 f   hud_servers.obj
 0001:00030b90       ?ServersThink@@YAXN@Z      10031b90 f   hud_servers.obj
 0001:00030bb0       ?ServersCancel@@YAXXZ      10031bb0 f   hud_servers.obj
 0001:00030bc0       ?ServersList@@YAXXZ        10031bc0 f   hud_servers.obj
 0001:00030bd0       ?BroadcastServersList@@YAXH@Z 10031bd0 f   hud_servers.obj
 0001:00030bf0       ?ServerPing@@YAXH@Z        10031bf0 f   hud_servers.obj
 0001:00030c10       ?ServerRules@@YAXH@Z       10031c10 f   hud_servers.obj
 0001:00030c30       ?ServerPlayers@@YAXH@Z     10031c30 f   hud_servers.obj
 0001:00030c50       ?SpectatorMode@@YAXXZ      10031c50 f   hud_spectator.obj
 0001:00030cc0       ?SpectatorSpray@@YAXXZ     10031cc0 f   hud_spectator.obj
 0001:00030da0       ?SpectatorHelp@@YAXXZ      10031da0 f   hud_spectator.obj
 0001:00030df0       ?SpectatorMenu@@YAXXZ      10031df0 f   hud_spectator.obj
 0001:00030e10       ?ToggleScores@@YAXXZ       10031e10 f   hud_spectator.obj
 0001:00030e40       ?Init@CHudSpectator@@UAEHXZ 10031e40 f   hud_spectator.obj
 0001:00030fd0       ?UTIL_StringToVector@@YAXPAMPBD@Z 10031fd0 f   hud_spectator.obj
 0001:00031070       ?UTIL_FindEntityInMap@@YAHPADPAM1@Z 10032070 f   hud_spectator.obj
 0001:00031380       ?SetSpectatorStartPosition@CHudSpectator@@QAEXXZ 10032380 f   hud_spectator.obj
 0001:00031490       ?VidInit@CHudSpectator@@UAEHXZ 10032490 f   hud_spectator.obj
 0001:00031530       ?Draw@CHudSpectator@@UAEHM@Z 10032530 f   hud_spectator.obj
 0001:00031850       ?DirectorMessage@CHudSpectator@@QAEXHPAX@Z 10032850 f   hud_spectator.obj
 0001:00031b90       ?FindNextPlayer@CHudSpectator@@QAEX_N@Z 10032b90 f   hud_spectator.obj
 0001:00031d00       ?HandleButtonsDown@CHudSpectator@@QAEXH@Z 10032d00 f   hud_spectator.obj
 0001:00031ea0       ?HandleButtonsUp@CHudSpectator@@QAEXH@Z 10032ea0 f   hud_spectator.obj
 0001:00031eb0       ?SetModes@CHudSpectator@@QAEXHH@Z 10032eb0 f   hud_spectator.obj
 0001:000321b0       ?IsActivePlayer@CHudSpectator@@QAE_NPAUcl_entity_s@@@Z 100331b0 f   hud_spectator.obj
 0001:00032200       ?ParseOverviewFile@CHudSpectator@@QAE_NXZ 10033200 f   hud_spectator.obj
 0001:000327c0       ?LoadMapSprites@CHudSpectator@@QAEXXZ 100337c0 f   hud_spectator.obj
 0001:00032800       ?DrawOverviewLayer@CHudSpectator@@QAEXXZ 10033800 f   hud_spectator.obj
 0001:00032c40       ?DrawOverviewEntities@CHudSpectator@@QAEXXZ 10033c40 f   hud_spectator.obj
 0001:00033510       ?DrawOverview@CHudSpectator@@QAEXXZ 10034510 f   hud_spectator.obj
 0001:00033560       ?CheckOverviewEntities@CHudSpectator@@QAEXXZ 10034560 f   hud_spectator.obj
 0001:000335a0       ?AddOverviewEntity@CHudSpectator@@QAE_NHPAUcl_entity_s@@PBD@Z 100345a0 f   hud_spectator.obj
 0001:00033610       ?DeathMessage@CHudSpectator@@QAEXH@Z 10034610 f   hud_spectator.obj
 0001:00033660       ?AddOverviewEntityToList@CHudSpectator@@QAE_NHPAUcl_entity_s@@N@Z 10034660 f   hud_spectator.obj
 0001:000336b0       ?CheckSettings@CHudSpectator@@QAEXXZ 100346b0 f   hud_spectator.obj
 0001:00033890       ?ToggleInset@CHudSpectator@@QAEH_N@Z 10034890 f   hud_spectator.obj
 0001:000338e0       ?Reset@CHudSpectator@@UAEXXZ 100348e0 f   hud_spectator.obj
 0001:00033950       ?InitHUDData@CHudSpectator@@UAEXXZ 10034950 f   hud_spectator.obj
 0001:00033a00       ?UpdateClientData@CHud@@QAEHPAUclient_data_s@@M@Z 10034a00 f   hud_update.obj
 0001:00033aa0       ?MoveToward@@YAMMMM@Z      10034aa0 f   in_camera.obj
 0001:00033b80       _CAM_Think                 10034b80 f   in_camera.obj
 0001:00034160       ?CAM_PitchUpDown@@YAXXZ    10035160 f   in_camera.obj
 0001:00034170       ?CAM_PitchUpUp@@YAXXZ      10035170 f   in_camera.obj
 0001:00034180       ?CAM_PitchDownDown@@YAXXZ  10035180 f   in_camera.obj
 0001:00034190       ?CAM_PitchDownUp@@YAXXZ    10035190 f   in_camera.obj
 0001:000341a0       ?CAM_YawLeftDown@@YAXXZ    100351a0 f   in_camera.obj
 0001:000341b0       ?CAM_YawLeftUp@@YAXXZ      100351b0 f   in_camera.obj
 0001:000341c0       ?CAM_YawRightDown@@YAXXZ   100351c0 f   in_camera.obj
 0001:000341d0       ?CAM_YawRightUp@@YAXXZ     100351d0 f   in_camera.obj
 0001:000341e0       ?CAM_InDown@@YAXXZ         100351e0 f   in_camera.obj
 0001:000341f0       ?CAM_InUp@@YAXXZ           100351f0 f   in_camera.obj
 0001:00034200       ?CAM_OutDown@@YAXXZ        10035200 f   in_camera.obj
 0001:00034210       ?CAM_OutUp@@YAXXZ          10035210 f   in_camera.obj
 0001:00034220       ?CAM_ToThirdPerson@@YAXXZ  10035220 f   in_camera.obj
 0001:00034290       ?CAM_ToFirstPerson@@YAXXZ  10035290 f   in_camera.obj
 0001:000342b0       ?CAM_ToggleSnapto@@YAXXZ   100352b0 f   in_camera.obj
 0001:000342e0       ?CAM_Init@@YAXXZ           100352e0 f   in_camera.obj
 0001:00034540       ?CAM_ClearStates@@YAXXZ    10035540 f   in_camera.obj
 0001:000345d0       ?CAM_StartMouseMove@@YAXXZ 100355d0 f   in_camera.obj
 0001:00034670       ?CAM_EndMouseMove@@YAXXZ   10035670 f   in_camera.obj
 0001:00034680       ?CAM_StartDistance@@YAXXZ  10035680 f   in_camera.obj
 0001:00034700       ?CAM_EndDistance@@YAXXZ    10035700 f   in_camera.obj
 0001:00034720       _CL_IsThirdPerson          10035720 f   in_camera.obj
 0001:00034750       _CL_CameraOffset           10035750 f   in_camera.obj
 0001:00034770       ?KB_ConvertString@@YAHPADPAPAD@Z 10035770 f   input.obj
 0001:000348b0       _KB_Find                   100358b0 f   input.obj
 0001:000348f0       ?KB_Add@@YAXPBDPAUkbutton_s@@@Z 100358f0 f   input.obj
 0001:00034960       ?KB_Init@@YAXXZ            10035960 f   input.obj
 0001:000349a0       ?KB_Shutdown@@YAXXZ        100359a0 f   input.obj
 0001:000349d0       ?KeyDown@@YAXPAUkbutton_s@@@Z 100359d0 f   input.obj
 0001:00034a40       ?KeyUp@@YAXPAUkbutton_s@@@Z 10035a40 f   input.obj
 0001:00034ab0       _HUD_Key_Event             10035ab0 f   input.obj
 0001:00034ae0       ?IN_BreakDown@@YAXXZ       10035ae0 f   input.obj
 0001:00034af0       ?IN_BreakUp@@YAXXZ         10035af0 f   input.obj
 0001:00034b00       ?IN_KLookDown@@YAXXZ       10035b00 f   input.obj
 0001:00034b10       ?IN_KLookUp@@YAXXZ         10035b10 f   input.obj
 0001:00034b20       ?IN_JLookDown@@YAXXZ       10035b20 f   input.obj
 0001:00034b30       ?IN_JLookUp@@YAXXZ         10035b30 f   input.obj
 0001:00034b40       ?IN_MLookDown@@YAXXZ       10035b40 f   input.obj
 0001:00034b50       ?IN_UpDown@@YAXXZ          10035b50 f   input.obj
 0001:00034b60       ?IN_UpUp@@YAXXZ            10035b60 f   input.obj
 0001:00034b70       ?IN_DownDown@@YAXXZ        10035b70 f   input.obj
 0001:00034b80       ?IN_DownUp@@YAXXZ          10035b80 f   input.obj
 0001:00034b90       ?IN_LeftDown@@YAXXZ        10035b90 f   input.obj
 0001:00034ba0       ?IN_LeftUp@@YAXXZ          10035ba0 f   input.obj
 0001:00034bb0       ?IN_RightDown@@YAXXZ       10035bb0 f   input.obj
 0001:00034bc0       ?IN_RightUp@@YAXXZ         10035bc0 f   input.obj
 0001:00034bd0       ?IN_ForwardDown@@YAXXZ     10035bd0 f   input.obj
 0001:00034bf0       ?IN_ForwardUp@@YAXXZ       10035bf0 f   input.obj
 0001:00034c10       ?IN_BackDown@@YAXXZ        10035c10 f   input.obj
 0001:00034c30       ?IN_BackUp@@YAXXZ          10035c30 f   input.obj
 0001:00034c50       ?IN_LookupDown@@YAXXZ      10035c50 f   input.obj
 0001:00034c60       ?IN_LookupUp@@YAXXZ        10035c60 f   input.obj
 0001:00034c70       ?IN_LookdownDown@@YAXXZ    10035c70 f   input.obj
 0001:00034c80       ?IN_LookdownUp@@YAXXZ      10035c80 f   input.obj
 0001:00034c90       ?IN_MoveleftDown@@YAXXZ    10035c90 f   input.obj
 0001:00034cb0       ?IN_MoveleftUp@@YAXXZ      10035cb0 f   input.obj
 0001:00034cd0       ?IN_MoverightDown@@YAXXZ   10035cd0 f   input.obj
 0001:00034cf0       ?IN_MoverightUp@@YAXXZ     10035cf0 f   input.obj
 0001:00034d10       ?IN_SpeedDown@@YAXXZ       10035d10 f   input.obj
 0001:00034d20       ?IN_SpeedUp@@YAXXZ         10035d20 f   input.obj
 0001:00034d30       ?IN_StrafeDown@@YAXXZ      10035d30 f   input.obj
 0001:00034d40       ?IN_StrafeUp@@YAXXZ        10035d40 f   input.obj
 0001:00034d50       ?IN_Attack2Down@@YAXXZ     10035d50 f   input.obj
 0001:00034d70       ?IN_Attack2Up@@YAXXZ       10035d70 f   input.obj
 0001:00034d80       ?IN_UseDown@@YAXXZ         10035d80 f   input.obj
 0001:00034da0       ?IN_UseUp@@YAXXZ           10035da0 f   input.obj
 0001:00034db0       ?IN_JumpDown@@YAXXZ        10035db0 f   input.obj
 0001:00034dd0       ?IN_JumpUp@@YAXXZ          10035dd0 f   input.obj
 0001:00034de0       ?IN_DuckDown@@YAXXZ        10035de0 f   input.obj
 0001:00034e00       ?IN_DuckUp@@YAXXZ          10035e00 f   input.obj
 0001:00034e10       ?IN_ReloadDown@@YAXXZ      10035e10 f   input.obj
 0001:00034e20       ?IN_ReloadUp@@YAXXZ        10035e20 f   input.obj
 0001:00034e30       ?IN_Alt1Down@@YAXXZ        10035e30 f   input.obj
 0001:00034e40       ?IN_Alt1Up@@YAXXZ          10035e40 f   input.obj
 0001:00034e50       ?IN_GraphDown@@YAXXZ       10035e50 f   input.obj
 0001:00034e60       ?IN_GraphUp@@YAXXZ         10035e60 f   input.obj
 0001:00034e70       ?IN_AttackDown@@YAXXZ      10035e70 f   input.obj
 0001:00034e90       ?IN_AttackUp@@YAXXZ        10035e90 f   input.obj
 0001:00034eb0       ?IN_Cancel@@YAXXZ          10035eb0 f   input.obj
 0001:00034ec0       ?IN_Impulse@@YAXXZ         10035ec0 f   input.obj
 0001:00034ee0       ?IN_ScoreDown@@YAXXZ       10035ee0 f   input.obj
 0001:00034f00       ?IN_ScoreUp@@YAXXZ         10035f00 f   input.obj
 0001:00034f20       ?IN_MLookUp@@YAXXZ         10035f20 f   input.obj
 0001:00034f60       ?CL_KeyState@@YAMPAUkbutton_s@@@Z 10035f60 f   input.obj
 0001:00034fe0       ?CL_AdjustAngles@@YAXMPAM@Z 10035fe0 f   input.obj
 0001:00035180       _CL_CreateMove             10036180 f   input.obj
 0001:000354e0       ?CL_IsDead@@YAHXZ          100364e0 f   input.obj
 0001:000354f0       ?CL_ButtonBits@@YAHH@Z     100364f0 f   input.obj
 0001:000356b0       ?CL_ResetButtonBits@@YAXH@Z 100366b0 f   input.obj
 0001:000356f0       ?InitInput@@YAXXZ          100366f0 f   input.obj
 0001:00035c00       ?ShutdownInput@@YAXXZ      10036c00 f   input.obj
 0001:00035c10       _HUD_Shutdown              10036c10 f   input.obj
 0001:00035c20       ?Force_CenterView_f@@YAXXZ 10036c20 f   inputw32.obj
 0001:00035c60       _IN_ActivateMouse          10036c60 f   inputw32.obj
 0001:00035ca0       _IN_DeactivateMouse        10036ca0 f   inputw32.obj
 0001:00035cd0       ?IN_StartupMouse@@YAXXZ    10036cd0 f   inputw32.obj
 0001:00035da0       ?IN_Shutdown@@YAXXZ        10036da0 f   inputw32.obj
 0001:00035db0       ?IN_GetMousePos@@YAXPAH0@Z 10036db0 f   inputw32.obj
 0001:00035dd0       ?IN_ResetMouse@@YAXXZ      10036dd0 f   inputw32.obj
 0001:00035df0       _IN_MouseEvent             10036df0 f   inputw32.obj
 0001:00035e80       ?IN_MouseMove@@YAXMPAUusercmd_s@@@Z 10036e80 f   inputw32.obj
 0001:00036160       _IN_Accumulate             10037160 f   inputw32.obj
 0001:000361d0       _IN_ClearStates            100371d0 f   inputw32.obj
 0001:000361f0       ?IN_StartupJoystick@@YAXXZ 100371f0 f   inputw32.obj
 0001:00036340       ?RawValuePointer@@YAPAKH@Z 10037340 f   inputw32.obj
 0001:00036390       ?Joy_AdvancedUpdate_f@@YAXXZ 10037390 f   inputw32.obj
 0001:00036530       ?IN_Commands@@YAXXZ        10037530 f   inputw32.obj
 0001:00036670       ?IN_ReadJoystick@@YAHXZ    10037670 f   inputw32.obj
 0001:000366d0       ?IN_JoyMove@@YAXMPAUusercmd_s@@@Z 100376d0 f   inputw32.obj
 0001:00036b80       ?IN_Move@@YAXMPAUusercmd_s@@@Z 10037b80 f   inputw32.obj
 0001:00036bc0       ?IN_Init@@YAXXZ            10037bc0 f   inputw32.obj
 0001:00036de0       ?Log@@YAXPBDZZ             10037de0 f   log.obj
 0001:00036e90       ?ConLog@@YAXPBDZZ          10037e90 f   log.obj
 0001:00036f50       ?StartLog@@YAXXZ           10037f50 f   log.obj
 0001:00036f80       ?SetupLogging@@YAXXZ       10037f80 f   log.obj
 0001:00037020       ?__MsgFunc_ShowMenu@@YAHPBDHPAX@Z 10038020 f   menu.obj
 0001:00037040       ?Init@CHudMenu@@UAEHXZ     10038040 f   menu.obj
 0001:00037070       ?InitHUDData@CHudMenu@@UAEXXZ 10038070 f   menu.obj
 0001:00037080       ?Reset@CHudMenu@@UAEXXZ    10038080 f   menu.obj
 0001:00037090       ?VidInit@CHudMenu@@UAEHXZ  10038090 f   menu.obj
 0001:000370a0       ?Draw@CHudMenu@@UAEHM@Z    100380a0 f   menu.obj
 0001:000371b0       ?SelectMenuItem@CHudMenu@@QAEXH@Z 100381b0 f   menu.obj
 0001:00037210       ?MsgFunc_ShowMenu@CHudMenu@@QAEHPBDHPAX@Z 10038210 f   menu.obj
 0001:00037370       ?__MsgFunc_HudText@@YAHPBDHPAX@Z 10038370 f   message.obj
 0001:00037390       ?__MsgFunc_GameTitle@@YAHPBDHPAX@Z 10038390 f   message.obj
 0001:000373b0       ?Init@CHudMessage@@UAEHXZ  100383b0 f   message.obj
 0001:000373f0       ?VidInit@CHudMessage@@UAEHXZ 100383f0 f   message.obj
 0001:00037430       ?Reset@CHudMessage@@UAEXXZ 10038430 f   message.obj
 0001:00037460       ?FadeBlend@CHudMessage@@QAEMMMMM@Z 10038460 f   message.obj
 0001:00037500       ?XPosition@CHudMessage@@QAEHMHH@Z 10038500 f   message.obj
 0001:00037580       ?YPosition@CHudMessage@@QAEHMH@Z 10038580 f   message.obj
 0001:00037610       ?MessageScanNextChar@CHudMessage@@QAEXXZ 10038610 f   message.obj
 0001:000377f0       ?MessageScanStart@CHudMessage@@QAEXXZ 100387f0 f   message.obj
 0001:00037960       ?MessageDrawScan@CHudMessage@@QAEXPAUclient_textmessage_s@@M@Z 10038960 f   message.obj
 0001:00037b60       ?Draw@CHudMessage@@UAEHM@Z 10038b60 f   message.obj
 0001:00037ea0       ?MessageAdd@CHudMessage@@QAEXPBDM@Z 10038ea0 f   message.obj
 0001:00038110       ?MsgFunc_HudText@CHudMessage@@QAEHPBDHPAX@Z 10039110 f   message.obj
 0001:00038160       ?MsgFunc_GameTitle@CHudMessage@@QAEHPBDHPAX@Z 10039160 f   message.obj
 0001:000381a0       ?MessageAdd@CHudMessage@@QAEXPAUclient_textmessage_s@@@Z 100391a0 f   message.obj
 0001:000381f0       ?Initialize@CMP3@@QAEHXZ   100391f0 f   mp3.obj
 0001:00038390       ?Shutdown@CMP3@@QAEHXZ     10039390 f   mp3.obj
 0001:000383c0       ?StopMP3@CMP3@@QAEHM@Z     100393c0 f   mp3.obj
 0001:00038430       ?PlayMP3@CMP3@@QAEHPBD@Z   10039430 f   mp3.obj
 0001:000385b0       ?Frame@CMP3@@QAEXXZ        100395b0 f   mp3.obj
 0001:00038660       ?BEGIN_READ@@YAXPAXH@Z     10039660 f   parsemsg.obj
 0001:00038680       ?READ_CHAR@@YAHXZ          10039680 f   parsemsg.obj
 0001:000386c0       ?READ_BYTE@@YAHXZ          100396c0 f   parsemsg.obj
 0001:00038700       ?READ_SHORT@@YAHXZ         10039700 f   parsemsg.obj
 0001:00038750       ?READ_WORD@@YAHXZ          10039750 f   parsemsg.obj
 0001:00038760       ?READ_LONG@@YAHXZ          10039760 f   parsemsg.obj
 0001:000387c0       ?READ_FLOAT@@YAMXZ         100397c0 f   parsemsg.obj
 0001:00038800       ?READ_STRING@@YAPADXZ      10039800 f   parsemsg.obj
 0001:00038860       ?READ_COORD@@YAMXZ         10039860 f   parsemsg.obj
 0001:00038880       ?READ_ANGLE@@YAMXZ         10039880 f   parsemsg.obj
 0001:000388a0       ?READ_HIRESANGLE@@YAMXZ    100398a0 f   parsemsg.obj
 0001:00038900       ??0ParticleSystemManager@@QAE@XZ 10039900 f   particlemgr.obj
 0001:00038910       ??1ParticleSystemManager@@QAE@XZ 10039910 f   particlemgr.obj
 0001:00038920       ?AddSystem@ParticleSystemManager@@QAEXPAVParticleSystem@@@Z 10039920 f   particlemgr.obj
 0001:00038930       ?FindSystem@ParticleSystemManager@@QAEPAVParticleSystem@@PAUcl_entity_s@@@Z 10039930 f   particlemgr.obj
 0001:00038950       ?SortSystems@ParticleSystemManager@@QAEXXZ 10039950 f   particlemgr.obj
 0001:000389d0       ?UpdateSystems@ParticleSystemManager@@QAEXMH@Z 100399d0 f   particlemgr.obj
 0001:00038aa0       ?ClearSystems@ParticleSystemManager@@QAEXXZ 10039aa0 f   particlemgr.obj
 0001:00038ae0       ?DeleteSystemWithEntity@ParticleSystemManager@@QAEXH@Z 10039ae0 f   particlemgr.obj
 0001:00038b30       ?__MsgFunc_Particle@@YAHPBDHPAX@Z 10039b30 f   particlemsg.obj
 0001:00038b50       ?__MsgFunc_DelParticle@@YAHPBDHPAX@Z 10039b50 f   particlemsg.obj
 0001:00038b70       ?Init@CHudParticle@@UAEHXZ 10039b70 f   particlemsg.obj
 0001:00038ba0       ?VidInit@CHudParticle@@UAEHXZ 10039ba0 f   particlemsg.obj
 0001:00038bb0       ?MsgFunc_Particle@CHudParticle@@QAEHPBDHPAX@Z 10039bb0 f   particlemsg.obj
 0001:00038c40       ?MsgFunc_DelParticle@CHudParticle@@QAEHPBDHPAX@Z 10039c40 f   particlemsg.obj
 0001:00038c70       ?Draw@CHudParticle@@UAEHM@Z 10039c70 f   particlemsg.obj
 0001:00038c80       ?UTIL_GetClientEntityWithServerIndex@@YAPAUcl_entity_s@@H@Z 10039c80 f   particlesys.obj
 0001:00038cc0       ??0ParticleType@@QAE@PAV0@@Z 10039cc0 f   particlesys.obj
 0001:00038f70       ?CreateParticle@ParticleType@@QAEPAUparticle@@PAVParticleSystem@@@Z 10039f70 f   particlesys.obj
 0001:00038fd0       ?InitParticle@ParticleType@@QAEXPAUparticle@@PAVParticleSystem@@@Z 10039fd0 f   particlesys.obj
 0001:000392f0       ??0RandomRange@@QAE@PAD@Z  1003a2f0 f   particlesys.obj
 0001:00039360       ??0ParticleSystem@@QAE@HPAD@Z 1003a360 f   particlesys.obj
 0001:00039510       ?AllocateParticles@ParticleSystem@@QAEXH@Z 1003a510 f   particlesys.obj
 0001:00039580       ??1ParticleSystem@@QAE@XZ  1003a580 f   particlesys.obj
 0001:000395c0       ?GetType@ParticleSystem@@QAEPAVParticleType@@PBD@Z 1003a5c0 f   particlesys.obj
 0001:00039600       ?AddPlaceholderType@ParticleSystem@@QAEPAVParticleType@@PBD@Z 1003a600 f   particlesys.obj
 0001:00039650       ?ParseType@ParticleSystem@@QAEPAVParticleType@@AAPAD@Z 1003a650 f   particlesys.obj
 0001:0003a230       ?ActivateParticle@ParticleSystem@@QAEPAUparticle@@XZ 1003b230 f   particlesys.obj
 0001:0003a250       ?CalculateDistance@ParticleSystem@@QAEXXZ 1003b250 f   particlesys.obj
 0001:0003a290       ?UpdateSystem@ParticleSystem@@QAE_NMH@Z 1003b290 f   particlesys.obj
 0001:0003a360       ?DrawSystem@ParticleSystem@@QAEXXZ 1003b360 f   particlesys.obj
 0001:0003a3c0       ?UpdateParticle@ParticleSystem@@QAE_NPAUparticle@@M@Z 1003b3c0 f   particlesys.obj
 0001:0003a890       ?DrawParticle@ParticleSystem@@QAEXPAUparticle@@AAVVector@@1@Z 1003b890 f   particlesys.obj
 0001:0003ab70       _PM_ShowClipBox            1003bb70 f   pm_debug.obj
 0001:0003ab80       _PM_ParticleLine           1003bb80 f   pm_debug.obj
 0001:0003ac50       _PM_DrawRectangle          1003bc50 f   pm_debug.obj
 0001:0003acb0       _PM_DrawPhysEntBBox        1003bcb0 f   pm_debug.obj
 0001:0003af70       _PM_DrawBBox               1003bf70 f   pm_debug.obj
 0001:0003b050       _PM_ViewEntity             1003c050 f   pm_debug.obj
 0001:0003b100       _anglemod                  1003c100 f   pm_math.obj
 0001:0003b130       _AngleVectors              1003c130 f   pm_math.obj
 0001:0003b230       _AngleVectorsTranspose     1003c230 f   pm_math.obj
 0001:0003b330       _AngleMatrix               1003c330 f   pm_math.obj
 0001:0003b410       _AngleIMatrix              1003c410 f   pm_math.obj
 0001:0003b4f0       _NormalizeAngles           1003c4f0 f   pm_math.obj
 0001:0003b530       _InterpolateAngles         1003c530 f   pm_math.obj
 0001:0003b5b0       _AngleBetweenVectors       1003c5b0 f   pm_math.obj
 0001:0003b640       _VectorTransform           1003c640 f   pm_math.obj
 0001:0003b6a0       _VectorCompare             1003c6a0 f   pm_math.obj
 0001:0003b6d0       _VectorMA                  1003c6d0 f   pm_math.obj
 0001:0003b710       __DotProduct               1003c710 f   pm_math.obj
 0001:0003b730       __VectorSubtract           1003c730 f   pm_math.obj
 0001:0003b760       __VectorAdd                1003c760 f   pm_math.obj
 0001:0003b790       __VectorCopy               1003c790 f   pm_math.obj
 0001:0003b7b0       _CrossProduct              1003c7b0 f   pm_math.obj
 0001:0003b7f0       _Length                    1003c7f0 f   pm_math.obj
 0001:0003b820       _Distance                  1003c820 f   pm_math.obj
 0001:0003b860       _VectorNormalize           1003c860 f   pm_math.obj
 0001:0003b8b0       _VectorInverse             1003c8b0 f   pm_math.obj
 0001:0003b8d0       _VectorScale               1003c8d0 f   pm_math.obj
 0001:0003b900       _Q_log2                    1003c900 f   pm_math.obj
 0001:0003b910       _VectorMatrix              1003c910 f   pm_math.obj
 0001:0003b9b0       _VectorAngles              1003c9b0 f   pm_math.obj
 0001:0003ba90       _PM_SwapTextures           1003ca90 f   pm_shared.obj
 0001:0003bb50       _PM_SortTextures           1003cb50 f   pm_shared.obj
 0001:0003bbc0       _PM_InitTextureTypes       1003cbc0 f   pm_shared.obj
 0001:0003be60       _PM_FindTextureType        1003ce60 f   pm_shared.obj
 0001:0003bec0       _PM_PlayGroupSound         1003cec0 f   pm_shared.obj
 0001:0003bf90       _PM_PlayStepSound          1003cf90 f   pm_shared.obj
 0001:0003cbb0       _PM_MapTextureTypeStepType 1003dbb0 f   pm_shared.obj
 0001:0003cc60       _PM_CatagorizeTextureType  1003dc60 f   pm_shared.obj
 0001:0003cd60       _PM_UpdateStepSound        1003dd60 f   pm_shared.obj
 0001:0003d070       _PM_AddToTouched           1003e070 f   pm_shared.obj
 0001:0003d110       _PM_CheckVelocity          1003e110 f   pm_shared.obj
 0001:0003d200       _PM_ClipVelocity           1003e200 f   pm_shared.obj
 0001:0003d2a0       _PM_AddCorrectGravity      1003e2a0 f   pm_shared.obj
 0001:0003d320       _PM_FixupGravityVelocity   1003e320 f   pm_shared.obj
 0001:0003d380       _PM_FlyMove                1003e380 f   pm_shared.obj
 0001:0003d860       _PM_Accelerate             1003e860 f   pm_shared.obj
 0001:0003d900       _PM_WalkMove               1003e900 f   pm_shared.obj
 0001:0003de30       _PM_Friction               1003ee30 f   pm_shared.obj
 0001:0003dfd0       _PM_AirAccelerate          1003efd0 f   pm_shared.obj
 0001:0003e090       _PM_WaterMove              1003f090 f   pm_shared.obj
 0001:0003e3b0       _PM_AirMove                1003f3b0 f   pm_shared.obj
 0001:0003e500       _PM_InWater                1003f500 f   pm_shared.obj
 0001:0003e520       _PM_CheckWater             1003f520 f   pm_shared.obj
 0001:0003e700       _PM_CatagorizePosition     1003f700 f   pm_shared.obj
 0001:0003e830       _PM_GetRandomStuckOffsets  1003f830 f   pm_shared.obj
 0001:0003e880       _PM_ResetStuckOffsets      1003f880 f   pm_shared.obj
 0001:0003e8a0       _PM_CheckStuck             1003f8a0 f   pm_shared.obj
 0001:0003ec20       _PM_SpectatorMove          1003fc20 f   pm_shared.obj
 0001:0003efc0       _PM_SplineFraction         1003ffc0 f   pm_shared.obj
 0001:0003efe0       _PM_FixPlayerCrouchStuck   1003ffe0 f   pm_shared.obj
 0001:0003f080       _PM_UnDuck                 10040080 f   pm_shared.obj
 0001:0003f1e0       _PM_Duck                   100401e0 f   pm_shared.obj
 0001:0003f430       _PM_LadderMove             10040430 f   pm_shared.obj
 0001:0003f7c0       _PM_Ladder                 100407c0 f   pm_shared.obj
 0001:0003f890       _PM_WaterJump              10040890 f   pm_shared.obj
 0001:0003f950       _PM_AddGravity             10040950 f   pm_shared.obj
 0001:0003f9b0       _PM_PushEntity             100409b0 f   pm_shared.obj
 0001:0003fa80       _PM_Physics_Toss           10040a80 f   pm_shared.obj
 0001:0003fd90       _PM_NoClip                 10040d90 f   pm_shared.obj
 0001:0003fe40       _PM_PreventMegaBunnyJumping 10040e40 f   pm_shared.obj
 0001:0003feb0       _PM_Jump                   10040eb0 f   pm_shared.obj
 0001:00040250       _PM_CheckWaterJump         10041250 f   pm_shared.obj
 0001:000404c0       _PM_CheckFalling           100414c0 f   pm_shared.obj
 0001:000406d0       _PM_PlayWaterSounds        100416d0 f   pm_shared.obj
 0001:000407d0       _PM_CalcRoll               100417d0 f   pm_shared.obj
 0001:00040870       _PM_DropPunchAngle         10041870 f   pm_shared.obj
 0001:00040a10       _PM_CheckParamters         10041a10 f   pm_shared.obj
 0001:00040c00       _PM_ReduceTimers           10041c00 f   pm_shared.obj
 0001:00040cf0       _PM_PlayerMove             10041cf0 f   pm_shared.obj
 0001:00041140       _PM_CreateStuckTable       10042140 f   pm_shared.obj
 0001:00041360       _PM_Move                   10042360 f   pm_shared.obj
 0001:000413d0       _PM_GetVisEntInfo          100423d0 f   pm_shared.obj
 0001:00041400       _PM_GetPhysEntInfo         10042400 f   pm_shared.obj
 0001:00041430       _PM_Init                   10042430 f   pm_shared.obj
 0001:00041450       ?RecursiveLightPoint@@YAHPAUmnode_s@@ABVVector@@1AAV2@@Z 10042450 f   quake_bsp.obj
 0001:000416f0       ?R_LightPoint@@YAHAAVVector@@0@Z 100426f0 f   quake_bsp.obj
 0001:00041770       ?R_ConcatRotations@@YAXQAY02M00@Z 10042770 f   quake_bsp.obj
 0001:00041860       ?ProjectPointOnPlane@@YAXAAVVector@@ABV1@1@Z 10042860 f   quake_bsp.obj
 0001:000418f0       ?PerpendicularVector@@YAXAAVVector@@ABV1@@Z 100428f0 f   quake_bsp.obj
 0001:00041990       ?RotatePointAroundVector@@YAXAAVVector@@ABV1@1M@Z 10042990 f   quake_bsp.obj
 0001:00041b50       ?SignbitsForPlane@@YAHPAUmplane_s@@@Z 10042b50 f   quake_bsp.obj
 0001:00041b80       ?BoxOnPlaneSide@@YAHAAVVector@@0PAUmplane_s@@@Z 10042b80 f   quake_bsp.obj
 0001:00041d50       ?R_SetFrustum@FrustumCheck@@QAEXVVector@@0M@Z 10042d50 f   quake_bsp.obj
 0001:00041f00       ?R_SetFrustum@FrustumCheck@@QAEXVVector@@0MMM@Z 10042f00 f   quake_bsp.obj
 0001:000420f0       ?R_CullBox@FrustumCheck@@QAEHVVector@@0@Z 100430f0 f   quake_bsp.obj
 0001:00042170       ?GL_FrustumSetClipPlanes@FrustumCheck@@QAEXXZ 10043170 f   quake_bsp.obj
 0001:00042700       ?GL_DisableClipPlanes@FrustumCheck@@QAEXXZ 10043700 f   quake_bsp.obj
 0001:00042740       ?DrawDebugFrustumPlane@@YAXXZ 10043740 f   quake_bsp.obj
 0001:00042810       ?Mod_PointInLeaf@@YAPAUmleaf_s@@VVector@@PAUmodel_s@@@Z 10043810 f   quake_bsp.obj
 0001:00042900       ?ProcessRain@@YAXXZ        10043900 f   rain.obj
 0001:00042f40       ?WaterLandingEffect@@YAXPAUcl_drip@@@Z 10043f40 f   rain.obj
 0001:00043020       ?ProcessFXObjects@@YAXXZ   10044020 f   rain.obj
 0001:00043110       ?ResetRain@@YAXXZ          10044110 f   rain.obj
 0001:000431c0       ?InitRain@@YAXXZ           100441c0 f   rain.obj
 0001:00043210       ??0?$MemBlock@Ucl_drip@@@@QAE@H@Z 10044210 f i rain.obj
 0001:00043290       ??0?$MemBlock@Ucl_rainfx@@@@QAE@H@Z 10044290 f i rain.obj
 0001:00043310       ?__MsgFunc_SayText@@YAHPBDHPAX@Z 10044310 f   saytext.obj
 0001:00043330       ?Init@CHudSayText@@UAEHXZ  10044330 f   saytext.obj
 0001:000433a0       ?InitHUDData@CHudSayText@@UAEXXZ 100443a0 f   saytext.obj
 0001:000433d0       ?VidInit@CHudSayText@@UAEHXZ 100443d0 f   saytext.obj
 0001:000433e0       ?ScrollTextUp@@YAHXZ       100443e0 f   saytext.obj
 0001:00043450       ?Draw@CHudSayText@@UAEHM@Z 10044450 f   saytext.obj
 0001:000435e0       ?MsgFunc_SayText@CHudSayText@@QAEHPBDHPAX@Z 100445e0 f   saytext.obj
 0001:00043620       ?SayTextPrint@CHudSayText@@QAEXPBDHH@Z 10044620 f   saytext.obj
 0001:00043790       ?EnsureTextFitsInOneLineAndWrapIfHaveTo@CHudSayText@@QAEXH@Z 10044790 f   saytext.obj
 0001:000439c0       ?__MsgFunc_StatusIcon@@YAHPBDHPAX@Z 100449c0 f   status_icons.obj
 0001:000439e0       ?Init@CHudStatusIcons@@UAEHXZ 100449e0 f   status_icons.obj
 0001:00043a10       ?VidInit@CHudStatusIcons@@UAEHXZ 10044a10 f   status_icons.obj
 0001:00043a20       ?Reset@CHudStatusIcons@@UAEXXZ 10044a20 f   status_icons.obj
 0001:00043a40       ?Draw@CHudStatusIcons@@UAEHM@Z 10044a40 f   status_icons.obj
 0001:00043ac0       ?MsgFunc_StatusIcon@CHudStatusIcons@@QAEHPBDHPAX@Z 10044ac0 f   status_icons.obj
 0001:00043b30       ?EnableIcon@CHudStatusIcons@@QAEXPADEEE@Z 10044b30 f   status_icons.obj
 0001:00043c50       ?DisableIcon@CHudStatusIcons@@QAEXPAD@Z 10044c50 f   status_icons.obj
 0001:00043ca0       ?__MsgFunc_StatusText@@YAHPBDHPAX@Z 10044ca0 f   statusbar.obj
 0001:00043cc0       ?__MsgFunc_StatusValue@@YAHPBDHPAX@Z 10044cc0 f   statusbar.obj
 0001:00043ce0       ?Init@CHudStatusBar@@UAEHXZ 10044ce0 f   statusbar.obj
 0001:00043d40       ?VidInit@CHudStatusBar@@UAEHXZ 10044d40 f   statusbar.obj
 0001:00043d50       ?Reset@CHudStatusBar@@UAEXXZ 10044d50 f   statusbar.obj
 0001:00043da0       ?ParseStatusString@CHudStatusBar@@QAEXH@Z 10044da0 f   statusbar.obj
 0001:00044010       ?Draw@CHudStatusBar@@UAEHM@Z 10045010 f   statusbar.obj
 0001:00044190       ?MsgFunc_StatusText@CHudStatusBar@@QAEHPBDHPAX@Z 10045190 f   statusbar.obj
 0001:00044210       ?MsgFunc_StatusValue@CHudStatusBar@@QAEHPBDHPAX@Z 10045210 f   statusbar.obj
 0001:00044260       ?AngleMatrix@@YAXPBMPAY03M@Z 10045260 f   studio_util.obj
 0001:00044340       ?VectorCompare@@YAHPBM0@Z  10045340 f   studio_util.obj
 0001:00044370       ?CrossProduct@@YAXPBM0PAM@Z 10045370 f   studio_util.obj
 0001:000443b0       ?VectorTransform@@YAXPBMQAY03MPAM@Z 100453b0 f   studio_util.obj
 0001:00044410       ?ConcatTransforms@@YAXQAY03M00@Z 10045410 f   studio_util.obj
 0001:00044550       ?AngleQuaternion@@YAXPAMQAM@Z 10045550 f   studio_util.obj
 0001:000445f0       ?QuaternionSlerp@@YAXQAM0M0@Z 100455f0 f   studio_util.obj
 0001:00044770       ?QuaternionMatrix@@YAXQAMPAY03M@Z 10045770 f   studio_util.obj
 0001:00044850       ?MatrixCopy@@YAXQAY03M0@Z  10045850 f   studio_util.obj
 0001:00044890       ?Init@CStudioModelRenderer@@UAEXXZ 10045890 f   StudioModelRenderer.obj
 0001:00044910       ??0CStudioModelRenderer@@QAE@XZ 10045910 f   StudioModelRenderer.obj
 0001:00044970       ??_GCStudioModelRenderer@@UAEPAXI@Z 10045970 f i StudioModelRenderer.obj
 0001:00044970       ??_ECStudioModelRenderer@@UAEPAXI@Z 10045970 f i StudioModelRenderer.obj
 0001:00044990       ??1CStudioModelRenderer@@UAE@XZ 10045990 f   StudioModelRenderer.obj
 0001:000449a0       ?StudioCalcBoneAdj@CStudioModelRenderer@@UAEXMPAMPBE1E@Z 100459a0 f   StudioModelRenderer.obj
 0001:00044be0       ?StudioCalcBoneQuaterion@CStudioModelRenderer@@UAEXHMPAUmstudiobone_t@@PAUmstudioanim_t@@PAM2@Z 10045be0 f   StudioModelRenderer.obj
 0001:00044db0       ?StudioCalcBonePosition@CStudioModelRenderer@@UAEXHMPAUmstudiobone_t@@PAUmstudioanim_t@@PAM2@Z 10045db0 f   StudioModelRenderer.obj
 0001:00044f00       ?StudioSlerpBones@CStudioModelRenderer@@UAEXQAY03MQAY02M01M@Z 10045f00 f   StudioModelRenderer.obj
 0001:00045040       ?StudioGetAnim@CStudioModelRenderer@@UAEPAUmstudioanim_t@@PAUmodel_s@@PAUmstudioseqdesc_t@@@Z 10046040 f   StudioModelRenderer.obj
 0001:000450f0       ?StudioPlayerBlend@CStudioModelRenderer@@UAEXPAUmstudioseqdesc_t@@PAHPAM@Z 100460f0 f   StudioModelRenderer.obj
 0001:000451d0       ?StudioSetUpTransform@CStudioModelRenderer@@UAEXH@Z 100461d0 f   StudioModelRenderer.obj
 0001:000454f0       ?StudioEstimateInterpolant@CStudioModelRenderer@@UAEMXZ 100464f0 f   StudioModelRenderer.obj
 0001:00045550       ?StudioCalcRotations@CStudioModelRenderer@@UAEXQAY02MPAY03MPAUmstudioseqdesc_t@@PAUmstudioanim_t@@M@Z 10046550 f   StudioModelRenderer.obj
 0001:00045720       ?StudioFxTransform@CStudioModelRenderer@@UAEXPAUcl_entity_s@@QAY03M@Z 10046720 f   StudioModelRenderer.obj
 0001:00045840       ?StudioEstimateFrame@CStudioModelRenderer@@UAEMPAUmstudioseqdesc_t@@@Z 10046840 f   StudioModelRenderer.obj
 0001:00045940       ?StudioSetupBones@CStudioModelRenderer@@UAEXXZ 10046940 f   StudioModelRenderer.obj
 0001:00046010       ?StudioSaveBones@CStudioModelRenderer@@UAEXXZ 10047010 f   StudioModelRenderer.obj
 0001:000460f0       ?StudioMergeBones@CStudioModelRenderer@@UAEXPAUmodel_s@@@Z 100470f0 f   StudioModelRenderer.obj
 0001:00046370       ?StudioDrawModel@CStudioModelRenderer@@UAEHH@Z 10047370 f   StudioModelRenderer.obj
 0001:00047130       ??0entity_state_s@@QAE@ABU0@@Z 10048130 f i StudioModelRenderer.obj
 0001:00047490       ?StudioEstimateGait@CStudioModelRenderer@@UAEXPAUentity_state_s@@@Z 10048490 f   StudioModelRenderer.obj
 0001:00047740       ?StudioProcessGait@CStudioModelRenderer@@UAEXPAUentity_state_s@@@Z 10048740 f   StudioModelRenderer.obj
 0001:00047a50       ?StudioDrawPlayer@CStudioModelRenderer@@UAEHHPAUentity_state_s@@@Z 10048a50 f   StudioModelRenderer.obj
 0001:00048870       ?StudioCalcAttachments@CStudioModelRenderer@@UAEXXZ 10049870 f   StudioModelRenderer.obj
 0001:00048900       ?StudioRenderModel@CStudioModelRenderer@@UAEXXZ 10049900 f   StudioModelRenderer.obj
 0001:000489a0       ?StudioRenderFinal_Software@CStudioModelRenderer@@UAEXXZ 100499a0 f   StudioModelRenderer.obj
 0001:00048a60       ?StudioRenderFinal_Hardware@CStudioModelRenderer@@UAEXXZ 10049a60 f   StudioModelRenderer.obj
 0001:00048c40       ?StudioRenderFinal@CStudioModelRenderer@@UAEXXZ 10049c40 f   StudioModelRenderer.obj
 0001:00048c80       ?StudioDrawHeadShield@CStudioModelRenderer@@QAEHXZ 10049c80 f   StudioModelRenderer.obj
 0001:00048eb0       ?__MsgFunc_HeadShield@@YAHPBDHPAX@Z 10049eb0 f   StudioModelRenderer.obj
 0001:00048fa0       ?ResetHeadShield@@YAXXZ    10049fa0 f   StudioModelRenderer.obj
 0001:00048fd0       ?InitHeadShield@@YAXXZ     10049fd0 f   StudioModelRenderer.obj
 0001:00048ff0       ?HeadShieldThink@@YAHXZ    10049ff0 f   StudioModelRenderer.obj
 0001:00049060       ?StudioDrawCustomEntity@CStudioModelRenderer@@QAEHPAUcl_entity_s@@HH@Z 1004a060 f   StudioModelRenderer.obj
 0001:00049230       ?__MsgFunc_TextMsg@@YAHPBDHPAX@Z 1004a230 f   text_message.obj
 0001:00049250       ?Init@CHudTextMessage@@UAEHXZ 1004a250 f   text_message.obj
 0001:00049280       ?LocaliseTextString@CHudTextMessage@@SAPADPBDPADH@Z 1004a280 f   text_message.obj
 0001:00049350       ?BufferedLocaliseTextString@CHudTextMessage@@SAPADPBD@Z 1004a350 f   text_message.obj
 0001:00049370       ?LookupString@CHudTextMessage@@QAEPADPBDPAH@Z 1004a370 f   text_message.obj
 0001:000493c0       ?StripEndNewlineFromString@@YAXPAD@Z 1004a3c0 f   text_message.obj
 0001:000493f0       ?ConvertCRtoNL@@YAPADPAD@Z 1004a3f0 f   text_message.obj
 0001:00049410       ?MsgFunc_TextMsg@CHudTextMessage@@QAEHPBDHPAX@Z 1004a410 f   text_message.obj
 0001:00049690       ?__MsgFunc_Train@@YAHPBDHPAX@Z 1004a690 f   train.obj
 0001:000496b0       ?Init@CHudTrain@@UAEHXZ    1004a6b0 f   train.obj
 0001:000496e0       ?VidInit@CHudTrain@@UAEHXZ 1004a6e0 f   train.obj
 0001:000496f0       ?Draw@CHudTrain@@UAEHM@Z   1004a6f0 f   train.obj
 0001:000497b0       ?MsgFunc_Train@CHudTrain@@QAEHPBDHPAX@Z 1004a7b0 f   train.obj
 0001:00049800       ?UseTexture@@YAHAAHPAD@Z   1004a800 f   tri.obj
 0001:00049860       ??0CShinySurface@@QAE@MMMMMMMPAD@Z 1004a860 f   tri.obj
 0001:000498c0       ??1CShinySurface@@QAE@XZ   1004a8c0 f   tri.obj
 0001:000498e0       ?DrawAll@CShinySurface@@QAEXABVVector@@@Z 1004a8e0 f   tri.obj
 0001:00049930       ?Draw@CShinySurface@@QAEXABVVector@@@Z 1004a930 f   tri.obj
 0001:00049ab0       ?BlackFog@@YAXXZ           1004aab0 f   tri.obj
 0001:00049b30       ?RenderFog@@YAXXZ          1004ab30 f   tri.obj
 0001:00049b80       ?OrthoQuad@@YAXHHHH@Z      1004ab80 f   tri.obj
 0001:00049c50       ?DrawSpriteAsPoly@@YAXHPAUrect_s@@0HMMMM@Z 1004ac50 f   tri.obj
 0001:00049df0       ?OrthoDraw@@YAXHHMMMM@Z    1004adf0 f   tri.obj
 0001:0004a070       ?OrthoGasMask@@YAXXZ       1004b070 f   tri.obj
 0001:0004a1c0       ?OrthoScope@@YAXXZ         1004b1c0 f   tri.obj
 0001:0004a310       ?DrawRain@@YAXXZ           1004b310 f   tri.obj
 0001:0004a730       ?DrawFXObjects@@YAXXZ      1004b730 f   tri.obj
 0001:0004a920       _HUD_DrawNormalTriangles   1004b920 f   tri.obj
 0001:0004a940       _HUD_DrawTransparentTriangles 1004b940 f   tri.obj
 0001:0004aa40       ?CalcViewMatrix@@YAXH@Z    1004ba40 f   triapiobjects.obj
 0001:0004aa90       ?SetPoint@@YAXMMMPAY03M@Z  1004ba90 f   triapiobjects.obj
 0001:0004aae0       ??0CObjectsManager@@QAE@XZ 1004bae0 f   triapiobjects.obj
 0001:0004aaf0       ??1CObjectsManager@@QAE@XZ 1004baf0 f   triapiobjects.obj
 0001:0004ab00       ?Reset@CObjectsManager@@QAEXXZ 1004bb00 f   triapiobjects.obj
 0001:0004ab30       ?AddObject@CObjectsManager@@QAEXPAVCObject@@@Z 1004bb30 f   triapiobjects.obj
 0001:0004ab50       ?Draw@CObjectsManager@@QAEXXZ 1004bb50 f   triapiobjects.obj
 0001:0004abe0       ?MakeUpRight@@YAXPBMPAM1@Z 1004bbe0 f   triapiobjects.obj
 0001:0004ac70       ??0CSmokePuff@@QAE@VVector@@0MMMMMMMMMM@Z 1004bc70 f   triapiobjects.obj
 0001:0004adf0       ??0puff_s@CSmokePuff@@QAE@XZ 1004bdf0 f i triapiobjects.obj
 0001:0004ae00       ?Draw@CSmokePuff@@UAEHMM@Z 1004be00 f   triapiobjects.obj
 0001:0004b000       ?Length@@YAMPBM@Z          1004c000 f   util.obj
 0001:0004b030       ?VectorAngles@@YAXPBMPAM@Z 1004c030 f   util.obj
 0001:0004b110       ?VectorNormalize@@YAMPAM@Z 1004c110 f   util.obj
 0001:0004b160       ?VectorInverse@@YAXPAM@Z   1004c160 f   util.obj
 0001:0004b180       ?VectorScale@@YAXPBMMPAM@Z 1004c180 f   util.obj
 0001:0004b1b0       ?VectorMA@@YAXPBMM0PAM@Z   1004c1b0 f   util.obj
 0001:0004b1f0       ?LoadSprite@@YAHPBD@Z      1004c1f0 f   util.obj
 0001:0004b240       ??0CCheckButton2@vgui@@QAE@XZ 1004c240 f   vgui_checkbutton2.obj
 0001:0004b330       ??1CCheckButton2@vgui@@QAE@XZ 1004c330 f   vgui_checkbutton2.obj
 0001:0004b350       ?SetImages@CCheckButton2@vgui@@QAEXPBD0@Z 1004c350 f   vgui_checkbutton2.obj
 0001:0004b390       ?SetImages@CCheckButton2@vgui@@QAEXPAVImage@2@0@Z 1004c390 f   vgui_checkbutton2.obj
 0001:0004b3c0       ?DeleteImages@CCheckButton2@vgui@@QAEXXZ 1004c3c0 f   vgui_checkbutton2.obj
 0001:0004b410       ?SetCheckboxLeft@CCheckButton2@vgui@@QAEX_N@Z 1004c410 f   vgui_checkbutton2.obj
 0001:0004b430       ?GetCheckboxLeft@CCheckButton2@vgui@@QAE_NXZ 1004c430 f   vgui_checkbutton2.obj
 0001:0004b440       ?SetText@CCheckButton2@vgui@@QAAXPBDZZ 1004c440 f   vgui_checkbutton2.obj
 0001:0004b4a0       ?SetTextColor@CCheckButton2@vgui@@QAEXHHHH@Z 1004c4a0 f   vgui_checkbutton2.obj
 0001:0004b4e0       ?SetHandler@CCheckButton2@vgui@@QAEXPAVICheckButton2Handler@2@@Z 1004c4e0 f   vgui_checkbutton2.obj
 0001:0004b4f0       ?IsChecked@CCheckButton2@vgui@@QAE_NXZ 1004c4f0 f   vgui_checkbutton2.obj
 0001:0004b500       ?SetChecked@CCheckButton2@vgui@@QAEX_N@Z 1004c500 f   vgui_checkbutton2.obj
 0001:0004b520       ?internalMousePressed@CCheckButton2@vgui@@UAEXW4MouseCode@2@@Z 1004c520 f   vgui_checkbutton2.obj
 0001:0004b550       ?SetupControls@CCheckButton2@vgui@@IAEXXZ 1004c550 f   vgui_checkbutton2.obj
 0001:0004b680       ?mousePressed@CCheckButton2@vgui@@MAEXW4MouseCode@2@PAVPanel@2@@Z 1004c680 f   vgui_checkbutton2.obj
 0001:0004b6a0       ??0CClassMenuPanel@@QAE@HHHHHH@Z 1004c6a0 f   vgui_ClassMenu.obj
 0001:0004c3e0       ?Update@CClassMenuPanel@@UAEXXZ 1004d3e0 f   vgui_ClassMenu.obj
 0001:0004c6f0       ?SlotInput@CClassMenuPanel@@UAE_NH@Z 1004d6f0 f   vgui_ClassMenu.obj
 0001:0004c770       ?Open@CClassMenuPanel@@UAEXXZ 1004d770 f   vgui_ClassMenu.obj
 0001:0004c7a0       ?Initialize@CClassMenuPanel@@UAEXXZ 1004d7a0 f   vgui_ClassMenu.obj
 0001:0004c7c0       ?SetActiveInfo@CClassMenuPanel@@UAEXH@Z 1004d7c0 f   vgui_ClassMenu.obj
 0001:0004c850       ?actionPerformed@CMenuHandler_StringCommand@@UAEXPAVPanel@vgui@@@Z 1004d850 f i vgui_ClassMenu.obj
 0001:0004c890       ?actionPerformed@CMenuHandler_TextWindow@@UAEXPAVPanel@vgui@@@Z 1004d890 f i vgui_ClassMenu.obj
 0001:0004c8d0       ?cursorMoved@CHandler_MenuButtonOver@@UAEXHHPAVPanel@vgui@@@Z 1004d8d0 f i vgui_ClassMenu.obj
 0001:0004c8e0       ?mousePressed@CHandler_MenuButtonOver@@UAEXW4MouseCode@vgui@@PAVPanel@3@@Z 1004d8e0 f i vgui_ClassMenu.obj
 0001:0004c8f0       ?mouseReleased@CHandler_MenuButtonOver@@UAEXW4MouseCode@vgui@@PAVPanel@3@@Z 1004d8f0 f i vgui_ClassMenu.obj
 0001:0004c900       ?mouseDoublePressed@CHandler_MenuButtonOver@@UAEXW4MouseCode@vgui@@PAVPanel@3@@Z 1004d900 f i vgui_ClassMenu.obj
 0001:0004c910       ?cursorExited@CHandler_MenuButtonOver@@UAEXPAVPanel@vgui@@@Z 1004d910 f i vgui_ClassMenu.obj
 0001:0004c920       ?mouseWheeled@CHandler_MenuButtonOver@@UAEXHPAVPanel@vgui@@@Z 1004d920 f i vgui_ClassMenu.obj
 0001:0004c930       ?keyPressed@CHandler_MenuButtonOver@@UAEXW4KeyCode@vgui@@PAVPanel@3@@Z 1004d930 f i vgui_ClassMenu.obj
 0001:0004c940       ?keyTyped@CHandler_MenuButtonOver@@UAEXW4KeyCode@vgui@@PAVPanel@3@@Z 1004d940 f i vgui_ClassMenu.obj
 0001:0004c950       ?keyReleased@CHandler_MenuButtonOver@@UAEXW4KeyCode@vgui@@PAVPanel@3@@Z 1004d950 f i vgui_ClassMenu.obj
 0001:0004c960       ?keyFocusTicked@CHandler_MenuButtonOver@@UAEXPAVPanel@vgui@@@Z 1004d960 f i vgui_ClassMenu.obj
 0001:0004c970       ?Reset@CClassMenuPanel@@UAEXXZ 1004d970 f i vgui_ClassMenu.obj
 0001:0004c990       ??0ConsolePanel@@QAE@HHHH@Z 1004d990 f   vgui_ConsolePanel.obj
 0001:0004cb10       ?actionPerformed@Handler@?%C:\Projects\paranoia_coop\code_src\cl_dll\vgui_ConsolePanel.cpp1293729146@@UAEXPAVPanel@vgui@@@Z 1004db10 f i vgui_ConsolePanel.obj
 0001:0004cb20       ?print@ConsolePanel@@UAEHPBD@Z 1004db20 f   vgui_ConsolePanel.obj
 0001:0004cb40       ?vprintf@ConsolePanel@@UAEHPBDPAD@Z 1004db40 f   vgui_ConsolePanel.obj
 0001:0004cb60       ?printf@ConsolePanel@@UAAHPBDZZ 1004db60 f   vgui_ConsolePanel.obj
 0001:0004cb80       ?doExecCommand@ConsolePanel@@UAEXXZ 1004db80 f   vgui_ConsolePanel.obj
 0001:0004cbd0       ?setSize@ConsolePanel@@UAEXHH@Z 1004dbd0 f   vgui_ConsolePanel.obj
 0001:0004cc40       ??0TextEntry@vgui@@QAE@ABV01@@Z 1004dc40 f i vgui_ConsolePanel.obj
 0001:0004cea0       ??4TextEntry@vgui@@QAEAAV01@ABV01@@Z 1004dea0 f i vgui_ConsolePanel.obj
 0001:0004d130       ??0EtchedBorder@vgui@@QAE@ABV01@@Z 1004e130 f i vgui_ConsolePanel.obj
 0001:0004d1a0       ??4EtchedBorder@vgui@@QAEAAV01@ABV01@@Z 1004e1a0 f i vgui_ConsolePanel.obj
 0001:0004d230       ??0LoweredBorder@vgui@@QAE@ABV01@@Z 1004e230 f i vgui_ConsolePanel.obj
 0001:0004d2a0       ??4LoweredBorder@vgui@@QAEAAV01@ABV01@@Z 1004e2a0 f i vgui_ConsolePanel.obj
 0001:0004d330       ??0ControlConfigPanel@@QAE@HHHH@Z 1004e330 f   vgui_ControlConfigPanel.obj
 0001:0004d920       ?getRowCount@FooTablePanel@?%C:\Projects\paranoia_coop\code_src\cl_dll\vgui_ControlConfigPanel.cpp3237314843@@UAEHXZ 1004e920 f i vgui_ControlConfigPanel.obj
 0001:0004d930       ?getCellTall@FooTablePanel@?%C:\Projects\paranoia_coop\code_src\cl_dll\vgui_ControlConfigPanel.cpp3237314843@@UAEHH@Z 1004e930 f i vgui_ControlConfigPanel.obj
 0001:0004d940       ?getCellRenderer@FooTablePanel@?%C:\Projects\paranoia_coop\code_src\cl_dll\vgui_ControlConfigPanel.cpp3237314843@@UAEPAVPanel@vgui@@HH_N00@Z 1004e940 f i vgui_ControlConfigPanel.obj
 0001:0004db00       ?startCellEditing@FooTablePanel@?%C:\Projects\paranoia_coop\code_src\cl_dll\vgui_ControlConfigPanel.cpp3237314843@@UAEPAVPanel@vgui@@HH@Z 1004eb00 f i vgui_ControlConfigPanel.obj
 0001:0004db50       ?AddCVar@ControlConfigPanel@@QAEXPBD0@Z 1004eb50 f   vgui_ControlConfigPanel.obj
 0001:0004dcf0       ?GetCVarCount@ControlConfigPanel@@QAEHXZ 1004ecf0 f   vgui_ControlConfigPanel.obj
 0001:0004dd00       ?GetCVar@ControlConfigPanel@@QAEXHPADH0H@Z 1004ed00 f   vgui_ControlConfigPanel.obj
 0001:0004dd70       ?AddCVarFromInputStream@ControlConfigPanel@@QAEXPAVInputStream@vgui@@@Z 1004ed70 f   vgui_ControlConfigPanel.obj
 0001:0004de00       ?GetCVarBind@ControlConfigPanel@@QAEXPBDPADH1H@Z 1004ee00 f   vgui_ControlConfigPanel.obj
 0001:0004de30       ?SetCVarBind@ControlConfigPanel@@QAEXPBD00@Z 1004ee30 f   vgui_ControlConfigPanel.obj
 0001:0004de40       ??0DataInputStream@vgui@@QAE@ABV01@@Z 1004ee40 f i vgui_ControlConfigPanel.obj
 0001:0004de90       ??4DataInputStream@vgui@@QAEAAV01@ABV01@@Z 1004ee90 f i vgui_ControlConfigPanel.obj
 0001:0004dea0       ?seekStart@DataInputStream@vgui@@$4PPPPPPPM@A@AEXAA_N@Z 1004eea0 f i vgui_ControlConfigPanel.obj
 0001:0004deb0       ?seekRelative@DataInputStream@vgui@@$4PPPPPPPM@A@AEXHAA_N@Z 1004eeb0 f i vgui_ControlConfigPanel.obj
 0001:0004dec0       ?seekEnd@DataInputStream@vgui@@$4PPPPPPPM@A@AEXAA_N@Z 1004eec0 f i vgui_ControlConfigPanel.obj
 0001:0004ded0       ?getAvailable@DataInputStream@vgui@@$4PPPPPPPM@A@AEHAA_N@Z 1004eed0 f i vgui_ControlConfigPanel.obj
 0001:0004dee0       ?readUChar@DataInputStream@vgui@@$4PPPPPPPM@A@AEXPAEHAA_N@Z 1004eee0 f i vgui_ControlConfigPanel.obj
 0001:0004def0       ?readUChar@DataInputStream@vgui@@$4PPPPPPPM@A@AEEAA_N@Z 1004eef0 f i vgui_ControlConfigPanel.obj
 0001:0004df00       ?close@DataInputStream@vgui@@$4PPPPPPPM@A@AEXAA_N@Z 1004ef00 f i vgui_ControlConfigPanel.obj
 0001:0004df10       ?GetTGANameForRes@@YAPADPBD@Z 1004ef10 f   vgui_CustomObjects.obj
 0001:0004df70       ?LoadTGAForRes@@YAPAVBitmapTGA@vgui@@PBD@Z 1004ef70 f   vgui_CustomObjects.obj
 0001:0004dfb0       ??0CommandButton@@QAE@PBDHHHH_N@Z 1004efb0 f   vgui_CustomObjects.obj
 0001:0004e010       ??0CommandButton@@QAE@HPBDHHHH_N@Z 1004f010 f   vgui_CustomObjects.obj
 0001:0004e070       ??0CommandButton@@QAE@PBDHHHH_N1@Z 1004f070 f   vgui_CustomObjects.obj
 0001:0004e0d0       ?Init@CommandButton@@QAEXXZ 1004f0d0 f   vgui_CustomObjects.obj
 0001:0004e150       ?RecalculateText@CommandButton@@AAEXXZ 1004f150 f   vgui_CustomObjects.obj
 0001:0004e1f0       ?setText@CommandButton@@UAEXPBD@Z 1004f1f0 f   vgui_CustomObjects.obj
 0001:0004e220       ?setBoundKey@CommandButton@@QAEXD@Z 1004f220 f   vgui_CustomObjects.obj
 0001:0004e240       ?getBoundKey@CommandButton@@QAEDXZ 1004f240 f   vgui_CustomObjects.obj
 0001:0004e250       ?AddSubMenu@CommandButton@@QAEXPAVCCommandMenu@@@Z 1004f250 f   vgui_CustomObjects.obj
 0001:0004e270       ?UpdateSubMenus@CommandButton@@QAEXH@Z 1004f270 f   vgui_CustomObjects.obj
 0001:0004e290       ?paint@CommandButton@@UAEXXZ 1004f290 f   vgui_CustomObjects.obj
 0001:0004e310       ?paintBackground@CommandButton@@UAEXXZ 1004f310 f   vgui_CustomObjects.obj
 0001:0004e3a0       ?cursorEntered@CommandButton@@QAEXXZ 1004f3a0 f   vgui_CustomObjects.obj
 0001:0004e3e0       ?cursorExited@CommandButton@@QAEXXZ 1004f3e0 f   vgui_CustomObjects.obj
 0001:0004e410       ?getParentMenu@CommandButton@@QAEPAVCCommandMenu@@XZ 1004f410 f   vgui_CustomObjects.obj
 0001:0004e420       ?setParentMenu@CommandButton@@QAEXPAVCCommandMenu@@@Z 1004f420 f   vgui_CustomObjects.obj
 0001:0004e430       ?IsNotValid@ClassButton@@UAEHXZ 1004f430 f   vgui_CustomObjects.obj
 0001:0004e4d0       ??0CImageLabel@@QAE@PBDHH@Z 1004f4d0 f   vgui_CustomObjects.obj
 0001:0004e520       ??0CImageLabel@@QAE@PBDHHHH@Z 1004f520 f   vgui_CustomObjects.obj
 0001:0004e580       ?getImageWide@CImageLabel@@UAEHXZ 1004f580 f   vgui_CustomObjects.obj
 0001:0004e5b0       ?getImageTall@CImageLabel@@UAEHXZ 1004f5b0 f   vgui_CustomObjects.obj
 0001:0004e5e0       ?LoadImage@CImageLabel@@QAEXPBD@Z 1004f5e0 f   vgui_CustomObjects.obj
 0001:0004e750       ?paintBackground@CCommandMenu@@UAEXXZ 1004f750 f   vgui_CustomObjects.obj
 0001:0004e7a0       ??0CTFScrollButton@@QAE@HPBDHHHH@Z 1004f7a0 f   vgui_CustomObjects.obj
 0001:0004e830       ?paint@CTFScrollButton@@UAEXXZ 1004f830 f   vgui_CustomObjects.obj
 0001:0004e8a0       ?paintBackground@CTFScrollButton@@UAEXXZ 1004f8a0 f   vgui_CustomObjects.obj
 0001:0004e8b0       ?paintBackground@CTFSlider@@UAEXXZ 1004f8b0 f   vgui_CustomObjects.obj
 0001:0004e9c0       ??0CTFScrollPanel@@QAE@HHHH@Z 1004f9c0 f   vgui_CustomObjects.obj
 0001:0004ec40       ?cursorEntered@CHandler_MenuButtonOver@@UAEXPAVPanel@vgui@@@Z 1004fc40 f   vgui_CustomObjects.obj
 0001:0004ec70       ?actionPerformed@CMenuHandler_StringCommandClassSelect@@UAEXPAVPanel@vgui@@@Z 1004fc70 f   vgui_CustomObjects.obj
 0001:0004ecd0       ?paintBackground@CImageLabel@@UAEXXZ 1004fcd0 f i vgui_CustomObjects.obj
 0001:0004ece0       ?IsNotValid@CommandButton@@UAEHXZ 1004fce0 f i vgui_CustomObjects.obj
 0001:0004ecf0       ?mousePressed@CHandler_ButtonHighlight@@UAEXW4MouseCode@vgui@@PAVPanel@3@@Z 1004fcf0 f i vgui_CustomObjects.obj
 0001:0004ed00       ?mouseReleased@CHandler_ButtonHighlight@@UAEXW4MouseCode@vgui@@PAVPanel@3@@Z 1004fd00 f i vgui_CustomObjects.obj
 0001:0004ed10       ?cursorMoved@CHandler_ButtonHighlight@@UAEXHHPAVPanel@vgui@@@Z 1004fd10 f i vgui_CustomObjects.obj
 0001:0004ed20       ?mouseDoublePressed@CHandler_ButtonHighlight@@UAEXW4MouseCode@vgui@@PAVPanel@3@@Z 1004fd20 f i vgui_CustomObjects.obj
 0001:0004ed30       ?mouseWheeled@CHandler_ButtonHighlight@@UAEXHPAVPanel@vgui@@@Z 1004fd30 f i vgui_CustomObjects.obj
 0001:0004ed40       ?keyPressed@CHandler_ButtonHighlight@@UAEXW4KeyCode@vgui@@PAVPanel@3@@Z 1004fd40 f i vgui_CustomObjects.obj
 0001:0004ed50       ?keyTyped@CHandler_ButtonHighlight@@UAEXW4KeyCode@vgui@@PAVPanel@3@@Z 1004fd50 f i vgui_CustomObjects.obj
 0001:0004ed60       ?keyReleased@CHandler_ButtonHighlight@@UAEXW4KeyCode@vgui@@PAVPanel@3@@Z 1004fd60 f i vgui_CustomObjects.obj
 0001:0004ed70       ?keyFocusTicked@CHandler_ButtonHighlight@@UAEXPAVPanel@vgui@@@Z 1004fd70 f i vgui_CustomObjects.obj
 0001:0004ed80       ?cursorEntered@CHandler_CommandButtonHighlight@@UAEXPAVPanel@vgui@@@Z 1004fd80 f i vgui_CustomObjects.obj
 0001:0004ed90       ?cursorExited@CHandler_CommandButtonHighlight@@UAEXPAVPanel@vgui@@@Z 1004fd90 f i vgui_CustomObjects.obj
 0001:0004eda0       ??0CGammaView@@QAE@XZ      1004fda0 f   vgui_gamma.obj
 0001:0004ee60       ??1CGammaView@@QAE@XZ      1004fe60 f   vgui_gamma.obj
 0001:0004ee70       ?paint@CGammaView@@MAEXXZ  1004fe70 f   vgui_gamma.obj
 0001:0004efd0       ?GraphEnable@@YAXXZ        1004ffd0 f   vgui_gamma.obj
 0001:0004eff0       ?GraphDisable@@YAXXZ       1004fff0 f   vgui_gamma.obj
 0001:0004f010       ?GammaGraphInit@@YAXXZ     10050010 f   vgui_gamma.obj
 0001:0004f040       ??0CGridEntry@CGrid@vgui@@QAE@XZ 10050040 f   vgui_grid.obj
 0001:0004f050       ??1CGridEntry@CGrid@vgui@@QAE@XZ 10050050 f   vgui_grid.obj
 0001:0004f060       ??0CGrid@vgui@@QAE@XZ      10050060 f   vgui_grid.obj
 0001:0004f080       ??_ECGrid@vgui@@UAEPAXI@Z  10050080 f i vgui_grid.obj
 0001:0004f080       ??_GCGrid@vgui@@UAEPAXI@Z  10050080 f i vgui_grid.obj
 0001:0004f0a0       ??1CGrid@vgui@@UAE@XZ      100500a0 f   vgui_grid.obj
 0001:0004f0b0       ?SetDimensions@CGrid@vgui@@QAE_NHH@Z 100500b0 f   vgui_grid.obj
 0001:0004f1c0       ??_ECGridEntry@CGrid@vgui@@QAEPAXI@Z 100501c0 f i vgui_grid.obj
 0001:0004f220       ?Term@CGrid@vgui@@QAEXXZ   10050220 f   vgui_grid.obj
 0001:0004f270       ?GetEntry@CGrid@vgui@@QAEPAVPanel@2@HH@Z 10050270 f   vgui_grid.obj
 0001:0004f290       ?SetEntry@CGrid@vgui@@QAE_NHHPAVPanel@2@@Z 10050290 f   vgui_grid.obj
 0001:0004f2e0       ?GetXSpacing@CGrid@vgui@@QAEHXZ 100502e0 f   vgui_grid.obj
 0001:0004f2f0       ?GetYSpacing@CGrid@vgui@@QAEHXZ 100502f0 f   vgui_grid.obj
 0001:0004f300       ?SetSpacing@CGrid@vgui@@QAEXHH@Z 10050300 f   vgui_grid.obj
 0001:0004f350       ?SetColumnWidth@CGrid@vgui@@QAE_NHH@Z 10050350 f   vgui_grid.obj
 0001:0004f390       ?SetRowHeight@CGrid@vgui@@QAE_NHH@Z 10050390 f   vgui_grid.obj
 0001:0004f3d0       ?GetColumnWidth@CGrid@vgui@@QAEHH@Z 100503d0 f   vgui_grid.obj
 0001:0004f400       ?GetRowHeight@CGrid@vgui@@QAEHH@Z 10050400 f   vgui_grid.obj
 0001:0004f430       ?CalcFitColumnWidth@CGrid@vgui@@QAEHH@Z 10050430 f   vgui_grid.obj
 0001:0004f4a0       ?CalcFitRowHeight@CGrid@vgui@@QAEHH@Z 100504a0 f   vgui_grid.obj
 0001:0004f510       ?AutoSetRowHeights@CGrid@vgui@@QAEXXZ 10050510 f   vgui_grid.obj
 0001:0004f540       ?GetEntryBox@CGrid@vgui@@QAE_NHHAAH000@Z 10050540 f   vgui_grid.obj
 0001:0004f5b0       ?CopyColumnWidths@CGrid@vgui@@QAE_NPAV12@@Z 100505b0 f   vgui_grid.obj
 0001:0004f610       ?RepositionContents@CGrid@vgui@@QAEXXZ 10050610 f   vgui_grid.obj
 0001:0004f6a0       ?CalcDrawHeight@CGrid@vgui@@QAEHXZ 100506a0 f   vgui_grid.obj
 0001:0004f6d0       ?paint@CGrid@vgui@@UAEXXZ  100506d0 f   vgui_grid.obj
 0001:0004f780       ?paintBackground@CGrid@vgui@@UAEXXZ 10050780 f   vgui_grid.obj
 0001:0004f790       ?SetRowUnderline@CGrid@vgui@@QAEXH_NHHHHH@Z 10050790 f   vgui_grid.obj
 0001:0004f7e0       ?Clear@CGrid@vgui@@IAEXXZ  100507e0 f   vgui_grid.obj
 0001:0004f810       ?GridEntry@CGrid@vgui@@IAEPAVCGridEntry@12@HH@Z 10050810 f   vgui_grid.obj
 0001:0004f860       ?CalcColOffsets@CGrid@vgui@@IAEXH@Z 10050860 f   vgui_grid.obj
 0001:0004f8c0       ?CalcRowOffsets@CGrid@vgui@@IAEXH@Z 100508c0 f   vgui_grid.obj
 0001:0004f910       ?getCellAtPoint@CGrid@vgui@@QAE_NHHAAH0@Z 10050910 f   vgui_grid.obj
 0001:0004f9a0       ?AlignPanel@@YAXPAVPanel@vgui@@0H@Z 100509a0 f   vgui_helpers.obj
 0001:0004fab0       ?__MsgFunc_CanUse@@YAHPBDHPAX@Z 10050ab0 f   vgui_hud.obj
 0001:0004fae0       ?CanUseInit@@YAXXZ         10050ae0 f   vgui_hud.obj
 0001:0004fb00       ?LoadResolutionImage@@YAPAVBitmapTGA@vgui@@PBD@Z 10050b00 f   vgui_hud.obj
 0001:0004fb80       ?ShouldDrawHUD@@YAHXZ      10050b80 f   vgui_hud.obj
 0001:0004fbc0       ?Hud2Init@@YAXXZ           10050bc0 f   vgui_hud.obj
 0001:0004fbd0       ?Initialize@CHud2@@QAEXXZ  10050bd0 f   vgui_hud.obj
 0001:0004fbf0       ??0CHud2@@QAE@XZ           10050bf0 f   vgui_hud.obj
 0001:00050890       ?paint@ImageHolder@@MAEXXZ 10051890 f i vgui_hud.obj
 0001:000508b0       ?paint@ShadowLabel@@MAEXXZ 100518b0 f i vgui_hud.obj
 0001:00050990       ??1CHud2@@QAE@XZ           10051990 f   vgui_hud.obj
 0001:000509c0       ?paintBackground@CHud2@@MAEXXZ 100519c0 f   vgui_hud.obj
 0001:000509d0       ?solve@CHud2@@UAEXXZ       100519d0 f   vgui_hud.obj
 0001:000512e0       ?GetBitmap@ImageHolder@@QAEPAVBitmapTGA@vgui@@XZ 100522e0 f i vgui_hud.obj
 0001:000512f0       ?paint@CHud2@@MAEXXZ       100522f0 f   vgui_hud.obj
 0001:000518f0       ?FindAmmoImageForWeapon@CHud2@@IAEPAVBitmapTGA@vgui@@PBD@Z 100528f0 f   vgui_hud.obj
 0001:00051960       ?UpdateHealth@CHud2@@QAEXH@Z 10052960 f   vgui_hud.obj
 0001:000519b0       ?UpdateArmor@CHud2@@QAEXH@Z 100529b0 f   vgui_hud.obj
 0001:00051a00       _VGui_ViewportPaintBackground 10052a00 f   vgui_int.obj
 0001:00051a10       ?VGui_GetPanel@@YAPAXXZ    10052a10 f   vgui_int.obj
 0001:00051a20       _VGui_Startup              10052a20 f   vgui_int.obj
 0001:00051ad0       _VGui_Shutdown             10052ad0 f   vgui_int.obj
 0001:00051b00       ??1TeamFortressViewport@@QAE@XZ 10052b00 f i vgui_int.obj
 0001:00051b10       ??0Layout@vgui@@QAE@ABV01@@Z 10052b10 f i vgui_int.obj
 0001:00051b20       ??4Layout@vgui@@QAEAAV01@ABV01@@Z 10052b20 f i vgui_int.obj
 0001:00051b30       ??0BorderLayout@vgui@@QAE@ABV01@@Z 10052b30 f i vgui_int.obj
 0001:00051b50       ??4BorderLayout@vgui@@QAEAAV01@ABV01@@Z 10052b50 f i vgui_int.obj
 0001:00051b60       ??0SurfaceBase@vgui@@QAE@ABV01@@Z 10052b60 f i vgui_int.obj
 0001:00051bb0       ??4SurfaceBase@vgui@@QAEAAV01@ABV01@@Z 10052bb0 f i vgui_int.obj
 0001:00051c00       ??0CListBox@vgui@@QAE@XZ   10052c00 f   vgui_listbox.obj
 0001:00051d00       ??1CListBox@vgui@@QAE@XZ   10052d00 f   vgui_listbox.obj
 0001:00051d10       ?Init@CListBox@vgui@@QAEXXZ 10052d10 f   vgui_listbox.obj
 0001:00051d20       ?Term@CListBox@vgui@@QAEXXZ 10052d20 f   vgui_listbox.obj
 0001:00051d80       ?AddItem@CListBox@vgui@@QAEXPAVPanel@2@@Z 10052d80 f   vgui_listbox.obj
 0001:00051e20       ?GetNumItems@CListBox@vgui@@QAEHXZ 10052e20 f   vgui_listbox.obj
 0001:00051e40       ?GetItemWidth@CListBox@vgui@@QAEHXZ 10052e40 f   vgui_listbox.obj
 0001:00051e70       ?GetScrollPos@CListBox@vgui@@QAEHXZ 10052e70 f   vgui_listbox.obj
 0001:00051e80       ?SetScrollPos@CListBox@vgui@@QAEXH@Z 10052e80 f   vgui_listbox.obj
 0001:00051ec0       ?setPos@CListBox@vgui@@UAEXHH@Z 10052ec0 f   vgui_listbox.obj
 0001:00051ee0       ?setSize@CListBox@vgui@@UAEXHH@Z 10052ee0 f   vgui_listbox.obj
 0001:00051f00       ?setPixelScroll@CListBox@vgui@@UAEXH@Z 10052f00 f   vgui_listbox.obj
 0001:00051f30       ?InternalLayout@CListBox@vgui@@IAEXXZ 10052f30 f   vgui_listbox.obj
 0001:00052060       ?paintBackground@CListBox@vgui@@UAEXXZ 10053060 f   vgui_listbox.obj
 0001:00052070       ?SetScrollRange@CListBox@vgui@@QAEXH@Z 10053070 f   vgui_listbox.obj
 0001:000520a0       ?GetScrollMax@CListBox@vgui@@QAEHXZ 100530a0 f   vgui_listbox.obj
 0001:000520c0       ?intChanged@ListBoxSignal@CListBox@vgui@@UAEXHPAVPanel@3@@Z 100530c0 f i vgui_listbox.obj
 0001:000520e0       ?vgui_LoadTGA@@YAPAVBitmapTGA@vgui@@PBD@Z 100530e0 f   vgui_loadtga.obj
 0001:00052190       ?seekStart@MemoryInputStream@@UAEXAA_N@Z 10053190 f i vgui_loadtga.obj
 0001:000521b0       ?seekRelative@MemoryInputStream@@UAEXHAA_N@Z 100531b0 f i vgui_loadtga.obj
 0001:000521d0       ?seekEnd@MemoryInputStream@@UAEXAA_N@Z 100531d0 f i vgui_loadtga.obj
 0001:000521e0       ?getAvailable@MemoryInputStream@@UAEHAA_N@Z 100531e0 f i vgui_loadtga.obj
 0001:000521f0       ?readUChar@MemoryInputStream@@UAEEAA_N@Z 100531f0 f i vgui_loadtga.obj
 0001:00052220       ?readUChar@MemoryInputStream@@UAEXPAEHAA_N@Z 10053220 f i vgui_loadtga.obj
 0001:00052250       ?close@MemoryInputStream@@UAEXAA_N@Z 10053250 f i vgui_loadtga.obj
 0001:00052260       ?vgui_LoadTGANoInvertAlpha@@YAPAVBitmapTGA@vgui@@PBD@Z 10053260 f   vgui_loadtga.obj
 0001:00052310       ?CMessageWindowPanel_Create@@YAPAVCMenuPanel@@PBD0HHHHHH@Z 10053310 f   vgui_MOTDWindow.obj
 0001:000523a0       ??0CMessageWindowPanel@@QAE@PBD0HHHHHH@Z 100533a0 f   vgui_MOTDWindow.obj
 0001:00052aa0       ??0StackLayout@vgui@@QAE@ABV01@@Z 10053aa0 f i vgui_MOTDWindow.obj
 0001:00052ad0       ??4StackLayout@vgui@@QAEAAV01@ABV01@@Z 10053ad0 f i vgui_MOTDWindow.obj
 0001:00052af0       ?FindNextTag@@YAHAAPAD@Z   10053af0 f   vgui_paranoiatext.obj
 0001:00052b30       ?GetTagName@@YAHAAPADPAD@Z 10053b30 f   vgui_paranoiatext.obj
 0001:00052bb0       ?GetTagParameter@@YAHAAPADPAD1@Z 10053bb0 f   vgui_paranoiatext.obj
 0001:00052cd0       ?ParseColor@@YAXPADAAH111@Z 10053cd0 f   vgui_paranoiatext.obj
 0001:00052da0       ?BuildErrorPanel@CParanoiaTextPanel@@AAEXPBD@Z 10053da0 f   vgui_paranoiatext.obj
 0001:000530f0       ??0CParanoiaTextPanel@@QAE@PAD@Z 100540f0 f   vgui_paranoiatext.obj
 0001:000550c0       ?Render@CMainPanel@@UAEXXZ 100560c0 f i vgui_paranoiatext.obj
 0001:000552e0       ?paint@CMainPanel@@UAEXXZ  100562e0 f i vgui_paranoiatext.obj
 0001:00055440       ?Render@CMyButton@@UAEXXZ  10056440 f i vgui_paranoiatext.obj
 0001:00055540       ?paintBackground@CMyButton@@UAEXXZ 10056540 f i vgui_paranoiatext.obj
 0001:000556a0       ?internalCursorExited@CMyButton@@UAEXXZ 100566a0 f i vgui_paranoiatext.obj
 0001:000556b0       ?paintBackground@CMySlider@@UAEXXZ 100566b0 f i vgui_paranoiatext.obj
 0001:000557e0       ?paintBackground@CMyScrollbutton@@UAEXXZ 100567e0 f i vgui_paranoiatext.obj
 0001:00055940       ?internalCursorExited@CMyScrollbutton@@UAEXXZ 10056940 f i vgui_paranoiatext.obj
 0001:00055950       ?Render@CMyScrollPanel@@UAEXXZ 10056950 f i vgui_paranoiatext.obj
 0001:00055a30       ?paint@CParanoiaTextPanel@@UAEXXZ 10056a30 f   vgui_paranoiatext.obj
 0001:00055b40       ?actionPerformed@CParanoiaTextPanel@@UAEXPAVPanel@vgui@@@Z 10056b40 f   vgui_paranoiatext.obj
 0001:00055b50       ?KeyInput@CParanoiaTextPanel@@QAEHHHPBD@Z 10056b50 f   vgui_paranoiatext.obj
 0001:00055ea0       ?CloseWindow@CParanoiaTextPanel@@AAEXXZ 10056ea0 f   vgui_paranoiatext.obj
 0001:00055ec0       ?ResetBackground@CParanoiaTextPanel@@QAEXXZ 10056ec0 f   vgui_paranoiatext.obj
 0001:00055ee0       ?AddToRenderList@CParanoiaTextPanel@@AAEXPAVCRenderable@@@Z 10056ee0 f   vgui_paranoiatext.obj
 0001:00055f20       ?OrthoVGUI@@YAXXZ          10056f20 f   vgui_paranoiatext.obj
 0001:00055f80       ?MsgShowRadioIcon@@YAHPBDHPAX@Z 10056f80 f   vgui_radio.obj
 0001:00055ff0       ?RadioIconInit@@YAXXZ      10056ff0 f   vgui_radio.obj
 0001:00056010       ?Initialize@CRadioIcon@@QAEXXZ 10057010 f   vgui_radio.obj
 0001:00056040       ??0CRadioIcon@@QAE@XZ      10057040 f   vgui_radio.obj
 0001:00056170       ??1CRadioIcon@@QAE@XZ      10057170 f   vgui_radio.obj
 0001:00056190       ?Reposition@CRadioIcon@@IAEXXZ 10057190 f   vgui_radio.obj
 0001:00056290       ?Show@CRadioIcon@@QAEXPBDMHHHH@Z 10057290 f   vgui_radio.obj
 0001:000563f0       ?paintBackground@CRadioIcon@@MAEXXZ 100573f0 f   vgui_radio.obj
 0001:000566c0       ?Scheme_Init@@YAXXZ        100576c0 f   vgui_SchemeManager.obj
 0001:000566d0       ??0CSchemeManager@@QAE@HH@Z 100576d0 f   vgui_SchemeManager.obj
 0001:00056700       ??_GCSchemeManager@@UAEPAXI@Z 10057700 f i vgui_SchemeManager.obj
 0001:00056700       ??_ECSchemeManager@@UAEPAXI@Z 10057700 f i vgui_SchemeManager.obj
 0001:00056720       ?LoadScheme@CSchemeManager@@AAEHPBD@Z 10057720 f   vgui_SchemeManager.obj
 0001:00056a90       ?getCharABCwide@CConstFont@@UAEXHAAH00@Z 10057a90 f i vgui_SchemeManager.obj
 0001:00056ab0       ?getCharABCwide@CWidthFont@@UAEXHAAH00@Z 10057ab0 f i vgui_SchemeManager.obj
 0001:00056af0       ??1CSchemeManager@@UAE@XZ  10057af0 f   vgui_SchemeManager.obj
 0001:00056b20       ?getSchemeHandle@CSchemeManager@@QAEHPBD@Z 10057b20 f   vgui_SchemeManager.obj
 0001:00056b70       ?getSafeScheme@CSchemeManager@@AAEPAVCScheme@1@H@Z 10057b70 f   vgui_SchemeManager.obj
 0001:00056b90       ?getFont@CSchemeManager@@QAEPAVFont@vgui@@H@Z 10057b90 f   vgui_SchemeManager.obj
 0001:00056ba0       ?getFgColor@CSchemeManager@@QAEXHAAH000@Z 10057ba0 f   vgui_SchemeManager.obj
 0001:00056bd0       ?getBgColor@CSchemeManager@@QAEXHAAH000@Z 10057bd0 f   vgui_SchemeManager.obj
 0001:00056c00       ?getFgArmedColor@CSchemeManager@@QAEXHAAH000@Z 10057c00 f   vgui_SchemeManager.obj
 0001:00056c30       ?getBgArmedColor@CSchemeManager@@QAEXHAAH000@Z 10057c30 f   vgui_SchemeManager.obj
 0001:00056c60       ?getFgMousedownColor@CSchemeManager@@QAEXHAAH000@Z 10057c60 f   vgui_SchemeManager.obj
 0001:00056c90       ?getBgMousedownColor@CSchemeManager@@QAEXHAAH000@Z 10057c90 f   vgui_SchemeManager.obj
 0001:00056cc0       ?getBorderColor@CSchemeManager@@QAEXHAAH000@Z 10057cc0 f   vgui_SchemeManager.obj
 0001:00056cf0       ??0CScheme@CSchemeManager@@QAE@XZ 10057cf0 f i vgui_SchemeManager.obj
 0001:00056d00       ??1CScheme@CSchemeManager@@QAE@XZ 10057d00 f i vgui_SchemeManager.obj
 0001:00056d10       ?internalMousePressed@HitTestPanel@ScorePanel@@UAEXW4MouseCode@vgui@@@Z 10057d10 f   vgui_ScorePanel.obj
 0001:00056d50       ??0ScorePanel@@QAE@HHHH@Z  10057d50 f   vgui_ScorePanel.obj
 0001:000575d0       ?Initialize@ScorePanel@@QAEXXZ 100585d0 f   vgui_ScorePanel.obj
 0001:00057610       ?HACK_GetPlayerUniqueID@@YA_NHQAD@Z 10058610 f   vgui_ScorePanel.obj
 0001:00057630       ?Update@ScorePanel@@QAEXXZ 10058630 f   vgui_ScorePanel.obj
 0001:000576f0       ?SortTeams@ScorePanel@@QAEXXZ 100586f0 f   vgui_ScorePanel.obj
 0001:00057920       ?SortPlayers@ScorePanel@@QAEXHPAD@Z 10058920 f   vgui_ScorePanel.obj
 0001:00057a50       ?RebuildTeams@ScorePanel@@QAEXXZ 10058a50 f   vgui_ScorePanel.obj
 0001:00057ba0       ?FillGrid@ScorePanel@@QAEXXZ 10058ba0 f   vgui_ScorePanel.obj
 0001:000584c0       ?DeathMsg@ScorePanel@@QAEXHH@Z 100594c0 f   vgui_ScorePanel.obj
 0001:00058520       ?Open@ScorePanel@@QAEXXZ   10059520 f   vgui_ScorePanel.obj
 0001:00058550       ?mousePressed@ScorePanel@@UAEXW4MouseCode@vgui@@PAVPanel@3@@Z 10059550 f   vgui_ScorePanel.obj
 0001:000586e0       ?cursorMoved@ScorePanel@@UAEXHHPAVPanel@vgui@@@Z 100596e0 f   vgui_ScorePanel.obj
 0001:00058760       ?MouseOverCell@ScorePanel@@QAEXHH@Z 10059760 f   vgui_ScorePanel.obj
 0001:00058800       ?paintBackground@CLabelHeader@@UAEXXZ 10059800 f   vgui_ScorePanel.obj
 0001:00058880       ?paint@CLabelHeader@@UAEXXZ 10059880 f   vgui_ScorePanel.obj
 0001:00058a50       ?calcAlignment@CLabelHeader@@QAEXHHAAH0@Z 10059a50 f   vgui_ScorePanel.obj
 0001:00058b60       ?actionPerformed@CMenuHandler_StringCommandWatch@@UAEXPAVPanel@vgui@@@Z 10059b60 f i vgui_ScorePanel.obj
 0001:00058cb0       ??0CLabelHeader@@QAE@XZ    10059cb0 f i vgui_ScorePanel.obj
 0001:00058dd0       ?getSize@CTextImage2@@UAEXAAH0@Z 10059dd0 f i vgui_ScorePanel.obj
 0001:00058e40       ?doPaint@CTextImage2@@UAEXPAVPanel@vgui@@@Z 10059e40 f i vgui_ScorePanel.obj
 0001:00058e60       ?setPos@CTextImage2@@UAEXHH@Z 10059e60 f i vgui_ScorePanel.obj
 0001:00058ed0       ?setColor@CTextImage2@@UAEXVColor@vgui@@@Z 10059ed0 f i vgui_ScorePanel.obj
 0001:00058f00       ?setColor2@CTextImage2@@QAEXVColor@vgui@@@Z 10059f00 f i vgui_ScorePanel.obj
 0001:00058f30       ??1CLabelHeader@@QAE@XZ    10059f30 f i vgui_ScorePanel.obj
 0001:00058f70       ?setText@CLabelHeader@@UAEXHPBD@Z 10059f70 f i vgui_ScorePanel.obj
 0001:00059020       ?setText@CLabelHeader@@UAEXPBD@Z 1005a020 f i vgui_ScorePanel.obj
 0001:00059130       ?getTextSize@CLabelHeader@@UAEXAAH0@Z 1005a130 f i vgui_ScorePanel.obj
 0001:00059150       ?setFgColor@CLabelHeader@@UAEXHHHH@Z 1005a150 f i vgui_ScorePanel.obj
 0001:000591e0       ?setFgColor@CLabelHeader@@UAEXW4SchemeColor@Scheme@vgui@@@Z 1005a1e0 f i vgui_ScorePanel.obj
 0001:00059230       ?setFont@CLabelHeader@@UAEXPAVFont@vgui@@@Z 1005a230 f i vgui_ScorePanel.obj
 0001:00059250       ??0ServerBrowser@@QAE@HHHH@Z 1005a250 f   vgui_ServerBrowser.obj
 0001:00059b60       ?cursorMoved@CBrowser_InputSignal@?%C:\Projects\paranoia_coop\code_src\cl_dll\vgui_ServerBrowser.cpp197032196@@UAEXHHPAVPanel@vgui@@@Z 1005ab60 f i vgui_ServerBrowser.obj
 0001:00059b70       ?cursorEntered@CBrowser_InputSignal@?%C:\Projects\paranoia_coop\code_src\cl_dll\vgui_ServerBrowser.cpp197032196@@UAEXPAVPanel@vgui@@@Z 1005ab70 f i vgui_ServerBrowser.obj
 0001:00059b80       ?cursorExited@CBrowser_InputSignal@?%C:\Projects\paranoia_coop\code_src\cl_dll\vgui_ServerBrowser.cpp197032196@@UAEXPAVPanel@vgui@@@Z 1005ab80 f i vgui_ServerBrowser.obj
 0001:00059b90       ?mouseReleased@CBrowser_InputSignal@?%C:\Projects\paranoia_coop\code_src\cl_dll\vgui_ServerBrowser.cpp197032196@@UAEXW4MouseCode@vgui@@PAVPanel@4@@Z 1005ab90 f i vgui_ServerBrowser.obj
 0001:00059ba0       ?mouseWheeled@CBrowser_InputSignal@?%C:\Projects\paranoia_coop\code_src\cl_dll\vgui_ServerBrowser.cpp197032196@@UAEXHPAVPanel@vgui@@@Z 1005aba0 f i vgui_ServerBrowser.obj
 0001:00059bb0       ?keyPressed@CBrowser_InputSignal@?%C:\Projects\paranoia_coop\code_src\cl_dll\vgui_ServerBrowser.cpp197032196@@UAEXW4KeyCode@vgui@@PAVPanel@4@@Z 1005abb0 f i vgui_ServerBrowser.obj
 0001:00059bc0       ?keyTyped@CBrowser_InputSignal@?%C:\Projects\paranoia_coop\code_src\cl_dll\vgui_ServerBrowser.cpp197032196@@UAEXW4KeyCode@vgui@@PAVPanel@4@@Z 1005abc0 f i vgui_ServerBrowser.obj
 0001:00059bd0       ?keyReleased@CBrowser_InputSignal@?%C:\Projects\paranoia_coop\code_src\cl_dll\vgui_ServerBrowser.cpp197032196@@UAEXW4KeyCode@vgui@@PAVPanel@4@@Z 1005abd0 f i vgui_ServerBrowser.obj
 0001:00059be0       ?keyFocusTicked@CBrowser_InputSignal@?%C:\Projects\paranoia_coop\code_src\cl_dll\vgui_ServerBrowser.cpp197032196@@UAEXPAVPanel@vgui@@@Z 1005abe0 f i vgui_ServerBrowser.obj
 0001:00059bf0       ?getRowCount@ServerBrowserTablePanel@?%C:\Projects\paranoia_coop\code_src\cl_dll\vgui_ServerBrowser.cpp197032196@@UAEHXZ 1005abf0 f i vgui_ServerBrowser.obj
 0001:00059c60       ?getCellTall@ServerBrowserTablePanel@?%C:\Projects\paranoia_coop\code_src\cl_dll\vgui_ServerBrowser.cpp197032196@@UAEHH@Z 1005ac60 f i vgui_ServerBrowser.obj
 0001:00059c90       ?getCellRenderer@ServerBrowserTablePanel@?%C:\Projects\paranoia_coop\code_src\cl_dll\vgui_ServerBrowser.cpp197032196@@UAEPAVPanel@vgui@@HH_N00@Z 1005ac90 f i vgui_ServerBrowser.obj
 0001:00059f50       ?startCellEditing@ServerBrowserTablePanel@?%C:\Projects\paranoia_coop\code_src\cl_dll\vgui_ServerBrowser.cpp197032196@@UAEPAVPanel@vgui@@HH@Z 1005af50 f i vgui_ServerBrowser.obj
 0001:00059f60       ?actionPerformed@ConnectHandler@?%C:\Projects\paranoia_coop\code_src\cl_dll\vgui_ServerBrowser.cpp197032196@@UAEXPAVPanel@vgui@@@Z 1005af60 f i vgui_ServerBrowser.obj
 0001:00059fc0       ?actionPerformed@RefreshHandler@?%C:\Projects\paranoia_coop\code_src\cl_dll\vgui_ServerBrowser.cpp197032196@@UAEXPAVPanel@vgui@@@Z 1005afc0 f i vgui_ServerBrowser.obj
 0001:00059fd0       ?actionPerformed@StopHandler@?%C:\Projects\paranoia_coop\code_src\cl_dll\vgui_ServerBrowser.cpp197032196@@UAEXPAVPanel@vgui@@@Z 1005afd0 f i vgui_ServerBrowser.obj
 0001:00059fe0       ?actionPerformed@CancelHandler@?%C:\Projects\paranoia_coop\code_src\cl_dll\vgui_ServerBrowser.cpp197032196@@UAEXPAVPanel@vgui@@@Z 1005afe0 f i vgui_ServerBrowser.obj
 0001:00059ff0       ?cursorMoved@LabelSortInputHandler@@UAEXHHPAVPanel@vgui@@@Z 1005aff0 f i vgui_ServerBrowser.obj
 0001:0005a000       ?cursorEntered@LabelSortInputHandler@@UAEXPAVPanel@vgui@@@Z 1005b000 f i vgui_ServerBrowser.obj
 0001:0005a010       ?cursorExited@LabelSortInputHandler@@UAEXPAVPanel@vgui@@@Z 1005b010 f i vgui_ServerBrowser.obj
 0001:0005a020       ?mousePressed@LabelSortInputHandler@@UAEXW4MouseCode@vgui@@PAVPanel@3@@Z 1005b020 f i vgui_ServerBrowser.obj
 0001:0005a030       ?mouseDoublePressed@LabelSortInputHandler@@UAEXW4MouseCode@vgui@@PAVPanel@3@@Z 1005b030 f i vgui_ServerBrowser.obj
 0001:0005a040       ?mouseReleased@LabelSortInputHandler@@UAEXW4MouseCode@vgui@@PAVPanel@3@@Z 1005b040 f i vgui_ServerBrowser.obj
 0001:0005a050       ?mouseWheeled@LabelSortInputHandler@@UAEXHPAVPanel@vgui@@@Z 1005b050 f i vgui_ServerBrowser.obj
 0001:0005a060       ?keyPressed@LabelSortInputHandler@@UAEXW4KeyCode@vgui@@PAVPanel@3@@Z 1005b060 f i vgui_ServerBrowser.obj
 0001:0005a070       ?keyTyped@LabelSortInputHandler@@UAEXW4KeyCode@vgui@@PAVPanel@3@@Z 1005b070 f i vgui_ServerBrowser.obj
 0001:0005a080       ?keyReleased@LabelSortInputHandler@@UAEXW4KeyCode@vgui@@PAVPanel@3@@Z 1005b080 f i vgui_ServerBrowser.obj
 0001:0005a090       ?keyFocusTicked@LabelSortInputHandler@@UAEXPAVPanel@vgui@@@Z 1005b090 f i vgui_ServerBrowser.obj
 0001:0005a0a0       ?setSize@ServerBrowser@@UAEXHH@Z 1005b0a0 f   vgui_ServerBrowser.obj
 0001:0005a200       ?mousePressed@CBrowser_InputSignal@?%C:\Projects\paranoia_coop\code_src\cl_dll\vgui_ServerBrowser.cpp197032196@@UAEXW4MouseCode@vgui@@PAVPanel@4@@Z 1005b200 f   vgui_ServerBrowser.obj
 0001:0005a280       ?mouseDoublePressed@CBrowser_InputSignal@?%C:\Projects\paranoia_coop\code_src\cl_dll\vgui_ServerBrowser.cpp197032196@@UAEXW4MouseCode@vgui@@PAVPanel@4@@Z 1005b280 f   vgui_ServerBrowser.obj
 0001:0005a360       ??0SpectatorPanel@@QAE@HHHH@Z 1005b360 f   vgui_SpectatorPanel.obj
 0001:0005a390       ??_GSpectatorPanel@@UAEPAXI@Z 1005b390 f i vgui_SpectatorPanel.obj
 0001:0005a390       ??_ESpectatorPanel@@UAEPAXI@Z 1005b390 f i vgui_SpectatorPanel.obj
 0001:0005a3b0       ??1SpectatorPanel@@UAE@XZ  1005b3b0 f   vgui_SpectatorPanel.obj
 0001:0005a3c0       ?ActionSignal@SpectatorPanel@@QAEXH@Z 1005b3c0 f   vgui_SpectatorPanel.obj
 0001:0005a470       ?Initialize@SpectatorPanel@@QAEXXZ 1005b470 f   vgui_SpectatorPanel.obj
 0001:0005b710       ?ShowMenu@SpectatorPanel@@QAEX_N@Z 1005c710 f   vgui_SpectatorPanel.obj
 0001:0005b8c0       ?GetSpectatorLabel@@YAPBDH@Z 1005c8c0 f   vgui_SpectatorPanel.obj
 0001:0005b920       ?EnableInsetView@SpectatorPanel@@QAEX_N@Z 1005c920 f   vgui_SpectatorPanel.obj
 0001:0005bb60       ?Update@SpectatorPanel@@QAEXXZ 1005cb60 f   vgui_SpectatorPanel.obj
 0001:0005bee0       ?paintBackground@ColorButton@@UAEXXZ 1005cee0 f i vgui_SpectatorPanel.obj
 0001:0005bf70       ?paint@ColorButton@@UAEXXZ 1005cf70 f i vgui_SpectatorPanel.obj
 0001:0005c050       ?actionPerformed@CSpectatorHandler_Command@@UAEXPAVPanel@vgui@@@Z 1005d050 f i vgui_SpectatorPanel.obj
 0001:0005c060       ?FontFromMessage@@YAPAVFont@vgui@@AAPBD@Z 1005d060 f   vgui_subtitles.obj
 0001:0005c0f0       ?SubtitleMessageAdd@@YAXPAUclient_textmessage_s@@@Z 1005d0f0 f   vgui_subtitles.obj
 0001:0005c130       ?SubtitleInit@@YAXXZ       1005d130 f   vgui_subtitles.obj
 0001:0005c1b0       ?paintBackground@CSubtitleTextPanel@@UAEXXZ 1005d1b0 f   vgui_subtitles.obj
 0001:0005c2c0       ?paint@CSubtitleTextPanel@@UAEXXZ 1005d2c0 f   vgui_subtitles.obj
 0001:0005c3c0       ??0CSubtitle@@QAE@XZ       1005d3c0 f   vgui_subtitles.obj
 0001:0005c4e0       ?Initialize@CSubtitle@@QAEXXZ 1005d4e0 f   vgui_subtitles.obj
 0001:0005c520       ?AddMessage@CSubtitle@@QAEXPAUclient_textmessage_s@@@Z 1005d520 f   vgui_subtitles.obj
 0001:0005c7f0       ?paintBackground@CSubtitle@@MAEXXZ 1005d7f0 f   vgui_subtitles.obj
 0001:0005cc70       ?MsgShowTabPanel@@YAHPBDHPAX@Z 1005dc70 f   vgui_tabpanel.obj
 0001:0005cca0       ?TabPanelInit@@YAXXZ       1005dca0 f   vgui_tabpanel.obj
 0001:0005ccd0       ?LoadMessage@CTabPanel@@QAEXPBDHPAX@Z 1005dcd0 f   vgui_tabpanel.obj
 0001:0005d2b0       ?Toggle@CTabPanel@@QAEHXZ  1005e2b0 f   vgui_tabpanel.obj
 0001:0005d310       ?Initialize@CTabPanel@@QAEXXZ 1005e310 f   vgui_tabpanel.obj
 0001:0005d370       ??0CTabPanel@@QAE@XZ       1005e370 f   vgui_tabpanel.obj
 0001:0005d630       ??1CTabPanel@@QAE@XZ       1005e630 f   vgui_tabpanel.obj
 0001:0005d660       ?paintBackground@CTabPanel@@MAEXXZ 1005e660 f   vgui_tabpanel.obj
 0001:0005d6b0       ?GetVGUITGAName@@YAPADPBD@Z 1005e6b0 f   vgui_TeamFortressViewport.obj
 0001:0005d710       ?AddButton@CCommandMenu@@QAEXPAVCommandButton@@@Z 1005e710 f   vgui_TeamFortressViewport.obj
 0001:0005d780       ?KeyInput@CCommandMenu@@QAE_NH@Z 1005e780 f   vgui_TeamFortressViewport.obj
 0001:0005d810       ?ClearButtonsOfArmedState@CCommandMenu@@QAEXXZ 1005e810 f   vgui_TeamFortressViewport.obj
 0001:0005d860       ?FindButtonWithSubmenu@CCommandMenu@@QAEPAVCommandButton@@PAV1@@Z 1005e860 f   vgui_TeamFortressViewport.obj
 0001:0005d8a0       ?RecalculateVisibles@CCommandMenu@@QAE_NH_N@Z 1005e8a0 f   vgui_TeamFortressViewport.obj
 0001:0005da60       ?RecalculatePositions@CCommandMenu@@QAEXH@Z 1005ea60 f   vgui_TeamFortressViewport.obj
 0001:0005db20       ?MakeVisible@CCommandMenu@@QAEXPAV1@@Z 1005eb20 f   vgui_TeamFortressViewport.obj
 0001:0005db50       ?CreateSubMenu@TeamFortressViewport@@QAEPAVCCommandMenu@@PAVCommandButton@@PAV2@HH@Z 1005eb50 f   vgui_TeamFortressViewport.obj
 0001:0005de20       ??2TeamFortressViewport@@SAPAXI@Z 1005ee20 f   vgui_TeamFortressViewport.obj
 0001:0005de50       ??0TeamFortressViewport@@QAE@HHHH@Z 1005ee50 f   vgui_TeamFortressViewport.obj
 0001:0005e300       ?cursorMoved@CViewPortInputHandler@@UAEXHHPAVPanel@vgui@@@Z 1005f300 f i vgui_TeamFortressViewport.obj
 0001:0005e310       ?cursorEntered@CViewPortInputHandler@@UAEXPAVPanel@vgui@@@Z 1005f310 f i vgui_TeamFortressViewport.obj
 0001:0005e320       ?cursorExited@CViewPortInputHandler@@UAEXPAVPanel@vgui@@@Z 1005f320 f i vgui_TeamFortressViewport.obj
 0001:0005e330       ?mousePressed@CViewPortInputHandler@@UAEXW4MouseCode@vgui@@PAVPanel@3@@Z 1005f330 f i vgui_TeamFortressViewport.obj
 0001:0005e350       ?mouseReleased@CViewPortInputHandler@@UAEXW4MouseCode@vgui@@PAVPanel@3@@Z 1005f350 f i vgui_TeamFortressViewport.obj
 0001:0005e360       ?mouseDoublePressed@CViewPortInputHandler@@UAEXW4MouseCode@vgui@@PAVPanel@3@@Z 1005f360 f i vgui_TeamFortressViewport.obj
 0001:0005e370       ?mouseWheeled@CViewPortInputHandler@@UAEXHPAVPanel@vgui@@@Z 1005f370 f i vgui_TeamFortressViewport.obj
 0001:0005e380       ?keyPressed@CViewPortInputHandler@@UAEXW4KeyCode@vgui@@PAVPanel@3@@Z 1005f380 f i vgui_TeamFortressViewport.obj
 0001:0005e390       ?keyTyped@CViewPortInputHandler@@UAEXW4KeyCode@vgui@@PAVPanel@3@@Z 1005f390 f i vgui_TeamFortressViewport.obj
 0001:0005e3a0       ?keyReleased@CViewPortInputHandler@@UAEXW4KeyCode@vgui@@PAVPanel@3@@Z 1005f3a0 f i vgui_TeamFortressViewport.obj
 0001:0005e3b0       ?keyFocusTicked@CViewPortInputHandler@@UAEXPAVPanel@vgui@@@Z 1005f3b0 f i vgui_TeamFortressViewport.obj
 0001:0005e3c0       ??0Surface@vgui@@QAE@ABV01@@Z 1005f3c0 f i vgui_TeamFortressViewport.obj
 0001:0005e440       ??4Surface@vgui@@QAEAAV01@ABV01@@Z 1005f440 f i vgui_TeamFortressViewport.obj
 0001:0005e4b0       ??1Surface@vgui@@QAE@XZ    1005f4b0 f i vgui_TeamFortressViewport.obj
 0001:0005e4c0       ?Initialize@TeamFortressViewport@@QAEXXZ 1005f4c0 f   vgui_TeamFortressViewport.obj
 0001:0005e660       ?CreateCommandMenu@TeamFortressViewport@@QAEHPADHH_NMMH@Z 1005f660 f   vgui_TeamFortressViewport.obj
 0001:0005f2d0       ??0MenuSeparator@vgui@@QAE@ABV01@@Z 100602d0 f i vgui_TeamFortressViewport.obj
 0001:0005f4e0       ??4MenuSeparator@vgui@@QAEAAV01@ABV01@@Z 100604e0 f i vgui_TeamFortressViewport.obj
 0001:0005f720       ??0BuildGroup@vgui@@QAE@ABV01@@Z 10060720 f i vgui_TeamFortressViewport.obj
 0001:0005f7e0       ?CreateDisguiseSubmenu@TeamFortressViewport@@QAEPAVCCommandMenu@@PAVCommandButton@@PAV2@PBDHH@Z 100607e0 f   vgui_TeamFortressViewport.obj
 0001:0005f980       ??4BuildGroup@vgui@@QAEAAV01@ABV01@@Z 10060980 f i vgui_TeamFortressViewport.obj
 0001:0005fa40       ?CreateCustomButton@TeamFortressViewport@@QAEPAVCommandButton@@PAD0H@Z 10060a40 f   vgui_TeamFortressViewport.obj
 0001:00061ac0       ?ToggleServerBrowser@TeamFortressViewport@@QAEXXZ 10062ac0 f   vgui_TeamFortressViewport.obj
 0001:00061b10       ?ShowCommandMenu@TeamFortressViewport@@QAEXH@Z 10062b10 f   vgui_TeamFortressViewport.obj
 0001:00061be0       ?InputSignalHideCommandMenu@TeamFortressViewport@@QAEXXZ 10062be0 f   vgui_TeamFortressViewport.obj
 0001:00061c10       ?HideCommandMenu@TeamFortressViewport@@QAEXXZ 10062c10 f   vgui_TeamFortressViewport.obj
 0001:00061c80       ?ShowScoreBoard@TeamFortressViewport@@QAEXXZ 10062c80 f   vgui_TeamFortressViewport.obj
 0001:00061cb0       ?IsScoreBoardVisible@TeamFortressViewport@@QAE_NXZ 10062cb0 f   vgui_TeamFortressViewport.obj
 0001:00061cd0       ?HideScoreBoard@TeamFortressViewport@@QAEXXZ 10062cd0 f   vgui_TeamFortressViewport.obj
 0001:00061d10       ?InputPlayerSpecial@TeamFortressViewport@@QAEXXZ 10062d10 f   vgui_TeamFortressViewport.obj
 0001:00061d70       ?SetCurrentCommandMenu@TeamFortressViewport@@QAEXPAVCCommandMenu@@@Z 10062d70 f   vgui_TeamFortressViewport.obj
 0001:00061dc0       ?UpdateCommandMenu@TeamFortressViewport@@QAEXH@Z 10062dc0 f   vgui_TeamFortressViewport.obj
 0001:00061df0       ?CreateScoreBoard@TeamFortressViewport@@QAEXXZ 10062df0 f   vgui_TeamFortressViewport.obj
 0001:00061ef0       ?CreateServerBrowser@TeamFortressViewport@@QAEXXZ 10062ef0 f   vgui_TeamFortressViewport.obj
 0001:00061f80       ?SetCurrentMenu@TeamFortressViewport@@QAEXPAVCMenuPanel@@@Z 10062f80 f   vgui_TeamFortressViewport.obj
 0001:00061fb0       ?CreateTextWindow@TeamFortressViewport@@QAEPAVCMenuPanel@@H@Z 10062fb0 f   vgui_TeamFortressViewport.obj
 0001:00062430       ?ShowVGUIMenu@TeamFortressViewport@@QAEXH@Z 10063430 f   vgui_TeamFortressViewport.obj
 0001:000625b0       ?HideVGUIMenu@TeamFortressViewport@@QAEXXZ 100635b0 f   vgui_TeamFortressViewport.obj
 0001:000625d0       ?HideTopMenu@TeamFortressViewport@@QAEXXZ 100635d0 f   vgui_TeamFortressViewport.obj
 0001:00062610       ?AllowedToPrintText@TeamFortressViewport@@QAE_NXZ 10063610 f   vgui_TeamFortressViewport.obj
 0001:00062650       ?UpdateOnPlayerInfo@TeamFortressViewport@@QAEXXZ 10063650 f   vgui_TeamFortressViewport.obj
 0001:00062660       ?UpdateCursorState@TeamFortressViewport@@QAEXXZ 10063660 f   vgui_TeamFortressViewport.obj
 0001:00062720       ?UpdateHighlights@TeamFortressViewport@@QAEXXZ 10063720 f   vgui_TeamFortressViewport.obj
 0001:00062740       ?GetAllPlayersInfo@TeamFortressViewport@@QAEXXZ 10063740 f   vgui_TeamFortressViewport.obj
 0001:00062780       ?paintBackground@TeamFortressViewport@@UAEXXZ 10063780 f   vgui_TeamFortressViewport.obj
 0001:00062890       ?cursorMoved@CDragNDropHandler@@UAEXHHPAVPanel@vgui@@@Z 10063890 f   vgui_TeamFortressViewport.obj
 0001:00062900       ?mousePressed@CDragNDropHandler@@UAEXW4MouseCode@vgui@@PAVPanel@3@@Z 10063900 f   vgui_TeamFortressViewport.obj
 0001:00062970       ?mouseReleased@CDragNDropHandler@@UAEXW4MouseCode@vgui@@PAVPanel@3@@Z 10063970 f   vgui_TeamFortressViewport.obj
 0001:000629a0       ?SlotInput@TeamFortressViewport@@QAE_NH@Z 100639a0 f   vgui_TeamFortressViewport.obj
 0001:000629c0       ?KeyInput@TeamFortressViewport@@QAEHHHPBD@Z 100639c0 f   vgui_TeamFortressViewport.obj
 0001:00062b60       ?MsgFunc_ValClass@TeamFortressViewport@@QAEHPBDHPAX@Z 10063b60 f   vgui_TeamFortressViewport.obj
 0001:00062bb0       ?MsgFunc_TeamNames@TeamFortressViewport@@QAEHPBDHPAX@Z 10063bb0 f   vgui_TeamFortressViewport.obj
 0001:00062c50       ?paintBackground@SpectButton@@UAEXXZ 10063c50 f i vgui_TeamFortressViewport.obj
 0001:00062ca0       ?paint@SpectButton@@UAEXXZ 10063ca0 f i vgui_TeamFortressViewport.obj
 0001:00062d00       ?MsgFunc_Feign@TeamFortressViewport@@QAEHPBDHPAX@Z 10063d00 f   vgui_TeamFortressViewport.obj
 0001:00062d40       ?MsgFunc_Detpack@TeamFortressViewport@@QAEHPBDHPAX@Z 10063d40 f   vgui_TeamFortressViewport.obj
 0001:00062d80       ?MsgFunc_VGUIMenu@TeamFortressViewport@@QAEHPBDHPAX@Z 10063d80 f   vgui_TeamFortressViewport.obj
 0001:00062de0       ?MsgFunc_MOTD@TeamFortressViewport@@QAEHPBDHPAX@Z 10063de0 f   vgui_TeamFortressViewport.obj
 0001:00062e80       ?MsgFunc_BuildSt@TeamFortressViewport@@QAEHPBDHPAX@Z 10063e80 f   vgui_TeamFortressViewport.obj
 0001:00062ec0       ?MsgFunc_RandomPC@TeamFortressViewport@@QAEHPBDHPAX@Z 10063ec0 f   vgui_TeamFortressViewport.obj
 0001:00062ef0       ?MsgFunc_ServerName@TeamFortressViewport@@QAEHPBDHPAX@Z 10063ef0 f   vgui_TeamFortressViewport.obj
 0001:00062f30       ?MsgFunc_ScoreInfo@TeamFortressViewport@@QAEHPBDHPAX@Z 10063f30 f   vgui_TeamFortressViewport.obj
 0001:00062fc0       ?MsgFunc_TeamScore@TeamFortressViewport@@QAEHPBDHPAX@Z 10063fc0 f   vgui_TeamFortressViewport.obj
 0001:00063060       ?MsgFunc_TeamInfo@TeamFortressViewport@@QAEHPBDHPAX@Z 10064060 f   vgui_TeamFortressViewport.obj
 0001:000630d0       ?DeathMsg@TeamFortressViewport@@QAEXHH@Z 100640d0 f   vgui_TeamFortressViewport.obj
 0001:000630f0       ?MsgFunc_Spectator@TeamFortressViewport@@QAEHPBDHPAX@Z 100640f0 f   vgui_TeamFortressViewport.obj
 0001:00063130       ?MsgFunc_AllowSpec@TeamFortressViewport@@QAEHPBDHPAX@Z 10064130 f   vgui_TeamFortressViewport.obj
 0001:00063170       ?MsgFunc_ShowTextWindow@TeamFortressViewport@@QAEHPBDHPAX@Z 10064170 f   vgui_TeamFortressViewport.obj
 0001:00063280       ?cursorMoved@CMenuHandler_PopupSubMenuInput@@UAEXHHPAVPanel@vgui@@@Z 10064280 f i vgui_TeamFortressViewport.obj
 0001:00063290       ?cursorEntered@CMenuHandler_PopupSubMenuInput@@UAEXPAVPanel@vgui@@@Z 10064290 f i vgui_TeamFortressViewport.obj
 0001:000632c0       ?cursorExited@CMenuHandler_PopupSubMenuInput@@UAEXPAVPanel@vgui@@@Z 100642c0 f i vgui_TeamFortressViewport.obj
 0001:000632d0       ?mousePressed@CMenuHandler_PopupSubMenuInput@@UAEXW4MouseCode@vgui@@PAVPanel@3@@Z 100642d0 f i vgui_TeamFortressViewport.obj
 0001:000632e0       ?mouseDoublePressed@CMenuHandler_PopupSubMenuInput@@UAEXW4MouseCode@vgui@@PAVPanel@3@@Z 100642e0 f i vgui_TeamFortressViewport.obj
 0001:000632f0       ?mouseReleased@CMenuHandler_PopupSubMenuInput@@UAEXW4MouseCode@vgui@@PAVPanel@3@@Z 100642f0 f i vgui_TeamFortressViewport.obj
 0001:00063300       ?CreatePickupMessagePanels@TeamFortressViewport@@QAEXXZ 10064300 f   vgui_TeamFortressViewport.obj
 0001:00063410       ?paint@CPickupMessage@@MAEXXZ 10064410 f i vgui_TeamFortressViewport.obj
 0001:00063810       ?mouseWheeled@CMenuHandler_PopupSubMenuInput@@UAEXHPAVPanel@vgui@@@Z 10064810 f i vgui_TeamFortressViewport.obj
 0001:00063820       ?keyPressed@CMenuHandler_PopupSubMenuInput@@UAEXW4KeyCode@vgui@@PAVPanel@3@@Z 10064820 f i vgui_TeamFortressViewport.obj
 0001:00063830       ?keyTyped@CMenuHandler_PopupSubMenuInput@@UAEXW4KeyCode@vgui@@PAVPanel@3@@Z 10064830 f i vgui_TeamFortressViewport.obj
 0001:00063840       ?keyReleased@CMenuHandler_PopupSubMenuInput@@UAEXW4KeyCode@vgui@@PAVPanel@3@@Z 10064840 f i vgui_TeamFortressViewport.obj
 0001:00063850       ?keyFocusTicked@CMenuHandler_PopupSubMenuInput@@UAEXPAVPanel@vgui@@@Z 10064850 f i vgui_TeamFortressViewport.obj
 0001:00063860       ?InitializePickupMessagePanels@TeamFortressViewport@@QAEXXZ 10064860 f   vgui_TeamFortressViewport.obj
 0001:00063890       ?CheckCurrentPickupMessagePanel@TeamFortressViewport@@QAEXXZ 10064890 f   vgui_TeamFortressViewport.obj
 0001:000638d0       ?CheckPanel@@YAXXZ         100648d0 f   vgui_TeamFortressViewport.obj
 0001:000638e0       ?AddPickupMessage@TeamFortressViewport@@QAEXPAUclient_textmessage_s@@@Z 100648e0 f   vgui_TeamFortressViewport.obj
 0001:00063aa0       ?VGuiAddPickupMessage@@YAXPAUclient_textmessage_s@@@Z 10064aa0 f   vgui_TeamFortressViewport.obj
 0001:00063ad0       ?actionPerformed@CMenuHandler_ToggleCvar@@UAEXPAVPanel@vgui@@@Z 10064ad0 f i vgui_TeamFortressViewport.obj
 0001:00063b00       ?IsNotValid@TeamButton@@UAEHXZ 10064b00 f i vgui_TeamFortressViewport.obj
 0001:00063b40       ?IsNotValid@FeignButton@@UAEHXZ 10064b40 f i vgui_TeamFortressViewport.obj
 0001:00063b70       ?IsNotValid@SpectateButton@@UAEHXZ 10064b70 f i vgui_TeamFortressViewport.obj
 0001:00063b90       ?IsNotValid@DisguiseButton@@UAEHXZ 10064b90 f i vgui_TeamFortressViewport.obj
 0001:00063bd0       ?IsNotValid@DetpackButton@@UAEHXZ 10064bd0 f i vgui_TeamFortressViewport.obj
 0001:00063c00       ?IsNotValid@BuildButton@@UAEHXZ 10064c00 f i vgui_TeamFortressViewport.obj
 0001:00063cb0       ?IsNotValid@MapButton@@UAEHXZ 10064cb0 f i vgui_TeamFortressViewport.obj
 0001:00063d20       ?IsNotValid@TeamOnlyCommandButton@@UAEHXZ 10064d20 f i vgui_TeamFortressViewport.obj
 0001:00063d40       ?paintBackground@TeamOnlyCommandButton@@UAEXXZ 10064d40 f i vgui_TeamFortressViewport.obj
 0001:00063d90       ?paint@TeamOnlyCommandButton@@UAEXXZ 10064d90 f i vgui_TeamFortressViewport.obj
 0001:00063df0       ?cursorEntered@ToggleCommandButton@@UAEXPAVPanel@vgui@@@Z 10064df0 f i vgui_TeamFortressViewport.obj
 0001:00063e00       ?cursorExited@ToggleCommandButton@@UAEXPAVPanel@vgui@@@Z 10064e00 f i vgui_TeamFortressViewport.obj
 0001:00063e10       ?mousePressed@ToggleCommandButton@@UAEXW4MouseCode@vgui@@PAVPanel@3@@Z 10064e10 f i vgui_TeamFortressViewport.obj
 0001:00063e30       ?cursorMoved@ToggleCommandButton@@UAEXHHPAVPanel@vgui@@@Z 10064e30 f i vgui_TeamFortressViewport.obj
 0001:00063e40       ?mouseDoublePressed@ToggleCommandButton@@UAEXW4MouseCode@vgui@@PAVPanel@3@@Z 10064e40 f i vgui_TeamFortressViewport.obj
 0001:00063e50       ?mouseReleased@ToggleCommandButton@@UAEXW4MouseCode@vgui@@PAVPanel@3@@Z 10064e50 f i vgui_TeamFortressViewport.obj
 0001:00063e60       ?mouseWheeled@ToggleCommandButton@@UAEXHPAVPanel@vgui@@@Z 10064e60 f i vgui_TeamFortressViewport.obj
 0001:00063e70       ?keyPressed@ToggleCommandButton@@UAEXW4KeyCode@vgui@@PAVPanel@3@@Z 10064e70 f i vgui_TeamFortressViewport.obj
 0001:00063e80       ?keyTyped@ToggleCommandButton@@UAEXW4KeyCode@vgui@@PAVPanel@3@@Z 10064e80 f i vgui_TeamFortressViewport.obj
 0001:00063e90       ?keyReleased@ToggleCommandButton@@UAEXW4KeyCode@vgui@@PAVPanel@3@@Z 10064e90 f i vgui_TeamFortressViewport.obj
 0001:00063ea0       ?keyFocusTicked@ToggleCommandButton@@UAEXPAVPanel@vgui@@@Z 10064ea0 f i vgui_TeamFortressViewport.obj
 0001:00063eb0       ?paint@ToggleCommandButton@@UAEXXZ 10064eb0 f i vgui_TeamFortressViewport.obj
 0001:00063f20       ?cursorEntered@SpectToggleButton@@UAEXPAVPanel@vgui@@@Z 10064f20 f i vgui_TeamFortressViewport.obj
 0001:00063f30       ?cursorExited@SpectToggleButton@@UAEXPAVPanel@vgui@@@Z 10064f30 f i vgui_TeamFortressViewport.obj
 0001:00063f40       ?mousePressed@SpectToggleButton@@UAEXW4MouseCode@vgui@@PAVPanel@3@@Z 10064f40 f i vgui_TeamFortressViewport.obj
 0001:00063f60       ?cursorMoved@SpectToggleButton@@UAEXHHPAVPanel@vgui@@@Z 10064f60 f i vgui_TeamFortressViewport.obj
 0001:00063f70       ?mouseDoublePressed@SpectToggleButton@@UAEXW4MouseCode@vgui@@PAVPanel@3@@Z 10064f70 f i vgui_TeamFortressViewport.obj
 0001:00063f80       ?mouseReleased@SpectToggleButton@@UAEXW4MouseCode@vgui@@PAVPanel@3@@Z 10064f80 f i vgui_TeamFortressViewport.obj
 0001:00063f90       ?mouseWheeled@SpectToggleButton@@UAEXHPAVPanel@vgui@@@Z 10064f90 f i vgui_TeamFortressViewport.obj
 0001:00063fa0       ?keyPressed@SpectToggleButton@@UAEXW4KeyCode@vgui@@PAVPanel@3@@Z 10064fa0 f i vgui_TeamFortressViewport.obj
 0001:00063fb0       ?keyTyped@SpectToggleButton@@UAEXW4KeyCode@vgui@@PAVPanel@3@@Z 10064fb0 f i vgui_TeamFortressViewport.obj
 0001:00063fc0       ?keyReleased@SpectToggleButton@@UAEXW4KeyCode@vgui@@PAVPanel@3@@Z 10064fc0 f i vgui_TeamFortressViewport.obj
 0001:00063fd0       ?keyFocusTicked@SpectToggleButton@@UAEXPAVPanel@vgui@@@Z 10064fd0 f i vgui_TeamFortressViewport.obj
 0001:00063fe0       ?paintBackground@SpectToggleButton@@UAEXXZ 10064fe0 f i vgui_TeamFortressViewport.obj
 0001:00064030       ?paint@SpectToggleButton@@UAEXXZ 10065030 f i vgui_TeamFortressViewport.obj
 0001:000640c0       ?SetNextMenu@CMenuPanel@@QAEXPAV1@@Z 100650c0 f i vgui_TeamFortressViewport.obj
 0001:000640f0       ?paint@CScreenMessage@@MAEXXZ 100650f0 f i vgui_TeamFortressViewport.obj
 0001:000642f0       ?paint@CScrollingMessage@@MAEXXZ 100652f0 f i vgui_TeamFortressViewport.obj
 0001:00064480       ??0CTeamMenuPanel@@QAE@HHHHHH@Z 10065480 f   vgui_teammenu.obj
 0001:00065070       ?Initialize@CTeamMenuPanel@@UAEXXZ 10066070 f   vgui_teammenu.obj
 0001:00065090       ?Update@CTeamMenuPanel@@UAEXXZ 10066090 f   vgui_teammenu.obj
 0001:00065680       ?SlotInput@CTeamMenuPanel@@UAE_NH@Z 10066680 f   vgui_teammenu.obj
 0001:00065700       ?Open@CTeamMenuPanel@@UAEXXZ 10066700 f   vgui_teammenu.obj
 0001:00065730       ?paintBackground@CTeamMenuPanel@@UAEXXZ 10066730 f   vgui_teammenu.obj
 0001:00065780       ?SetActiveInfo@CTeamMenuPanel@@UAEXH@Z 10066780 f   vgui_teammenu.obj
 0001:00065810       ?Reset@CTeamMenuPanel@@UAEXXZ 10066810 f i vgui_teammenu.obj
 0001:00065830       ?ShowTip@@YAXPAUclient_textmessage_s@@@Z 10066830 f   vgui_tips.obj
 0001:00065860       ?Initialize@CTips@@QAEXXZ  10066860 f   vgui_tips.obj
 0001:000658a0       ??0CTips@@QAE@XZ           100668a0 f   vgui_tips.obj
 0001:00065980       ??1CTips@@QAE@XZ           10066980 f   vgui_tips.obj
 0001:000659b0       ?Show@CTips@@QAEXPAUclient_textmessage_s@@@Z 100669b0 f   vgui_tips.obj
 0001:00065a00       ?LoadMsg@CTips@@IAEXPAUclient_textmessage_s@@@Z 10066a00 f   vgui_tips.obj
 0001:00065c40       ?paintBackground@CTips@@MAEXXZ 10066c40 f   vgui_tips.obj
 0001:00065e70       ?VGuiAddScreenMessage@@YAXPAUclient_textmessage_s@@@Z 10066e70 f   vgui_tips.obj
 0001:00066020       ?VGuiAddScrollingMessage@@YAXPAUclient_textmessage_s@@@Z 10067020 f   vgui_tips.obj
 0001:000661c0       ?paint@ShadowTextPanel@@UAEXXZ 100671c0 f i vgui_tips.obj
 0001:000663c0       ?V_CalcBob@@YAMPAUref_params_s@@@Z 100673c0 f   view.obj
 0001:000664e0       ?V_CalcRoll@@YAMVVector@@0MM@Z 100674e0 f   view.obj
 0001:00066580       ?V_StartPitchDrift@@YAXXZ  10067580 f   view.obj
 0001:000665e0       ?V_StopPitchDrift@@YAXXZ   100675e0 f   view.obj
 0001:00066610       ?V_DriftPitch@@YAXPAUref_params_s@@@Z 10067610 f   view.obj
 0001:00066790       ?V_CalcGunAngle@@YAXPAUref_params_s@@@Z 10067790 f   view.obj
 0001:000668d0       ?V_AddIdle@@YAXPAUref_params_s@@@Z 100678d0 f   view.obj
 0001:00066930       ?V_CalcViewRoll@@YAXPAUref_params_s@@@Z 10067930 f   view.obj
 0001:000669b0       ?V_CalcIntermissionRefdef@@YAXPAUref_params_s@@@Z 100679b0 f   view.obj
 0001:00066ae0       ?V_CalcNormalRefdef@@YAXPAUref_params_s@@@Z 10067ae0 f   view.obj
 0001:000675b0       ?V_SmoothInterpolateAngles@@YAXPAM00M@Z 100685b0 f   view.obj
 0001:000676b0       ?V_GetChaseOrigin@@YAXPAM0M0@Z 100686b0 f   view.obj
 0001:000677d0       ?V_GetSingleTargetCam@@YAXPAUcl_entity_s@@PAM1@Z 100687d0 f   view.obj
 0001:00067940       ?MaxAngleBetweenAngles@@YAMPAM0@Z 10068940 f   view.obj
 0001:000679d0       ?V_GetDoubleTargetsCam@@YAXPAUcl_entity_s@@0PAM1@Z 100689d0 f   view.obj
 0001:00067c30       ?V_GetDirectedChasePosition@@YAXPAUcl_entity_s@@0PAM1@Z 10068c30 f   view.obj
 0001:00067d70       ?V_GetChasePos@@YAXHPAM00@Z 10068d70 f   view.obj
 0001:00067ec0       ?V_ResetChaseCam@@YAXXZ    10068ec0 f   view.obj
 0001:00067ed0       ?V_GetInEyePos@@YAXHPAM0@Z 10068ed0 f   view.obj
 0001:00067fb0       ?V_GetMapFreePosition@@YAXPAM00@Z 10068fb0 f   view.obj
 0001:00068060       ?V_GetMapChasePosition@@YAXHPAM00@Z 10069060 f   view.obj
 0001:00068190       ?V_FindViewModelByWeaponModel@@YAHH@Z 10069190 f   view.obj
 0001:00068200       ?V_CalcSpectatorRefdef@@YAXPAUref_params_s@@@Z 10069200 f   view.obj
 0001:000687d0       _V_CalcRefdef              100697d0 f   view.obj
 0001:00068860       ?V_DropPunchAngle@@YAXMPAM@Z 10069860 f   view.obj
 0001:000688b0       ?V_PunchAxis@@YAXHM@Z      100698b0 f   view.obj
 0001:000688c0       ?V_Init@@YAXXZ             100698c0 f   view.obj
 0001:000689e0       ?SetupFlashlight@@YAXVVector@@0MM@Z 100699e0 f   view.obj
 0001:00068cb0       _LoadLibraryA@4            10069cb0 f   kernel32:KERNEL32.dll
 0001:00068cb6       _FreeLibrary@4             10069cb6 f   kernel32:KERNEL32.dll
 0001:00068cbc       _GetProcAddress@8          10069cbc f   kernel32:KERNEL32.dll
 0001:00068cc2       _SetCurrentDirectoryA@4    10069cc2 f   kernel32:KERNEL32.dll
 0001:00068cc8       _GetCurrentDirectoryA@8    10069cc8 f   kernel32:KERNEL32.dll
 0001:00068cce       _SetUnhandledExceptionFilter@4 10069cce f   kernel32:KERNEL32.dll
 0001:00068cd4       _GetModuleFileNameA@12     10069cd4 f   kernel32:KERNEL32.dll
 0001:00068cda       _GetCurrentProcess@0       10069cda f   kernel32:KERNEL32.dll
 0001:00068ce0       _GetCursorPos@4            10069ce0 f   user32:USER32.dll
 0001:00068ce6       _SetCursorPos@8            10069ce6 f   user32:USER32.dll
 0001:00068cec       _SystemParametersInfoA@16  10069cec f   user32:USER32.dll
 0001:00068cf2       _joyGetDevCapsA@12         10069cf2 f   winmm:WINMM.dll
 0001:00068cf8       _joyGetPosEx@8             10069cf8 f   winmm:WINMM.dll
 0001:00068cfe       _joyGetNumDevs@0           10069cfe f   winmm:WINMM.dll
 0001:00068d04       ?getCursor@Scheme@vgui@@UAEPAVCursor@2@W4SchemeCursor@12@@Z 10069d04 f   vgui:vgui.dll
 0001:00068d0a       ?setCursor@Scheme@vgui@@UAEXW4SchemeCursor@12@PAVCursor@2@@Z 10069d0a f   vgui:vgui.dll
 0001:00068d10       ?getFont@Scheme@vgui@@UAEPAVFont@2@W4SchemeFont@12@@Z 10069d10 f   vgui:vgui.dll
 0001:00068d16       ?setFont@Scheme@vgui@@UAEXW4SchemeFont@12@PAVFont@2@@Z 10069d16 f   vgui:vgui.dll
 0001:00068d1c       ?getColor@Scheme@vgui@@UAEXW4SchemeColor@12@AAH111@Z 10069d1c f   vgui:vgui.dll
 0001:00068d22       ?setColor@Scheme@vgui@@UAEXW4SchemeColor@12@HHHH@Z 10069d22 f   vgui:vgui.dll
 0001:00068d28       ??AColor@vgui@@UAEHH@Z     10069d28 f   vgui:vgui.dll
 0001:00068d2e       ?getColor@Color@vgui@@UAEXAAH000@Z 10069d2e f   vgui:vgui.dll
 0001:00068d34       ?getColor@Color@vgui@@UAEXAAW4SchemeColor@Scheme@2@@Z 10069d34 f   vgui:vgui.dll
 0001:00068d3a       ?setColor@Color@vgui@@UAEXHHHH@Z 10069d3a f   vgui:vgui.dll
 0001:00068d40       ?setColor@Color@vgui@@UAEXW4SchemeColor@Scheme@2@@Z 10069d40 f   vgui:vgui.dll
 0001:00068d46       ?init@Color@vgui@@EAEXXZ   10069d46 f   vgui:vgui.dll
 0001:00068d4c       ?internalSetCursor@Panel@vgui@@MAEXXZ 10069d4c f   vgui:vgui.dll
 0001:00068d52       ?internalFocusChanged@Panel@vgui@@MAEX_N@Z 10069d52 f   vgui:vgui.dll
 0001:00068d58       ?internalKeyFocusTicked@Panel@vgui@@MAEXXZ 10069d58 f   vgui:vgui.dll
 0001:00068d5e       ?internalKeyReleased@Panel@vgui@@MAEXW4KeyCode@2@@Z 10069d5e f   vgui:vgui.dll
 0001:00068d64       ?internalKeyTyped@Panel@vgui@@MAEXW4KeyCode@2@@Z 10069d64 f   vgui:vgui.dll
 0001:00068d6a       ?internalKeyPressed@Panel@vgui@@MAEXW4KeyCode@2@@Z 10069d6a f   vgui:vgui.dll
 0001:00068d70       ?internalMouseWheeled@Panel@vgui@@MAEXH@Z 10069d70 f   vgui:vgui.dll
 0001:00068d76       ?internalMouseReleased@Panel@vgui@@MAEXW4MouseCode@2@@Z 10069d76 f   vgui:vgui.dll
 0001:00068d7c       ?internalMouseDoublePressed@Panel@vgui@@MAEXW4MouseCode@2@@Z 10069d7c f   vgui:vgui.dll
 0001:00068d82       ?internalMousePressed@Panel@vgui@@MAEXW4MouseCode@2@@Z 10069d82 f   vgui:vgui.dll
 0001:00068d88       ?internalCursorExited@Panel@vgui@@MAEXXZ 10069d88 f   vgui:vgui.dll
 0001:00068d8e       ?internalCursorEntered@Panel@vgui@@MAEXXZ 10069d8e f   vgui:vgui.dll
 0001:00068d94       ?internalCursorMoved@Panel@vgui@@MAEXHH@Z 10069d94 f   vgui:vgui.dll
 0001:00068d9a       ?paintBuildOverlay@Panel@vgui@@MAEXXZ 10069d9a f   vgui:vgui.dll
 0001:00068da0       ?paint@Panel@vgui@@MAEXXZ  10069da0 f   vgui:vgui.dll
 0001:00068da6       ?paintBackground@Panel@vgui@@MAEXXZ 10069da6 f   vgui:vgui.dll
 0001:00068dac       ?solve@Panel@vgui@@MAEXXZ  10069dac f   vgui:vgui.dll
 0001:00068db2       ?drawTexturedRect@Panel@vgui@@MAEXHHHH@Z 10069db2 f   vgui:vgui.dll
 0001:00068db8       ?drawSetTexture@Panel@vgui@@MAEXH@Z 10069db8 f   vgui:vgui.dll
 0001:00068dbe       ?drawSetTextureRGBA@Panel@vgui@@MAEXHPBDHH@Z 10069dbe f   vgui:vgui.dll
 0001:00068dc4       ?drawPrintChar@Panel@vgui@@MAEXD@Z 10069dc4 f   vgui:vgui.dll
 0001:00068dca       ?drawPrintChar@Panel@vgui@@MAEXHHD@Z 10069dca f   vgui:vgui.dll
 0001:00068dd0       ?drawPrintText@Panel@vgui@@MAEXPBDH@Z 10069dd0 f   vgui:vgui.dll
 0001:00068dd6       ?drawPrintText@Panel@vgui@@MAEXHHPBDH@Z 10069dd6 f   vgui:vgui.dll
 0001:00068ddc       ?drawSetTextPos@Panel@vgui@@MAEXHH@Z 10069ddc f   vgui:vgui.dll
 0001:00068de2       ?drawSetTextColor@Panel@vgui@@MAEXW4SchemeColor@Scheme@2@@Z 10069de2 f   vgui:vgui.dll
 0001:00068de8       ?drawSetTextColor@Panel@vgui@@MAEXHHHH@Z 10069de8 f   vgui:vgui.dll
 0001:00068dee       ?drawSetTextFont@Panel@vgui@@MAEXW4SchemeFont@Scheme@2@@Z 10069dee f   vgui:vgui.dll
 0001:00068df4       ?drawSetTextFont@Panel@vgui@@MAEXPAVFont@2@@Z 10069df4 f   vgui:vgui.dll
 0001:00068dfa       ?drawOutlinedRect@Panel@vgui@@MAEXHHHH@Z 10069dfa f   vgui:vgui.dll
 0001:00068e00       ?drawFilledRect@Panel@vgui@@MAEXHHHH@Z 10069e00 f   vgui:vgui.dll
 0001:00068e06       ?drawSetColor@Panel@vgui@@MAEXW4SchemeColor@Scheme@2@@Z 10069e06 f   vgui:vgui.dll
 0001:00068e0c       ?drawSetColor@Panel@vgui@@MAEXHHHH@Z 10069e0c f   vgui:vgui.dll
 0001:00068e12       ?internalPerformLayout@Panel@vgui@@MAEXXZ 10069e12 f   vgui:vgui.dll
 0001:00068e18       ?performLayout@Panel@vgui@@MAEXXZ 10069e18 f   vgui:vgui.dll
 0001:00068e1e       ?setSurfaceBaseTraverse@Panel@vgui@@UAEXPAVSurfaceBase@2@@Z 10069e1e f   vgui:vgui.dll
 0001:00068e24       ?paintTraverse@Panel@vgui@@UAEXXZ 10069e24 f   vgui:vgui.dll
 0001:00068e2a       ?paintTraverse@Panel@vgui@@MAEX_N@Z 10069e2a f   vgui:vgui.dll
 0001:00068e30       ?solveTraverse@Panel@vgui@@UAEXXZ 10069e30 f   vgui:vgui.dll
 0001:00068e36       ?isCursorNone@Panel@vgui@@UAE_NXZ 10069e36 f   vgui:vgui.dll
 0001:00068e3c       ?getLayoutInfo@Panel@vgui@@UAEPAVLayoutInfo@2@XZ 10069e3c f   vgui:vgui.dll
 0001:00068e42       ?setLayoutInfo@Panel@vgui@@UAEXPAVLayoutInfo@2@@Z 10069e42 f   vgui:vgui.dll
 0001:00068e48       ?getVirtualSize@Panel@vgui@@UAEXAAH0@Z 10069e48 f   vgui:vgui.dll
 0001:00068e4e       ?getApp@Panel@vgui@@UAEPAVApp@2@XZ 10069e4e f   vgui:vgui.dll
 0001:00068e54       ?setAsMouseArena@Panel@vgui@@UAEX_N@Z 10069e54 f   vgui:vgui.dll
 0001:00068e5a       ?setAsMouseCapture@Panel@vgui@@UAEX_N@Z 10069e5a f   vgui:vgui.dll
 0001:00068e60       ?getBgColor@Panel@vgui@@UAEXAAH000@Z 10069e60 f   vgui:vgui.dll
 0001:00068e66       ?getBgColor@Panel@vgui@@UAEXAAVColor@2@@Z 10069e66 f   vgui:vgui.dll
 0001:00068e6c       ?getFgColor@Panel@vgui@@UAEXAAH000@Z 10069e6c f   vgui:vgui.dll
 0001:00068e72       ?getFgColor@Panel@vgui@@UAEXAAVColor@2@@Z 10069e72 f   vgui:vgui.dll
 0001:00068e78       ?setBgColor@Panel@vgui@@UAEXW4SchemeColor@Scheme@2@@Z 10069e78 f   vgui:vgui.dll
 0001:00068e7e       ?setBgColor@Panel@vgui@@UAEXHHHH@Z 10069e7e f   vgui:vgui.dll
 0001:00068e84       ?setBgColor@Panel@vgui@@UAEXVColor@2@@Z 10069e84 f   vgui:vgui.dll
 0001:00068e8a       ?setFgColor@Panel@vgui@@UAEXW4SchemeColor@Scheme@2@@Z 10069e8a f   vgui:vgui.dll
 0001:00068e90       ?setFgColor@Panel@vgui@@UAEXHHHH@Z 10069e90 f   vgui:vgui.dll
 0001:00068e96       ?setFgColor@Panel@vgui@@UAEXVColor@2@@Z 10069e96 f   vgui:vgui.dll
 0001:00068e9c       ?applyPersistanceText@Panel@vgui@@UAEXPBD@Z 10069e9c f   vgui:vgui.dll
 0001:00068ea2       ?getPersistanceText@Panel@vgui@@UAEXPADH@Z 10069ea2 f   vgui:vgui.dll
 0001:00068ea8       ?createPropertyPanel@Panel@vgui@@UAEPAV12@XZ 10069ea8 f   vgui:vgui.dll
 0001:00068eae       ?repaintParent@Panel@vgui@@UAEXXZ 10069eae f   vgui:vgui.dll
 0001:00068eb4       ?removeAllChildren@Panel@vgui@@UAEXXZ 10069eb4 f   vgui:vgui.dll
 0001:00068eba       ?isBuildGroupEnabled@Panel@vgui@@UAE_NXZ 10069eba f   vgui:vgui.dll
 0001:00068ec0       ?setBuildGroup@Panel@vgui@@UAEXPAVBuildGroup@2@PBD@Z 10069ec0 f   vgui:vgui.dll
 0001:00068ec6       ?setEnabled@Panel@vgui@@UAEX_N@Z 10069ec6 f   vgui:vgui.dll
 0001:00068ecc       ?isEnabled@Panel@vgui@@UAE_NXZ 10069ecc f   vgui:vgui.dll
 0001:00068ed2       ?getSurfaceBase@Panel@vgui@@UAEPAVSurfaceBase@2@XZ 10069ed2 f   vgui:vgui.dll
 0001:00068ed8       ?getPreferredSize@Panel@vgui@@UAEXAAH0@Z 10069ed8 f   vgui:vgui.dll
 0001:00068ede       ?setPreferredSize@Panel@vgui@@UAEXHH@Z 10069ede f   vgui:vgui.dll
 0001:00068ee4       ?getPaintSize@Panel@vgui@@UAEXAAH0@Z 10069ee4 f   vgui:vgui.dll
 0001:00068eea       ?getInset@Panel@vgui@@UAEXAAH000@Z 10069eea f   vgui:vgui.dll
 0001:00068ef0       ?setPaintEnabled@Panel@vgui@@UAEX_N@Z 10069ef0 f   vgui:vgui.dll
 0001:00068ef6       ?setPaintBackgroundEnabled@Panel@vgui@@UAEX_N@Z 10069ef6 f   vgui:vgui.dll
 0001:00068efc       ?setPaintBorderEnabled@Panel@vgui@@UAEX_N@Z 10069efc f   vgui:vgui.dll
 0001:00068f02       ?setBorder@Panel@vgui@@UAEXPAVBorder@2@@Z 10069f02 f   vgui:vgui.dll
 0001:00068f08       ?setAutoFocusNavEnabled@Panel@vgui@@UAEX_N@Z 10069f08 f   vgui:vgui.dll
 0001:00068f0e       ?isAutoFocusNavEnabled@Panel@vgui@@UAE_NXZ 10069f0e f   vgui:vgui.dll
 0001:00068f14       ?addFocusChangeSignal@Panel@vgui@@UAEXPAVFocusChangeSignal@2@@Z 10069f14 f   vgui:vgui.dll
 0001:00068f1a       ?requestFocusNext@Panel@vgui@@UAEXXZ 10069f1a f   vgui:vgui.dll
 0001:00068f20       ?requestFocusPrev@Panel@vgui@@UAEXXZ 10069f20 f   vgui:vgui.dll
 0001:00068f26       ?setFocusNavGroup@Panel@vgui@@UAEXPAVFocusNavGroup@2@@Z 10069f26 f   vgui:vgui.dll
 0001:00068f2c       ?invalidateLayout@Panel@vgui@@UAEX_N@Z 10069f2c f   vgui:vgui.dll
 0001:00068f32       ?setLayout@Panel@vgui@@UAEXPAVLayout@2@@Z 10069f32 f   vgui:vgui.dll
 0001:00068f38       ?getChild@Panel@vgui@@UAEPAV12@H@Z 10069f38 f   vgui:vgui.dll
 0001:00068f3e       ?getChildCount@Panel@vgui@@UAEHXZ 10069f3e f   vgui:vgui.dll
 0001:00068f44       ?hasFocus@Panel@vgui@@UAE_NXZ 10069f44 f   vgui:vgui.dll
 0001:00068f4a       ?requestFocus@Panel@vgui@@UAEXXZ 10069f4a f   vgui:vgui.dll
 0001:00068f50       ?getMinimumSize@Panel@vgui@@UAEXAAH0@Z 10069f50 f   vgui:vgui.dll
 0001:00068f56       ?setMinimumSize@Panel@vgui@@UAEXHH@Z 10069f56 f   vgui:vgui.dll
 0001:00068f5c       ?getCursor@Panel@vgui@@UAEPAVCursor@2@XZ 10069f5c f   vgui:vgui.dll
 0001:00068f62       ?setCursor@Panel@vgui@@UAEXPAVCursor@2@@Z 10069f62 f   vgui:vgui.dll
 0001:00068f68       ?setCursor@Panel@vgui@@UAEXW4SchemeCursor@Scheme@2@@Z 10069f68 f   vgui:vgui.dll
 0001:00068f6e       ?screenToLocal@Panel@vgui@@UAEXAAH0@Z 10069f6e f   vgui:vgui.dll
 0001:00068f74       ?localToScreen@Panel@vgui@@UAEXAAH0@Z 10069f74 f   vgui:vgui.dll
 0001:00068f7a       ?isWithinTraverse@Panel@vgui@@UAEPAV12@HH@Z 10069f7a f   vgui:vgui.dll
 0001:00068f80       ?isWithin@Panel@vgui@@UAE_NHH@Z 10069f80 f   vgui:vgui.dll
 0001:00068f86       ?removeRepaintSignal@Panel@vgui@@UAEXPAVRepaintSignal@2@@Z 10069f86 f   vgui:vgui.dll
 0001:00068f8c       ?addRepaintSignal@Panel@vgui@@UAEXPAVRepaintSignal@2@@Z 10069f8c f   vgui:vgui.dll
 0001:00068f92       ?removeInputSignal@Panel@vgui@@UAEXPAVInputSignal@2@@Z 10069f92 f   vgui:vgui.dll
 0001:00068f98       ?addInputSignal@Panel@vgui@@UAEXPAVInputSignal@2@@Z 10069f98 f   vgui:vgui.dll
 0001:00068f9e       ?wasKeyReleased@Panel@vgui@@UAE_NW4KeyCode@2@@Z 10069f9e f   vgui:vgui.dll
 0001:00068fa4       ?wasKeyTyped@Panel@vgui@@UAE_NW4KeyCode@2@@Z 10069fa4 f   vgui:vgui.dll
 0001:00068faa       ?isKeyDown@Panel@vgui@@UAE_NW4KeyCode@2@@Z 10069faa f   vgui:vgui.dll
 0001:00068fb0       ?wasKeyPressed@Panel@vgui@@UAE_NW4KeyCode@2@@Z 10069fb0 f   vgui:vgui.dll
 0001:00068fb6       ?wasMouseReleased@Panel@vgui@@UAE_NW4MouseCode@2@@Z 10069fb6 f   vgui:vgui.dll
 0001:00068fbc       ?isMouseDown@Panel@vgui@@UAE_NW4MouseCode@2@@Z 10069fbc f   vgui:vgui.dll
 0001:00068fc2       ?wasMouseDoublePressed@Panel@vgui@@UAE_NW4MouseCode@2@@Z 10069fc2 f   vgui:vgui.dll
 0001:00068fc8       ?wasMousePressed@Panel@vgui@@UAE_NW4MouseCode@2@@Z 10069fc8 f   vgui:vgui.dll
 0001:00068fce       ?removeChild@Panel@vgui@@UAEXPAV12@@Z 10069fce f   vgui:vgui.dll
 0001:00068fd4       ?insertChildAt@Panel@vgui@@UAEXPAV12@H@Z 10069fd4 f   vgui:vgui.dll
 0001:00068fda       ?addChild@Panel@vgui@@UAEXPAV12@@Z 10069fda f   vgui:vgui.dll
 0001:00068fe0       ?setParent@Panel@vgui@@UAEXPAV12@@Z 10069fe0 f   vgui:vgui.dll
 0001:00068fe6       ?getClipRect@Panel@vgui@@UAEXAAH000@Z 10069fe6 f   vgui:vgui.dll
 0001:00068fec       ?getAbsExtents@Panel@vgui@@UAEXAAH000@Z 10069fec f   vgui:vgui.dll
 0001:00068ff2       ?repaintAll@Panel@vgui@@UAEXXZ 10069ff2 f   vgui:vgui.dll
 0001:00068ff8       ?repaint@Panel@vgui@@UAEXXZ 10069ff8 f   vgui:vgui.dll
 0001:00068ffe       ?isVisibleUp@Panel@vgui@@UAE_NXZ 10069ffe f   vgui:vgui.dll
 0001:00069004       ?isVisible@Panel@vgui@@UAE_NXZ 1006a004 f   vgui:vgui.dll
 0001:0006900a       ?setVisible@Panel@vgui@@UAEX_N@Z 1006a00a f   vgui:vgui.dll
 0001:00069010       ?getParent@Panel@vgui@@UAEPAV12@XZ 1006a010 f   vgui:vgui.dll
 0001:00069016       ?getTall@Panel@vgui@@UAEHXZ 1006a016 f   vgui:vgui.dll
 0001:0006901c       ?getWide@Panel@vgui@@UAEHXZ 1006a01c f   vgui:vgui.dll
 0001:00069022       ?getBounds@Panel@vgui@@UAEXAAH000@Z 1006a022 f   vgui:vgui.dll
 0001:00069028       ?setBounds@Panel@vgui@@UAEXHHHH@Z 1006a028 f   vgui:vgui.dll
 0001:0006902e       ?getSize@Panel@vgui@@UAEXAAH0@Z 1006a02e f   vgui:vgui.dll
 0001:00069034       ?setSize@Panel@vgui@@UAEXHH@Z 1006a034 f   vgui:vgui.dll
 0001:0006903a       ?getPos@Panel@vgui@@UAEXAAH0@Z 1006a03a f   vgui:vgui.dll
 0001:00069040       ?setPos@Panel@vgui@@UAEXHH@Z 1006a040 f   vgui:vgui.dll
 0001:00069046       ?recomputeMinimumSize@Label@vgui@@MAEXXZ 1006a046 f   vgui:vgui.dll
 0001:0006904c       ?computeAlignment@Label@vgui@@MAEXAAH00000000000@Z 1006a04c f   vgui:vgui.dll
 0001:00069052       ?setContentFitted@Label@vgui@@UAEX_N@Z 1006a052 f   vgui:vgui.dll
 0001:00069058       ?setContentAlignment@Label@vgui@@UAEXW4Alignment@12@@Z 1006a058 f   vgui:vgui.dll
 0001:0006905e       ?setTextAlignment@Label@vgui@@UAEXW4Alignment@12@@Z 1006a05e f   vgui:vgui.dll
 0001:00069064       ?getContentSize@Label@vgui@@UAEXAAH0@Z 1006a064 f   vgui:vgui.dll
 0001:0006906a       ?getTextSize@Label@vgui@@UAEXAAH0@Z 1006a06a f   vgui:vgui.dll
 0001:00069070       ?setFont@Label@vgui@@UAEXW4SchemeFont@Scheme@2@@Z 1006a070 f   vgui:vgui.dll
 0001:00069076       ?setFont@Label@vgui@@UAEXPAVFont@2@@Z 1006a076 f   vgui:vgui.dll
 0001:0006907c       ?setText@Label@vgui@@UAEXHPBD@Z 1006a07c f   vgui:vgui.dll
 0001:00069082       ?setText@Label@vgui@@UAAXPBDZZ 1006a082 f   vgui:vgui.dll
 0001:00069088       ?setImage@Label@vgui@@UAEXPAVImage@2@@Z 1006a088 f   vgui:vgui.dll
 0001:0006908e       ?paint@Label@vgui@@MAEXXZ  1006a08e f   vgui:vgui.dll
 0001:00069094       ?setFgColor@Label@vgui@@UAEXW4SchemeColor@Scheme@2@@Z 1006a094 f   vgui:vgui.dll
 0001:0006909a       ?setFgColor@Label@vgui@@UAEXHHHH@Z 1006a09a f   vgui:vgui.dll
 0001:000690a0       ?createPropertyPanel@Label@vgui@@UAEPAVPanel@2@XZ 1006a0a0 f   vgui:vgui.dll
 0001:000690a6       ?init@Label@vgui@@AAEXHPBD_N@Z 1006a0a6 f   vgui:vgui.dll
 0001:000690ac       ??0Panel@vgui@@QAE@HHHH@Z  1006a0ac f   vgui:vgui.dll
 0001:000690b2       ?doPaint@Image@vgui@@UAEXPAVPanel@2@@Z 1006a0b2 f   vgui:vgui.dll
 0001:000690b8       ?paint@Image@vgui@@MAEXPAVPanel@2@@Z 1006a0b8 f   vgui:vgui.dll
 0001:000690be       ?drawTexturedRect@Image@vgui@@MAEXHHHH@Z 1006a0be f   vgui:vgui.dll
 0001:000690c4       ?drawSetTexture@Image@vgui@@MAEXH@Z 1006a0c4 f   vgui:vgui.dll
 0001:000690ca       ?drawSetTextureRGBA@Image@vgui@@MAEXHPBDHH@Z 1006a0ca f   vgui:vgui.dll
 0001:000690d0       ?drawPrintChar@Image@vgui@@MAEXD@Z 1006a0d0 f   vgui:vgui.dll
 0001:000690d6       ?drawPrintChar@Image@vgui@@MAEXHHD@Z 1006a0d6 f   vgui:vgui.dll
 0001:000690dc       ?drawPrintText@Image@vgui@@MAEXPBDH@Z 1006a0dc f   vgui:vgui.dll
 0001:000690e2       ?drawPrintText@Image@vgui@@MAEXHHPBDH@Z 1006a0e2 f   vgui:vgui.dll
 0001:000690e8       ?drawSetTextPos@Image@vgui@@MAEXHH@Z 1006a0e8 f   vgui:vgui.dll
 0001:000690ee       ?drawSetTextColor@Image@vgui@@MAEXW4SchemeColor@Scheme@2@@Z 1006a0ee f   vgui:vgui.dll
 0001:000690f4       ?drawSetTextColor@Image@vgui@@MAEXHHHH@Z 1006a0f4 f   vgui:vgui.dll
 0001:000690fa       ?drawSetTextFont@Image@vgui@@MAEXW4SchemeFont@Scheme@2@@Z 1006a0fa f   vgui:vgui.dll
 0001:00069100       ?drawSetTextFont@Image@vgui@@MAEXPAVFont@2@@Z 1006a100 f   vgui:vgui.dll
 0001:00069106       ?drawOutlinedRect@Image@vgui@@MAEXHHHH@Z 1006a106 f   vgui:vgui.dll
 0001:0006910c       ?drawFilledRect@Image@vgui@@MAEXHHHH@Z 1006a10c f   vgui:vgui.dll
 0001:00069112       ?drawSetColor@Image@vgui@@MAEXW4SchemeColor@Scheme@2@@Z 1006a112 f   vgui:vgui.dll
 0001:00069118       ?drawSetColor@Image@vgui@@MAEXHHHH@Z 1006a118 f   vgui:vgui.dll
 0001:0006911e       ?setSize@Image@vgui@@MAEXHH@Z 1006a11e f   vgui:vgui.dll
 0001:00069124       ?getColor@Image@vgui@@UAEXAAVColor@2@@Z 1006a124 f   vgui:vgui.dll
 0001:0006912a       ?setColor@Image@vgui@@UAEXVColor@2@@Z 1006a12a f   vgui:vgui.dll
 0001:00069130       ?getSize@Image@vgui@@UAEXAAH0@Z 1006a130 f   vgui:vgui.dll
 0001:00069136       ?getPos@Image@vgui@@UAEXAAH0@Z 1006a136 f   vgui:vgui.dll
 0001:0006913c       ?setPos@Image@vgui@@UAEXHH@Z 1006a13c f   vgui:vgui.dll
 0001:00069142       ?getInset@Border@vgui@@UAEXAAH000@Z 1006a142 f   vgui:vgui.dll
 0001:00069148       ?setInset@Border@vgui@@UAEXHHHH@Z 1006a148 f   vgui:vgui.dll
 0001:0006914e       ?drawPrintChar@Border@vgui@@MAEXHHD@Z 1006a14e f   vgui:vgui.dll
 0001:00069154       ?drawPrintText@Border@vgui@@MAEXHHPBDH@Z 1006a154 f   vgui:vgui.dll
 0001:0006915a       ?drawSetTextPos@Border@vgui@@MAEXHH@Z 1006a15a f   vgui:vgui.dll
 0001:00069160       ?drawOutlinedRect@Border@vgui@@MAEXHHHH@Z 1006a160 f   vgui:vgui.dll
 0001:00069166       ?drawFilledRect@Border@vgui@@MAEXHHHH@Z 1006a166 f   vgui:vgui.dll
 0001:0006916c       ??0Color@vgui@@QAE@HHHH@Z  1006a16c f   vgui:vgui.dll
 0001:00069172       ?init@LineBorder@vgui@@EAEXHVColor@2@@Z 1006a172 f   vgui:vgui.dll
 0001:00069178       ?paint@LineBorder@vgui@@MAEXPAVPanel@2@@Z 1006a178 f   vgui:vgui.dll
 0001:0006917e       ?setImage@ImagePanel@vgui@@UAEXPAVImage@2@@Z 1006a17e f   vgui:vgui.dll
 0001:00069184       ?paintBackground@ImagePanel@vgui@@MAEXXZ 1006a184 f   vgui:vgui.dll
 0001:0006918a       ??0Panel@vgui@@QAE@XZ      1006a18a f   vgui:vgui.dll
 0001:00069190       ?setRGBA@Bitmap@vgui@@MAEXHHEEEE@Z 1006a190 f   vgui:vgui.dll
 0001:00069196       ?paint@Bitmap@vgui@@UAEXPAVPanel@2@@Z 1006a196 f   vgui:vgui.dll
 0001:0006919c       ?setSize@Bitmap@vgui@@MAEXHH@Z 1006a19c f   vgui:vgui.dll
 0001:000691a2       ?loadTGA@BitmapTGA@vgui@@EAE_NPAVInputStream@2@_N@Z 1006a1a2 f   vgui:vgui.dll
 0001:000691a8       ?setButtonController@Button@vgui@@MAEXPAVButtonController@2@@Z 1006a1a8 f   vgui:vgui.dll
 0001:000691ae       ?fireActionSignal@Button@vgui@@UAEXXZ 1006a1ae f   vgui:vgui.dll
 0001:000691b4       ?isMouseClickEnabled@Button@vgui@@UAE_NW4MouseCode@2@@Z 1006a1b4 f   vgui:vgui.dll
 0001:000691ba       ?setMouseClickEnabled@Button@vgui@@UAEXW4MouseCode@2@_N@Z 1006a1ba f   vgui:vgui.dll
 0001:000691c0       ?setButtonBorderEnabled@Button@vgui@@UAEX_N@Z 1006a1c0 f   vgui:vgui.dll
 0001:000691c6       ?isArmed@Button@vgui@@UAE_NXZ 1006a1c6 f   vgui:vgui.dll
 0001:000691cc       ?setButtonGroup@Button@vgui@@UAEXPAVButtonGroup@2@@Z 1006a1cc f   vgui:vgui.dll
 0001:000691d2       ?addActionSignal@Button@vgui@@UAEXPAVActionSignal@2@@Z 1006a1d2 f   vgui:vgui.dll
 0001:000691d8       ?doClick@Button@vgui@@UAEXXZ 1006a1d8 f   vgui:vgui.dll
 0001:000691de       ?isSelected@Button@vgui@@UAE_NXZ 1006a1de f   vgui:vgui.dll
 0001:000691e4       ?setArmed@Button@vgui@@UAEX_N@Z 1006a1e4 f   vgui:vgui.dll
 0001:000691ea       ?setSelectedDirect@Button@vgui@@UAEX_N@Z 1006a1ea f   vgui:vgui.dll
 0001:000691f0       ?setSelected@Button@vgui@@UAEX_N@Z 1006a1f0 f   vgui:vgui.dll
 0001:000691f6       ?paintBackground@Button@vgui@@MAEXXZ 1006a1f6 f   vgui:vgui.dll
 0001:000691fc       ?createPropertyPanel@Button@vgui@@UAEPAVPanel@2@XZ 1006a1fc f   vgui:vgui.dll
 0001:00069202       ??0LineBorder@vgui@@QAE@VColor@1@@Z 1006a202 f   vgui:vgui.dll
 0001:00069208       ??0Button@vgui@@QAE@PBDHHHH@Z 1006a208 f   vgui:vgui.dll
 0001:0006920e       ?getDefaultCursor@Cursor@vgui@@UAE?AW4DefaultCursor@12@XZ 1006a20e f   vgui:vgui.dll
 0001:00069214       ?getBitmap@Cursor@vgui@@UAEPAVBitmap@2@XZ 1006a214 f   vgui:vgui.dll
 0001:0006921a       ?privateInit@Cursor@vgui@@EAEXPAVBitmap@2@HH@Z 1006a21a f   vgui:vgui.dll
 0001:00069220       ?getHotspot@Cursor@vgui@@UAEXAAH0@Z 1006a220 f   vgui:vgui.dll
 0001:00069226       ?internalTick@App@vgui@@MAEXXZ 1006a226 f   vgui:vgui.dll
 0001:0006922c       ?platTick@App@vgui@@MAEXXZ 1006a22c f   vgui:vgui.dll
 0001:00069232       ?surfaceBaseDeleted@App@vgui@@MAEXPAVSurfaceBase@2@@Z 1006a232 f   vgui:vgui.dll
 0001:00069238       ?surfaceBaseCreated@App@vgui@@MAEXPAVSurfaceBase@2@@Z 1006a238 f   vgui:vgui.dll
 0001:0006923e       ?setMouseFocus@App@vgui@@EAEXPAVPanel@2@@Z 1006a23e f   vgui:vgui.dll
 0001:00069244       ?updateMouseFocus@App@vgui@@EAEXHHPAVSurfaceBase@2@@Z 1006a244 f   vgui:vgui.dll
 0001:0006924a       ?init@App@vgui@@EAEXXZ     1006a24a f   vgui:vgui.dll
 0001:00069250       ?internalKeyReleased@App@vgui@@UAEXW4KeyCode@2@PAVSurfaceBase@2@@Z 1006a250 f   vgui:vgui.dll
 0001:00069256       ?internalKeyTyped@App@vgui@@UAEXW4KeyCode@2@PAVSurfaceBase@2@@Z 1006a256 f   vgui:vgui.dll
 0001:0006925c       ?internalKeyPressed@App@vgui@@UAEXW4KeyCode@2@PAVSurfaceBase@2@@Z 1006a25c f   vgui:vgui.dll
 0001:00069262       ?internalMouseWheeled@App@vgui@@UAEXHPAVSurfaceBase@2@@Z 1006a262 f   vgui:vgui.dll
 0001:00069268       ?internalMouseReleased@App@vgui@@UAEXW4MouseCode@2@PAVSurfaceBase@2@@Z 1006a268 f   vgui:vgui.dll
 0001:0006926e       ?internalMouseDoublePressed@App@vgui@@UAEXW4MouseCode@2@PAVSurfaceBase@2@@Z 1006a26e f   vgui:vgui.dll
 0001:00069274       ?internalMousePressed@App@vgui@@UAEXW4MouseCode@2@PAVSurfaceBase@2@@Z 1006a274 f   vgui:vgui.dll
 0001:0006927a       ?internalCursorMoved@App@vgui@@UAEXHHPAVSurfaceBase@2@@Z 1006a27a f   vgui:vgui.dll
 0001:00069280       ?run@App@vgui@@UAEXXZ      1006a280 f   vgui:vgui.dll
 0001:00069286       ?setMinimumTickMillisInterval@App@vgui@@UAEXH@Z 1006a286 f   vgui:vgui.dll
 0001:0006928c       ?getCursorOveride@App@vgui@@UAEPAVCursor@2@XZ 1006a28c f   vgui:vgui.dll
 0001:00069292       ?setCursorOveride@App@vgui@@UAEXPAVCursor@2@@Z 1006a292 f   vgui:vgui.dll
 0001:00069298       ?getRegistryInteger@App@vgui@@UAE_NPBDAAH@Z 1006a298 f   vgui:vgui.dll
 0001:0006929e       ?setRegistryInteger@App@vgui@@UAE_NPBDH@Z 1006a29e f   vgui:vgui.dll
 0001:000692a4       ?getRegistryString@App@vgui@@UAE_NPBDPADH@Z 1006a2a4 f   vgui:vgui.dll
 0001:000692aa       ?setRegistryString@App@vgui@@UAE_NPBD0@Z 1006a2aa f   vgui:vgui.dll
 0001:000692b0       ?internalSetMouseArena@App@vgui@@UAEXHHHH_N@Z 1006a2b0 f   vgui:vgui.dll
 0001:000692b6       ?reset@App@vgui@@UAEXXZ    1006a2b6 f   vgui:vgui.dll
 0001:000692bc       ?getClipboardText@App@vgui@@UAEHHPADH@Z 1006a2bc f   vgui:vgui.dll
 0001:000692c2       ?setClipboardText@App@vgui@@UAEXPBDH@Z 1006a2c2 f   vgui:vgui.dll
 0001:000692c8       ?getClipboardTextCount@App@vgui@@UAEHXZ 1006a2c8 f   vgui:vgui.dll
 0001:000692ce       ?getKeyCodeText@App@vgui@@UAEXW4KeyCode@2@PADH@Z 1006a2ce f   vgui:vgui.dll
 0001:000692d4       ?getKeyCodeChar@App@vgui@@UAEDW4KeyCode@2@_N@Z 1006a2d4 f   vgui:vgui.dll
 0001:000692da       ?getTimeMillis@App@vgui@@UAEJXZ 1006a2da f   vgui:vgui.dll
 0001:000692e0       ?enableBuildMode@App@vgui@@UAEXXZ 1006a2e0 f   vgui:vgui.dll
 0001:000692e6       ?getScheme@App@vgui@@UAEPAVScheme@2@XZ 1006a2e6 f   vgui:vgui.dll
 0001:000692ec       ?setScheme@App@vgui@@UAEXPAVScheme@2@@Z 1006a2ec f   vgui:vgui.dll
 0001:000692f2       ?repaintAll@App@vgui@@UAEXXZ 1006a2f2 f   vgui:vgui.dll
 0001:000692f8       ?getFocus@App@vgui@@UAEPAVPanel@2@XZ 1006a2f8 f   vgui:vgui.dll
 0001:000692fe       ?requestFocus@App@vgui@@UAEXPAVPanel@2@@Z 1006a2fe f   vgui:vgui.dll
 0001:00069304       ?setMouseArena@App@vgui@@UAEXHHHH_N@Z 1006a304 f   vgui:vgui.dll
 0001:0006930a       ?setMouseArena@App@vgui@@UAEXPAVPanel@2@@Z 1006a30a f   vgui:vgui.dll
 0001:00069310       ?setMouseCapture@App@vgui@@UAEXPAVPanel@2@@Z 1006a310 f   vgui:vgui.dll
 0001:00069316       ?getCursorPos@App@vgui@@UAEXAAH0@Z 1006a316 f   vgui:vgui.dll
 0001:0006931c       ?setCursorPos@App@vgui@@UAEXHH@Z 1006a31c f   vgui:vgui.dll
 0001:00069322       ?addTickSignal@App@vgui@@UAEXPAVTickSignal@2@@Z 1006a322 f   vgui:vgui.dll
 0001:00069328       ?wasKeyReleased@App@vgui@@UAE_NW4KeyCode@2@PAVPanel@2@@Z 1006a328 f   vgui:vgui.dll
 0001:0006932e       ?wasKeyTyped@App@vgui@@UAE_NW4KeyCode@2@PAVPanel@2@@Z 1006a32e f   vgui:vgui.dll
 0001:00069334       ?isKeyDown@App@vgui@@UAE_NW4KeyCode@2@PAVPanel@2@@Z 1006a334 f   vgui:vgui.dll
 0001:0006933a       ?wasKeyPressed@App@vgui@@UAE_NW4KeyCode@2@PAVPanel@2@@Z 1006a33a f   vgui:vgui.dll
 0001:00069340       ?wasMouseReleased@App@vgui@@UAE_NW4MouseCode@2@PAVPanel@2@@Z 1006a340 f   vgui:vgui.dll
 0001:00069346       ?isMouseDown@App@vgui@@UAE_NW4MouseCode@2@PAVPanel@2@@Z 1006a346 f   vgui:vgui.dll
 0001:0006934c       ?wasMouseDoublePressed@App@vgui@@UAE_NW4MouseCode@2@PAVPanel@2@@Z 1006a34c f   vgui:vgui.dll
 0001:00069352       ?wasMousePressed@App@vgui@@UAE_NW4MouseCode@2@PAVPanel@2@@Z 1006a352 f   vgui:vgui.dll
 0001:00069358       ?externalTick@App@vgui@@UAEXXZ 1006a358 f   vgui:vgui.dll
 0001:0006935e       ?stop@App@vgui@@UAEXXZ     1006a35e f   vgui:vgui.dll
 0001:00069364       ?start@App@vgui@@UAEXXZ    1006a364 f   vgui:vgui.dll
 0001:0006936a       ??0ImagePanel@vgui@@QAE@PAVImage@1@@Z 1006a36a f   vgui:vgui.dll
 0001:00069370       ??0Label@vgui@@QAE@PBD@Z   1006a370 f   vgui:vgui.dll
 0001:00069376       ?setFont@TextImage@vgui@@UAEXW4SchemeFont@Scheme@2@@Z 1006a376 f   vgui:vgui.dll
 0001:0006937c       ?setFont@TextImage@vgui@@UAEXPAVFont@2@@Z 1006a37c f   vgui:vgui.dll
 0001:00069382       ?setText@TextImage@vgui@@UAEXHPBD@Z 1006a382 f   vgui:vgui.dll
 0001:00069388       ?setText@TextImage@vgui@@UAEXPBD@Z 1006a388 f   vgui:vgui.dll
 0001:0006938e       ?getFont@TextImage@vgui@@UAEPAVFont@2@XZ 1006a38e f   vgui:vgui.dll
 0001:00069394       ?getTextSizeWrapped@TextImage@vgui@@UAEXAAH0@Z 1006a394 f   vgui:vgui.dll
 0001:0006939a       ?getTextSize@TextImage@vgui@@UAEXAAH0@Z 1006a39a f   vgui:vgui.dll
 0001:000693a0       ?init@TextImage@vgui@@EAEXHPBD@Z 1006a3a0 f   vgui:vgui.dll
 0001:000693a6       ?paint@TextImage@vgui@@MAEXPAVPanel@2@@Z 1006a3a6 f   vgui:vgui.dll
 0001:000693ac       ?setSize@TextImage@vgui@@UAEXHH@Z 1006a3ac f   vgui:vgui.dll
 0001:000693b2       ??0Slider@vgui@@QAE@HHHH_N@Z 1006a3b2 f   vgui:vgui.dll
 0001:000693b8       ??0ScrollBar@vgui@@QAE@HHHH_N@Z 1006a3b8 f   vgui:vgui.dll
 0001:000693be       ??0Button@vgui@@QAE@PBDHH@Z 1006a3be f   vgui:vgui.dll
 0001:000693c4       ?fireMinimizingSignal@Frame@vgui@@UAEXXZ 1006a3c4 f   vgui:vgui.dll
 0001:000693ca       ?fireClosingSignal@Frame@vgui@@UAEXXZ 1006a3ca f   vgui:vgui.dll
 0001:000693d0       ?setCloseButtonVisible@Frame@vgui@@UAEX_N@Z 1006a3d0 f   vgui:vgui.dll
 0001:000693d6       ?setMaximizeButtonVisible@Frame@vgui@@UAEX_N@Z 1006a3d6 f   vgui:vgui.dll
 0001:000693dc       ?setMinimizeButtonVisible@Frame@vgui@@UAEX_N@Z 1006a3dc f   vgui:vgui.dll
 0001:000693e2       ?setTrayButtonVisible@Frame@vgui@@UAEX_N@Z 1006a3e2 f   vgui:vgui.dll
 0001:000693e8       ?setMenuButtonVisible@Frame@vgui@@UAEX_N@Z 1006a3e8 f   vgui:vgui.dll
 0001:000693ee       ?addFrameSignal@Frame@vgui@@UAEXPAVFrameSignal@2@@Z 1006a3ee f   vgui:vgui.dll
 0001:000693f4       ?isSizeable@Frame@vgui@@UAE_NXZ 1006a3f4 f   vgui:vgui.dll
 0001:000693fa       ?isMoveable@Frame@vgui@@UAE_NXZ 1006a3fa f   vgui:vgui.dll
 0001:00069400       ?setSizeable@Frame@vgui@@UAEX_N@Z 1006a400 f   vgui:vgui.dll
 0001:00069406       ?setMoveable@Frame@vgui@@UAEX_N@Z 1006a406 f   vgui:vgui.dll
 0001:0006940c       ?getTitle@Frame@vgui@@UAEXPADH@Z 1006a40c f   vgui:vgui.dll
 0001:00069412       ?setTitle@Frame@vgui@@UAEXPBD@Z 1006a412 f   vgui:vgui.dll
 0001:00069418       ?getClient@Frame@vgui@@UAEPAVPanel@2@XZ 1006a418 f   vgui:vgui.dll
 0001:0006941e       ?isInternal@Frame@vgui@@UAE_NXZ 1006a41e f   vgui:vgui.dll
 0001:00069424       ?setInternal@Frame@vgui@@UAEX_N@Z 1006a424 f   vgui:vgui.dll
 0001:0006942a       ?paintBackground@Frame@vgui@@UAEXXZ 1006a42a f   vgui:vgui.dll
 0001:00069430       ?setVisible@Frame@vgui@@UAEX_N@Z 1006a430 f   vgui:vgui.dll
 0001:00069436       ?setSize@Frame@vgui@@UAEXHH@Z 1006a436 f   vgui:vgui.dll
 0001:0006943c       ?getTextImage@TextPanel@vgui@@UAEPAVTextImage@2@XZ 1006a43c f   vgui:vgui.dll
 0001:00069442       ?setFont@TextPanel@vgui@@UAEXW4SchemeFont@Scheme@2@@Z 1006a442 f   vgui:vgui.dll
 0001:00069448       ?setFont@TextPanel@vgui@@UAEXPAVFont@2@@Z 1006a448 f   vgui:vgui.dll
 0001:0006944e       ?setText@TextPanel@vgui@@UAEXPBD@Z 1006a44e f   vgui:vgui.dll
 0001:00069454       ?paint@TextPanel@vgui@@MAEXXZ 1006a454 f   vgui:vgui.dll
 0001:0006945a       ?setFgColor@TextPanel@vgui@@UAEXW4SchemeColor@Scheme@2@@Z 1006a45a f   vgui:vgui.dll
 0001:00069460       ?setFgColor@TextPanel@vgui@@UAEXHHHH@Z 1006a460 f   vgui:vgui.dll
 0001:00069466       ?setSize@TextPanel@vgui@@UAEXHH@Z 1006a466 f   vgui:vgui.dll
 0001:0006946c       ?close@FileInputStream@vgui@@UAEXXZ 1006a46c f   vgui:vgui.dll
 0001:00069472       ?close@FileInputStream@vgui@@UAEXAA_N@Z 1006a472 f   vgui:vgui.dll
 0001:00069478       ?readUChar@FileInputStream@vgui@@UAEEAA_N@Z 1006a478 f   vgui:vgui.dll
 0001:0006947e       ?readUChar@FileInputStream@vgui@@UAEXPAEHAA_N@Z 1006a47e f   vgui:vgui.dll
 0001:00069484       ?getAvailable@FileInputStream@vgui@@UAEHAA_N@Z 1006a484 f   vgui:vgui.dll
 0001:0006948a       ?seekEnd@FileInputStream@vgui@@UAEXAA_N@Z 1006a48a f   vgui:vgui.dll
 0001:00069490       ?seekRelative@FileInputStream@vgui@@UAEXHAA_N@Z 1006a490 f   vgui:vgui.dll
 0001:00069496       ?seekStart@FileInputStream@vgui@@UAEXAA_N@Z 1006a496 f   vgui:vgui.dll
 0001:0006949c       ?getMiniApp@DesktopIcon@vgui@@UAEPAVMiniApp@2@XZ 1006a49c f   vgui:vgui.dll
 0001:000694a2       ?setDesktop@DesktopIcon@vgui@@UAEXPAVDesktop@2@@Z 1006a4a2 f   vgui:vgui.dll
 0001:000694a8       ?setImage@DesktopIcon@vgui@@UAEXPAVImage@2@@Z 1006a4a8 f   vgui:vgui.dll
 0001:000694ae       ?doActivate@DesktopIcon@vgui@@UAEXXZ 1006a4ae f   vgui:vgui.dll
 0001:000694b4       ?paintBackground@DesktopIcon@vgui@@MAEXXZ 1006a4b4 f   vgui:vgui.dll
 0001:000694ba       ?setName@MiniApp@vgui@@MAEXPBD@Z 1006a4ba f   vgui:vgui.dll
 0001:000694c0       ?getName@MiniApp@vgui@@UAEXPADH@Z 1006a4c0 f   vgui:vgui.dll
 0001:000694c6       ?recomputeScroll@ScrollPanel@vgui@@UAEXXZ 1006a4c6 f   vgui:vgui.dll
 0001:000694cc       ?validate@ScrollPanel@vgui@@UAEXXZ 1006a4cc f   vgui:vgui.dll
 0001:000694d2       ?getVerticalScrollBar@ScrollPanel@vgui@@UAEPAVScrollBar@2@XZ 1006a4d2 f   vgui:vgui.dll
 0001:000694d8       ?getHorizontalScrollBar@ScrollPanel@vgui@@UAEPAVScrollBar@2@XZ 1006a4d8 f   vgui:vgui.dll
 0001:000694de       ?recomputeClientSize@ScrollPanel@vgui@@UAEXXZ 1006a4de f   vgui:vgui.dll
 0001:000694e4       ?getScrollValue@ScrollPanel@vgui@@UAEXAAH0@Z 1006a4e4 f   vgui:vgui.dll
 0001:000694ea       ?setScrollValue@ScrollPanel@vgui@@UAEXHH@Z 1006a4ea f   vgui:vgui.dll
 0001:000694f0       ?getClientClip@ScrollPanel@vgui@@UAEPAVPanel@2@XZ 1006a4f0 f   vgui:vgui.dll
 0001:000694f6       ?getClient@ScrollPanel@vgui@@UAEPAVPanel@2@XZ 1006a4f6 f   vgui:vgui.dll
 0001:000694fc       ?setScrollBarAutoVisible@ScrollPanel@vgui@@UAEX_N0@Z 1006a4fc f   vgui:vgui.dll
 0001:00069502       ?setScrollBarVisible@ScrollPanel@vgui@@UAEX_N0@Z 1006a502 f   vgui:vgui.dll
 0001:00069508       ?setSize@ScrollPanel@vgui@@MAEXHH@Z 1006a508 f   vgui:vgui.dll
 0001:0006950e       ?fireIntChangeSignal@ScrollBar@vgui@@UAEXXZ 1006a50e f   vgui:vgui.dll
 0001:00069514       ?validate@ScrollBar@vgui@@UAEXXZ 1006a514 f   vgui:vgui.dll
 0001:0006951a       ?setButtonPressedScrollValue@ScrollBar@vgui@@UAEXH@Z 1006a51a f   vgui:vgui.dll
 0001:00069520       ?doButtonPressed@ScrollBar@vgui@@UAEXH@Z 1006a520 f   vgui:vgui.dll
 0001:00069526       ?getSlider@ScrollBar@vgui@@UAEPAVSlider@2@XZ 1006a526 f   vgui:vgui.dll
 0001:0006952c       ?setSlider@ScrollBar@vgui@@UAEXPAVSlider@2@@Z 1006a52c f   vgui:vgui.dll
 0001:00069532       ?getButton@ScrollBar@vgui@@UAEPAVButton@2@H@Z 1006a532 f   vgui:vgui.dll
 0001:00069538       ?setButton@ScrollBar@vgui@@UAEXPAVButton@2@H@Z 1006a538 f   vgui:vgui.dll
 0001:0006953e       ?hasFullRange@ScrollBar@vgui@@UAE_NXZ 1006a53e f   vgui:vgui.dll
 0001:00069544       ?isVertical@ScrollBar@vgui@@UAE_NXZ 1006a544 f   vgui:vgui.dll
 0001:0006954a       ?setRangeWindowEnabled@ScrollBar@vgui@@UAEX_N@Z 1006a54a f   vgui:vgui.dll
 0001:00069550       ?setRangeWindow@ScrollBar@vgui@@UAEXH@Z 1006a550 f   vgui:vgui.dll
 0001:00069556       ?setRange@ScrollBar@vgui@@UAEXHH@Z 1006a556 f   vgui:vgui.dll
 0001:0006955c       ?addIntChangeSignal@ScrollBar@vgui@@UAEXPAVIntChangeSignal@2@@Z 1006a55c f   vgui:vgui.dll
 0001:00069562       ?getValue@ScrollBar@vgui@@UAEHXZ 1006a562 f   vgui:vgui.dll
 0001:00069568       ?setValue@ScrollBar@vgui@@UAEXH@Z 1006a568 f   vgui:vgui.dll
 0001:0006956e       ?performLayout@ScrollBar@vgui@@MAEXXZ 1006a56e f   vgui:vgui.dll
 0001:00069574       ?setSize@ScrollBar@vgui@@UAEXHH@Z 1006a574 f   vgui:vgui.dll
 0001:0006957a       ?fireIntChangeSignal@Slider@vgui@@MAEXXZ 1006a57a f   vgui:vgui.dll
 0001:00069580       ?privateMouseReleased@Slider@vgui@@UAEXW4MouseCode@2@PAVPanel@2@@Z 1006a580 f   vgui:vgui.dll
 0001:00069586       ?privateMousePressed@Slider@vgui@@UAEXW4MouseCode@2@PAVPanel@2@@Z 1006a586 f   vgui:vgui.dll
 0001:0006958c       ?privateCursorMoved@Slider@vgui@@UAEXHHPAVPanel@2@@Z 1006a58c f   vgui:vgui.dll
 0001:00069592       ?recomputeValueFromNobPos@Slider@vgui@@EAEXXZ 1006a592 f   vgui:vgui.dll
 0001:00069598       ?recomputeNobPosFromValue@Slider@vgui@@EAEXXZ 1006a598 f   vgui:vgui.dll
 0001:0006959e       ?setButtonOffset@Slider@vgui@@UAEXH@Z 1006a59e f   vgui:vgui.dll
 0001:000695a4       ?hasFullRange@Slider@vgui@@UAE_NXZ 1006a5a4 f   vgui:vgui.dll
 0001:000695aa       ?getNobPos@Slider@vgui@@UAEXAAH0@Z 1006a5aa f   vgui:vgui.dll
 0001:000695b0       ?setRangeWindowEnabled@Slider@vgui@@UAEX_N@Z 1006a5b0 f   vgui:vgui.dll
 0001:000695b6       ?setRangeWindow@Slider@vgui@@UAEXH@Z 1006a5b6 f   vgui:vgui.dll
 0001:000695bc       ?getRange@Slider@vgui@@UAEXAAH0@Z 1006a5bc f   vgui:vgui.dll
 0001:000695c2       ?setRange@Slider@vgui@@UAEXHH@Z 1006a5c2 f   vgui:vgui.dll
 0001:000695c8       ?addIntChangeSignal@Slider@vgui@@UAEXPAVIntChangeSignal@2@@Z 1006a5c8 f   vgui:vgui.dll
 0001:000695ce       ?isVertical@Slider@vgui@@UAE_NXZ 1006a5ce f   vgui:vgui.dll
 0001:000695d4       ?getValue@Slider@vgui@@UAEHXZ 1006a5d4 f   vgui:vgui.dll
 0001:000695da       ?setValue@Slider@vgui@@UAEXH@Z 1006a5da f   vgui:vgui.dll
 0001:000695e0       ?paintBackground@Slider@vgui@@MAEXXZ 1006a5e0 f   vgui:vgui.dll
 0001:000695e6       ?setSize@Slider@vgui@@UAEXHH@Z 1006a5e6 f   vgui:vgui.dll
 0001:000695ec       ?getId@Font@vgui@@UAEHXZ   1006a5ec f   vgui:vgui.dll
 0001:000695f2       ?getTall@Font@vgui@@UAEHXZ 1006a5f2 f   vgui:vgui.dll
 0001:000695f8       ?getTextSize@Font@vgui@@UAEXPBDAAH1@Z 1006a5f8 f   vgui:vgui.dll
 0001:000695fe       ?getCharABCwide@Font@vgui@@UAEXHAAH00@Z 1006a5fe f   vgui:vgui.dll
 0001:00069604       ?getCharRGBA@Font@vgui@@UAEXHHHHHPAE@Z 1006a604 f   vgui:vgui.dll
 0001:0006960a       ?init@Font@vgui@@EAEXPBDPAXHHHMH_N222@Z 1006a60a f   vgui:vgui.dll
 0001:00069610       ?privateKeyTyped@TablePanel@vgui@@EAEXW4KeyCode@2@PAVPanel@2@@Z 1006a610 f   vgui:vgui.dll
 0001:00069616       ?privateMouseDoublePressed@TablePanel@vgui@@EAEXW4MouseCode@2@PAVPanel@2@@Z 1006a616 f   vgui:vgui.dll
 0001:0006961c       ?privateMousePressed@TablePanel@vgui@@EAEXW4MouseCode@2@PAVPanel@2@@Z 1006a61c f   vgui:vgui.dll
 0001:00069622       ?stopCellEditing@TablePanel@vgui@@UAEXXZ 1006a622 f   vgui:vgui.dll
 0001:00069628       ?setEditableCell@TablePanel@vgui@@UAEXHH@Z 1006a628 f   vgui:vgui.dll
 0001:0006962e       ?setCellSectionEnabled@TablePanel@vgui@@UAEX_N@Z 1006a62e f   vgui:vgui.dll
 0001:00069634       ?setRowSelectionEnabled@TablePanel@vgui@@UAEX_N@Z 1006a634 f   vgui:vgui.dll
 0001:0006963a       ?setColumnSelectionEnabled@TablePanel@vgui@@UAEX_N@Z 1006a63a f   vgui:vgui.dll
 0001:00069640       ?setHeaderPanel@TablePanel@vgui@@UAEXPAVHeaderPanel@2@@Z 1006a640 f   vgui:vgui.dll
 0001:00069646       ?getSelectedCell@TablePanel@vgui@@UAEXAAH0@Z 1006a646 f   vgui:vgui.dll
 0001:0006964c       ?setSelectedCell@TablePanel@vgui@@UAEXHH@Z 1006a64c f   vgui:vgui.dll
 0001:00069652       ?setColumnExtents@TablePanel@vgui@@UAEXHHH@Z 1006a652 f   vgui:vgui.dll
 0001:00069658       ?getColumnCount@TablePanel@vgui@@UAEHXZ 1006a658 f   vgui:vgui.dll
 0001:0006965e       ?setGridSize@TablePanel@vgui@@UAEXHH@Z 1006a65e f   vgui:vgui.dll
 0001:00069664       ?setGridVisible@TablePanel@vgui@@UAEX_N0@Z 1006a664 f   vgui:vgui.dll
 0001:0006966a       ?setColumnCount@TablePanel@vgui@@UAEXH@Z 1006a66a f   vgui:vgui.dll
 0001:00069670       ?setCellEditingEnabled@TablePanel@vgui@@UAEX_N@Z 1006a670 f   vgui:vgui.dll
 0001:00069676       ?paint@TablePanel@vgui@@MAEXXZ 1006a676 f   vgui:vgui.dll
 0001:0006967c       ?getVirtualSize@TablePanel@vgui@@UAEXAAH0@Z 1006a67c f   vgui:vgui.dll
 0001:00069682       ?isWithinTraverse@TablePanel@vgui@@MAEPAVPanel@2@HH@Z 1006a682 f   vgui:vgui.dll
 0001:00069688       ?privateMouseReleased@HeaderPanel@vgui@@UAEXW4MouseCode@2@PAVPanel@2@@Z 1006a688 f   vgui:vgui.dll
 0001:0006968e       ?privateMousePressed@HeaderPanel@vgui@@UAEXW4MouseCode@2@PAVPanel@2@@Z 1006a68e f   vgui:vgui.dll
 0001:00069694       ?privateCursorMoved@HeaderPanel@vgui@@UAEXHHPAVPanel@2@@Z 1006a694 f   vgui:vgui.dll
 0001:0006969a       ?fireChangeSignal@HeaderPanel@vgui@@UAEXXZ 1006a69a f   vgui:vgui.dll
 0001:000696a0       ?addChangeSignal@HeaderPanel@vgui@@UAEXPAVChangeSignal@2@@Z 1006a6a0 f   vgui:vgui.dll
 0001:000696a6       ?getSectionExtents@HeaderPanel@vgui@@UAEXHAAH0@Z 1006a6a6 f   vgui:vgui.dll
 0001:000696ac       ?getSectionCount@HeaderPanel@vgui@@UAEHXZ 1006a6ac f   vgui:vgui.dll
 0001:000696b2       ?setSliderPos@HeaderPanel@vgui@@UAEXHH@Z 1006a6b2 f   vgui:vgui.dll
 0001:000696b8       ?addSectionPanel@HeaderPanel@vgui@@UAEXPAVPanel@2@@Z 1006a6b8 f   vgui:vgui.dll
 0001:000696be       ?performLayout@HeaderPanel@vgui@@MAEXXZ 1006a6be f   vgui:vgui.dll
 0001:000696c4       ?printf@TextGrid@vgui@@UAAHPBDZZ 1006a6c4 f   vgui:vgui.dll
 0001:000696ca       ?vprintf@TextGrid@vgui@@UAEHPBDPAD@Z 1006a6ca f   vgui:vgui.dll
 0001:000696d0       ?setXY@TextGrid@vgui@@UAEXHH@Z 1006a6d0 f   vgui:vgui.dll
 0001:000696d6       ?newLine@TextGrid@vgui@@UAEXXZ 1006a6d6 f   vgui:vgui.dll
 0001:000696dc       ?setGridSize@TextGrid@vgui@@UAEXHH@Z 1006a6dc f   vgui:vgui.dll
 0001:000696e2       ?paintBackground@TextGrid@vgui@@MAEXXZ 1006a6e2 f   vgui:vgui.dll
 0001:000696e8       ??0TextPanel@vgui@@QAE@PBDHHHH@Z 1006a6e8 f   vgui:vgui.dll
 0001:000696ee       ??0Label@vgui@@QAE@PBDHH@Z 1006a6ee f   vgui:vgui.dll
 0001:000696f4       ??0TextEntry@vgui@@QAE@PBDHHHH@Z 1006a6f4 f   vgui:vgui.dll
 0001:000696fa       ??0LoweredBorder@vgui@@QAE@XZ 1006a6fa f   vgui:vgui.dll
 0001:00069700       ??0TextGrid@vgui@@QAE@HHHHHH@Z 1006a700 f   vgui:vgui.dll
 0001:00069706       ??0EtchedBorder@vgui@@QAE@XZ 1006a706 f   vgui:vgui.dll
 0001:0006970c       ?keyFocusTicked@TextEntry@vgui@@MAEXPAVPanel@2@@Z 1006a70c f   vgui:vgui.dll
 0001:00069712       ?keyReleased@TextEntry@vgui@@MAEXW4KeyCode@2@PAVPanel@2@@Z 1006a712 f   vgui:vgui.dll
 0001:00069718       ?keyTyped@TextEntry@vgui@@MAEXW4KeyCode@2@PAVPanel@2@@Z 1006a718 f   vgui:vgui.dll
 0001:0006971e       ?keyPressed@TextEntry@vgui@@MAEXW4KeyCode@2@PAVPanel@2@@Z 1006a71e f   vgui:vgui.dll
 0001:00069724       ?mouseWheeled@TextEntry@vgui@@MAEXHPAVPanel@2@@Z 1006a724 f   vgui:vgui.dll
 0001:0006972a       ?mouseReleased@TextEntry@vgui@@MAEXW4MouseCode@2@PAVPanel@2@@Z 1006a72a f   vgui:vgui.dll
 0001:00069730       ?mouseDoublePressed@TextEntry@vgui@@MAEXW4MouseCode@2@PAVPanel@2@@Z 1006a730 f   vgui:vgui.dll
 0001:00069736       ?mousePressed@TextEntry@vgui@@MAEXW4MouseCode@2@PAVPanel@2@@Z 1006a736 f   vgui:vgui.dll
 0001:0006973c       ?cursorExited@TextEntry@vgui@@MAEXPAVPanel@2@@Z 1006a73c f   vgui:vgui.dll
 0001:00069742       ?cursorEntered@TextEntry@vgui@@MAEXPAVPanel@2@@Z 1006a742 f   vgui:vgui.dll
 0001:00069748       ?cursorMoved@TextEntry@vgui@@MAEXHHPAVPanel@2@@Z 1006a748 f   vgui:vgui.dll
 0001:0006974e       ?selectCheck@TextEntry@vgui@@MAEXXZ 1006a74e f   vgui:vgui.dll
 0001:00069754       ?cursorToPixelSpace@TextEntry@vgui@@MAEHH@Z 1006a754 f   vgui:vgui.dll
 0001:0006975a       ?getSelectedPixelRange@TextEntry@vgui@@MAE_NAAH0@Z 1006a75a f   vgui:vgui.dll
 0001:00069760       ?getSelectedRange@TextEntry@vgui@@MAE_NAAH0@Z 1006a760 f   vgui:vgui.dll
 0001:00069766       ?fireActionSignal@TextEntry@vgui@@MAEXXZ 1006a766 f   vgui:vgui.dll
 0001:0006976c       ?setCharAt@TextEntry@vgui@@MAEXDH@Z 1006a76c f   vgui:vgui.dll
 0001:00069772       ?setTextHidden@TextEntry@vgui@@UAEX_N@Z 1006a772 f   vgui:vgui.dll
 0001:00069778       ?setFont@TextEntry@vgui@@UAEXPAVFont@2@@Z 1006a778 f   vgui:vgui.dll
 0001:0006977e       ?addActionSignal@TextEntry@vgui@@UAEXPAVActionSignal@2@@Z 1006a77e f   vgui:vgui.dll
 0001:00069784       ?doDeleteSelected@TextEntry@vgui@@UAEXXZ 1006a784 f   vgui:vgui.dll
 0001:0006978a       ?doPasteSelected@TextEntry@vgui@@UAEXXZ 1006a78a f   vgui:vgui.dll
 0001:00069790       ?doPaste@TextEntry@vgui@@UAEXXZ 1006a790 f   vgui:vgui.dll
 0001:00069796       ?doCopySelected@TextEntry@vgui@@UAEXXZ 1006a796 f   vgui:vgui.dll
 0001:0006979c       ?doSelectNone@TextEntry@vgui@@UAEXXZ 1006a79c f   vgui:vgui.dll
 0001:000697a2       ?doDelete@TextEntry@vgui@@UAEXXZ 1006a7a2 f   vgui:vgui.dll
 0001:000697a8       ?doBackspace@TextEntry@vgui@@UAEXXZ 1006a7a8 f   vgui:vgui.dll
 0001:000697ae       ?doInsertChar@TextEntry@vgui@@UAEXD@Z 1006a7ae f   vgui:vgui.dll
 0001:000697b4       ?doGotoEndOfLine@TextEntry@vgui@@UAEXXZ 1006a7b4 f   vgui:vgui.dll
 0001:000697ba       ?doGotoFirstOfLine@TextEntry@vgui@@UAEXXZ 1006a7ba f   vgui:vgui.dll
 0001:000697c0       ?doGotoRight@TextEntry@vgui@@UAEXXZ 1006a7c0 f   vgui:vgui.dll
 0001:000697c6       ?doGotoLeft@TextEntry@vgui@@UAEXXZ 1006a7c6 f   vgui:vgui.dll
 0001:000697cc       ?resetCursorBlink@TextEntry@vgui@@UAEXXZ 1006a7cc f   vgui:vgui.dll
 0001:000697d2       ?getText@TextEntry@vgui@@UAEXHPADH@Z 1006a7d2 f   vgui:vgui.dll
 0001:000697d8       ?setText@TextEntry@vgui@@UAEXPBDH@Z 1006a7d8 f   vgui:vgui.dll
 0001:000697de       ?paintBackground@TextEntry@vgui@@MAEXXZ 1006a7de f   vgui:vgui.dll
 0001:000697e4       ?paint@EtchedBorder@vgui@@MAEXPAVPanel@2@@Z 1006a7e4 f   vgui:vgui.dll
 0001:000697ea       ?paint@LoweredBorder@vgui@@MAEXPAVPanel@2@@Z 1006a7ea f   vgui:vgui.dll
 0001:000697f0       ??0Color@vgui@@QAE@W4SchemeColor@Scheme@1@@Z 1006a7f0 f   vgui:vgui.dll
 0001:000697f6       ??0Label@vgui@@QAE@PBDHHHH@Z 1006a7f6 f   vgui:vgui.dll
 0001:000697fc       ??0TablePanel@vgui@@QAE@HHHHH@Z 1006a7fc f   vgui:vgui.dll
 0001:00069802       ??0ScrollPanel@vgui@@QAE@HHHH@Z 1006a802 f   vgui:vgui.dll
 0001:00069808       ??0HeaderPanel@vgui@@QAE@HHHH@Z 1006a808 f   vgui:vgui.dll
 0001:0006980e       ?vgui_strdup@vgui@@YAPADPBD@Z 1006a80e f   vgui:vgui.dll
 0001:00069814       ?vgui_strcpy@vgui@@YAXPADHPBD@Z 1006a814 f   vgui:vgui.dll
 0001:0006981a       ?readLine@DataInputStream@vgui@@UAEXPADHAA_N@Z 1006a81a f   vgui:vgui.dll
 0001:00069820       ??0DataInputStream@vgui@@QAE@PAVInputStream@1@@Z 1006a820 f   vgui:vgui.dll
 0001:00069826       ?readDouble@DataInputStream@vgui@@UAENAA_N@Z 1006a826 f   vgui:vgui.dll
 0001:0006982c       ?readFloat@DataInputStream@vgui@@UAEMAA_N@Z 1006a82c f   vgui:vgui.dll
 0001:00069832       ?readULong@DataInputStream@vgui@@UAEKAA_N@Z 1006a832 f   vgui:vgui.dll
 0001:00069838       ?readLong@DataInputStream@vgui@@UAEJAA_N@Z 1006a838 f   vgui:vgui.dll
 0001:0006983e       ?readUInt@DataInputStream@vgui@@UAEIAA_N@Z 1006a83e f   vgui:vgui.dll
 0001:00069844       ?readInt@DataInputStream@vgui@@UAEHAA_N@Z 1006a844 f   vgui:vgui.dll
 0001:0006984a       ?readUShort@DataInputStream@vgui@@UAEGAA_N@Z 1006a84a f   vgui:vgui.dll
 0001:00069850       ?readShort@DataInputStream@vgui@@UAEFAA_N@Z 1006a850 f   vgui:vgui.dll
 0001:00069856       ?readChar@DataInputStream@vgui@@UAEDAA_N@Z 1006a856 f   vgui:vgui.dll
 0001:0006985c       ?readBool@DataInputStream@vgui@@UAE_NAA_N@Z 1006a85c f   vgui:vgui.dll
 0001:00069862       ?close@DataInputStream@vgui@@UAEXXZ 1006a862 f   vgui:vgui.dll
 0001:00069868       ?seekStart@DataInputStream@vgui@@UAEXAA_N@Z 1006a868 f   vgui:vgui.dll
 0001:0006986e       ?seekRelative@DataInputStream@vgui@@UAEXHAA_N@Z 1006a86e f   vgui:vgui.dll
 0001:00069874       ?seekEnd@DataInputStream@vgui@@UAEXAA_N@Z 1006a874 f   vgui:vgui.dll
 0001:0006987a       ?getAvailable@DataInputStream@vgui@@UAEHAA_N@Z 1006a87a f   vgui:vgui.dll
 0001:00069880       ?readUChar@DataInputStream@vgui@@UAEXPAEHAA_N@Z 1006a880 f   vgui:vgui.dll
 0001:00069886       ?readUChar@DataInputStream@vgui@@UAEEAA_N@Z 1006a886 f   vgui:vgui.dll
 0001:0006988c       ?close@DataInputStream@vgui@@UAEXAA_N@Z 1006a88c f   vgui:vgui.dll
 0001:00069892       ??0BitmapTGA@vgui@@QAE@PAVInputStream@1@_N@Z 1006a892 f   vgui:vgui.dll
 0001:00069898       ??0FileInputStream@vgui@@QAE@PBD_N@Z 1006a898 f   vgui:vgui.dll
 0001:0006989e       ??0BorderLayout@vgui@@QAE@H@Z 1006a89e f   vgui:vgui.dll
 0001:000698a4       ?performLayout@Layout@vgui@@UAEXPAVPanel@2@@Z 1006a8a4 f   vgui:vgui.dll
 0001:000698aa       ?createLayoutInfo@BorderLayout@vgui@@UAEPAVLayoutInfo@2@W4Alignment@12@@Z 1006a8aa f   vgui:vgui.dll
 0001:000698b0       ?performLayout@BorderLayout@vgui@@UAEXPAVPanel@2@@Z 1006a8b0 f   vgui:vgui.dll
 0001:000698b6       ?addModeInfo@SurfaceBase@vgui@@MAEXHHH@Z 1006a8b6 f   vgui:vgui.dll
 0001:000698bc       ?setEmulatedCursorPos@SurfaceBase@vgui@@UAEXHH@Z 1006a8bc f   vgui:vgui.dll
 0001:000698c2       ?setEmulatedCursorVisible@SurfaceBase@vgui@@UAEX_N@Z 1006a8c2 f   vgui:vgui.dll
 0001:000698c8       ?getApp@SurfaceBase@vgui@@UAEPAVApp@2@XZ 1006a8c8 f   vgui:vgui.dll
 0001:000698ce       ?getModeInfo@SurfaceBase@vgui@@UAE_NHAAH00@Z 1006a8ce f   vgui:vgui.dll
 0001:000698d4       ?getModeInfoCount@SurfaceBase@vgui@@UAEHXZ 1006a8d4 f   vgui:vgui.dll
 0001:000698da       ?resetModeInfo@SurfaceBase@vgui@@UAEXXZ 1006a8da f   vgui:vgui.dll
 0001:000698e0       ?requestSwap@SurfaceBase@vgui@@UAEXXZ 1006a8e0 f   vgui:vgui.dll
 0001:000698e6       ?getPanel@SurfaceBase@vgui@@UAEPAVPanel@2@XZ 1006a8e6 f   vgui:vgui.dll
 0001:000698ec       ?performLayout@StackLayout@vgui@@UAEXPAVPanel@2@@Z 1006a8ec f   vgui:vgui.dll
 0001:000698f2       ??0LineBorder@vgui@@QAE@XZ 1006a8f2 f   vgui:vgui.dll
 0001:000698f8       ??0Font@vgui@@QAE@PBDHHMH_N111@Z 1006a8f8 f   vgui:vgui.dll
 0001:000698fe       ??0Font@vgui@@QAE@PBDPAXHHHMH_N222@Z 1006a8fe f   vgui:vgui.dll
 0001:00069904       ??0Color@vgui@@QAE@XZ      1006a904 f   vgui:vgui.dll
 0001:0006990a       ??0TextImage@vgui@@QAE@PBD@Z 1006a90a f   vgui:vgui.dll
 0001:00069910       ??0Image@vgui@@QAE@XZ      1006a910 f   vgui:vgui.dll
 0001:00069916       ?recreateContext@Surface@vgui@@MAE_NXZ 1006a916 f   vgui:vgui.dll
 0001:0006991c       ?createPlat@Surface@vgui@@MAE_NXZ 1006a91c f   vgui:vgui.dll
 0001:00069922       ?applyChanges@Surface@vgui@@MAEXXZ 1006a922 f   vgui:vgui.dll
 0001:00069928       ?popMakeCurrent@Surface@vgui@@MAEXPAVPanel@2@@Z 1006a928 f   vgui:vgui.dll
 0001:0006992e       ?pushMakeCurrent@Surface@vgui@@MAEXPAVPanel@2@_N@Z 1006a92e f   vgui:vgui.dll
 0001:00069934       ?swapBuffers@Surface@vgui@@MAEXXZ 1006a934 f   vgui:vgui.dll
 0001:0006993a       ?setCursor@Surface@vgui@@MAEXPAVCursor@2@@Z 1006a93a f   vgui:vgui.dll
 0001:00069940       ?enableMouseCapture@Surface@vgui@@MAEX_N@Z 1006a940 f   vgui:vgui.dll
 0001:00069946       ?invalidate@Surface@vgui@@MAEXPAVPanel@2@@Z 1006a946 f   vgui:vgui.dll
 0001:0006994c       ?drawTexturedRect@Surface@vgui@@MAEXHHHH@Z 1006a94c f   vgui:vgui.dll
 0001:00069952       ?drawSetTexture@Surface@vgui@@MAEXH@Z 1006a952 f   vgui:vgui.dll
 0001:00069958       ?drawSetTextureRGBA@Surface@vgui@@MAEXHPBDHH@Z 1006a958 f   vgui:vgui.dll
 0001:0006995e       ?drawPrintText@Surface@vgui@@MAEXPBDH@Z 1006a95e f   vgui:vgui.dll
 0001:00069964       ?drawSetTextPos@Surface@vgui@@MAEXHH@Z 1006a964 f   vgui:vgui.dll
 0001:0006996a       ?drawSetTextColor@Surface@vgui@@MAEXHHHH@Z 1006a96a f   vgui:vgui.dll
 0001:00069970       ?drawSetTextFont@Surface@vgui@@MAEXPAVFont@2@@Z 1006a970 f   vgui:vgui.dll
 0001:00069976       ?drawOutlinedRect@Surface@vgui@@MAEXHHHH@Z 1006a976 f   vgui:vgui.dll
 0001:0006997c       ?drawFilledRect@Surface@vgui@@MAEXHHHH@Z 1006a97c f   vgui:vgui.dll
 0001:00069982       ?drawSetColor@Surface@vgui@@MAEXHHHH@Z 1006a982 f   vgui:vgui.dll
 0001:00069988       ?createNewTextureID@Surface@vgui@@MAEHXZ 1006a988 f   vgui:vgui.dll
 0001:0006998e       ?isWithin@Surface@vgui@@UAE_NHH@Z 1006a98e f   vgui:vgui.dll
 0001:00069994       ?hasFocus@Surface@vgui@@UAE_NXZ 1006a994 f   vgui:vgui.dll
 0001:0006999a       ?createPopup@Surface@vgui@@UAEXPAVPanel@2@@Z 1006a99a f   vgui:vgui.dll
 0001:000699a0       ?setAsTopMost@Surface@vgui@@UAEX_N@Z 1006a9a0 f   vgui:vgui.dll
 0001:000699a6       ?setWindowedMode@Surface@vgui@@UAEXXZ 1006a9a6 f   vgui:vgui.dll
 0001:000699ac       ?setFullscreenMode@Surface@vgui@@UAE_NHHH@Z 1006a9ac f   vgui:vgui.dll
 0001:000699b2       ?setTitle@Surface@vgui@@UAEXPBD@Z 1006a9b2 f   vgui:vgui.dll
 0001:000699b8       ?getModeInfoCount@Surface@vgui@@UAEHXZ 1006a9b8 f   vgui:vgui.dll
 0001:000699be       ??1SurfaceBase@vgui@@IAE@XZ 1006a9be f   vgui:vgui.dll
 0001:000699c4       ?getInstance@App@vgui@@SAPAV12@XZ 1006a9c4 f   vgui:vgui.dll
 0001:000699ca       ?paintBackground@MenuSeparator@vgui@@MAEXXZ 1006a9ca f   vgui:vgui.dll
 0001:000699d0       ?getCursor@BuildGroup@vgui@@MAEPAVCursor@2@PAVPanel@2@@Z 1006a9d0 f   vgui:vgui.dll
 0001:000699d6       ?keyTyped@BuildGroup@vgui@@MAEXW4KeyCode@2@PAVPanel@2@@Z 1006a9d6 f   vgui:vgui.dll
 0001:000699dc       ?mouseDoublePressed@BuildGroup@vgui@@MAEXW4MouseCode@2@PAVPanel@2@@Z 1006a9dc f   vgui:vgui.dll
 0001:000699e2       ?mouseReleased@BuildGroup@vgui@@MAEXW4MouseCode@2@PAVPanel@2@@Z 1006a9e2 f   vgui:vgui.dll
 0001:000699e8       ?mousePressed@BuildGroup@vgui@@MAEXW4MouseCode@2@PAVPanel@2@@Z 1006a9e8 f   vgui:vgui.dll
 0001:000699ee       ?cursorMoved@BuildGroup@vgui@@MAEXHHPAVPanel@2@@Z 1006a9ee f   vgui:vgui.dll
 0001:000699f4       ?panelAdded@BuildGroup@vgui@@MAEXPAVPanel@2@PBD@Z 1006a9f4 f   vgui:vgui.dll
 0001:000699fa       ?fireCurrentPanelChangeSignal@BuildGroup@vgui@@EAEXXZ 1006a9fa f   vgui:vgui.dll
 0001:00069a00       ?applySnap@BuildGroup@vgui@@EAEXPAVPanel@2@@Z 1006aa00 f   vgui:vgui.dll
 0001:00069a06       ?copyPropertiesToClipboard@BuildGroup@vgui@@UAEXXZ 1006aa06 f   vgui:vgui.dll
 0001:00069a0c       ?getCurrentPanel@BuildGroup@vgui@@UAEPAVPanel@2@XZ 1006aa0c f   vgui:vgui.dll
 0001:00069a12       ?addCurrentPanelChangeSignal@BuildGroup@vgui@@UAEXPAVChangeSignal@2@@Z 1006aa12 f   vgui:vgui.dll
 0001:00069a18       ?isEnabled@BuildGroup@vgui@@UAE_NXZ 1006aa18 f   vgui:vgui.dll
 0001:00069a1e       ?setEnabled@BuildGroup@vgui@@UAEX_N@Z 1006aa1e f   vgui:vgui.dll
 0001:00069a24       _htons@4                   1006aa24 f   wsock32:WSOCK32.dll
 0001:00069a2a       ??3@YAXPAX@Z               1006aa2a f   LIBCMT:delete.obj
 0001:00069a35       ??2@YAPAXI@Z               1006aa35 f   LIBCMT:new.obj
 0001:00069a43       ?_JumpToContinuation@@YGXPAXPAUEHRegistrationNode@@@Z 1006aa43 f   LIBCMT:trnsctrl.obj
 0001:00069a77       ?_CallMemberFunction0@@YGXPAX0@Z 1006aa77 f   LIBCMT:trnsctrl.obj
 0001:00069a7e       ?_CallMemberFunction1@@YGXPAX00@Z 1006aa7e f   LIBCMT:trnsctrl.obj
 0001:00069a85       ?_CallMemberFunction2@@YGXPAX00H@Z 1006aa85 f   LIBCMT:trnsctrl.obj
 0001:00069a8c       ?_UnwindNestedFrames@@YGXPAUEHRegistrationNode@@PAUEHExceptionRecord@@@Z 1006aa8c f   LIBCMT:trnsctrl.obj
 0001:00069adb       ___CxxFrameHandler         1006aadb f   LIBCMT:trnsctrl.obj
 0001:00069b11       ___CxxLongjmpUnwind@4      1006ab11 f   LIBCMT:trnsctrl.obj
 0001:00069b2b       ?_CallCatchBlock2@@YAPAXPAUEHRegistrationNode@@PBU_s_FuncInfo@@PAXHK@Z 1006ab2b f   LIBCMT:trnsctrl.obj
 0001:00069ba4       ?_CallSETranslator@@YAHPAUEHExceptionRecord@@PAUEHRegistrationNode@@PAX2PBU_s_FuncInfo@@H1@Z 1006aba4 f   LIBCMT:trnsctrl.obj
 0001:00069ccf       ?_GetRangeOfTrysToCheck@@YAPBU_s_TryBlockMapEntry@@PBU_s_FuncInfo@@HHPAI1@Z 1006accf f   LIBCMT:trnsctrl.obj
 0001:00069d4a       __fpmath                   1006ad4a f   LIBCMT:fpinit.obj
 0001:00069d61       __fpclear                  1006ad61 f   LIBCMT:fpinit.obj
 0001:00069d62       __cfltcvt_init             1006ad62 f   LIBCMT:fpinit.obj
 0001:00069d9a       ___setfflag                1006ad9a f   LIBCMT:fpinit.obj
 0001:00069dac       __global_unwind2           1006adac f   LIBCMT:exsup.obj
 0001:00069dee       __local_unwind2            1006adee f   LIBCMT:exsup.obj
 0001:00069e46       __NLG_Return2              1006ae46 f   LIBCMT:exsup.obj
 0001:00069e56       __abnormal_termination     1006ae56 f   LIBCMT:exsup.obj
 0001:00069e79       __NLG_Notify1              1006ae79 f   LIBCMT:exsup.obj
 0001:00069e82       __NLG_Notify               1006ae82 f   LIBCMT:exsup.obj
 0001:00069e95       __NLG_Dispatch             1006ae95 f   LIBCMT:exsup.obj
 0001:00069e9a       _sprintf                   1006ae9a f   LIBCMT:sprintf.obj
 0001:00069eec       __purecall                 1006aeec f   LIBCMT:purevirt.obj
 0001:00069ef8       __ftol                     1006aef8 f   LIBCMT:ftol.obj
 0001:00069f1f       __cinit                    1006af1f f   LIBCMT:crt0dat.obj
 0001:00069f4c       _exit                      1006af4c f   LIBCMT:crt0dat.obj
 0001:00069f5d       __exit                     1006af5d f   LIBCMT:crt0dat.obj
 0001:00069f6e       __cexit                    1006af6e f   LIBCMT:crt0dat.obj
 0001:00069f7d       __c_exit                   1006af7d f   LIBCMT:crt0dat.obj
 0001:0006a031       __lockexit                 1006b031 f   LIBCMT:crt0dat.obj
 0001:0006a03a       __unlockexit               1006b03a f   LIBCMT:crt0dat.obj
 0001:0006a05d       _fclose                    1006b05d f   LIBCMT:fclose.obj
 0001:0006a08e       __fclose_lk                1006b08e f   LIBCMT:fclose.obj
 0001:0006a0da       _ftell                     1006b0da f   LIBCMT:ftell.obj
 0001:0006a0fc       __ftell_lk                 1006b0fc f   LIBCMT:ftell.obj
 0001:0006a25d       _fseek                     1006b25d f   LIBCMT:fseek.obj
 0001:0006a289       __fseek_lk                 1006b289 f   LIBCMT:fseek.obj
 0001:0006a316       _fread                     1006b316 f   LIBCMT:fread.obj
 0001:0006a345       __fread_lk                 1006b345 f   LIBCMT:fread.obj
 0001:0006a42d       __fsopen                   1006b42d f   LIBCMT:fopen.obj
 0001:0006a45e       _fopen                     1006b45e f   LIBCMT:fopen.obj
 0001:0006a471       __snprintf                 1006b471 f   LIBCMT:snprintf.obj
 0001:0006a4c2       _fwrite                    1006b4c2 f   LIBCMT:fwrite.obj
 0001:0006a4f1       __fwrite_lk                1006b4f1 f   LIBCMT:fwrite.obj
 0001:0006a5fb       __onexit                   1006b5fb f   LIBCMT:onexit.obj
 0001:0006a679       _atexit                    1006b679 f   LIBCMT:onexit.obj
 0001:0006a68b       ___onexitinit              1006b68b f   LIBCMT:onexit.obj
 0001:0006a6ba       _free                      1006b6ba f   LIBCMT:free.obj
 0001:0006a7a3       _malloc                    1006b7a3 f   LIBCMT:malloc.obj
 0001:0006a7b5       __nh_malloc                1006b7b5 f   LIBCMT:malloc.obj
 0001:0006a7e1       __heap_alloc               1006b7e1 f   LIBCMT:malloc.obj
 0001:0006a8dd       _atof                      1006b8dd f   LIBCMT:atof.obj
 0001:0006a940       __alloca_probe             1006b940 f   LIBCMT:chkstk.obj
 0001:0006a940       __chkstk                   1006b940 f   LIBCMT:chkstk.obj
 0001:0006a970       _fmod                      1006b970 f   LIBCMT:87fmod.obj
 0001:0006a97a       __CIfmod                   1006b97a f   LIBCMT:87fmod.obj
 0001:0006a9a2       _atol                      1006b9a2 f   LIBCMT:atox.obj
 0001:0006aa2d       _atoi                      1006ba2d f   LIBCMT:atox.obj
 0001:0006aa38       __atoi64                   1006ba38 f   LIBCMT:atox.obj
 0001:0006ab00       _memmove                   1006bb00 f   LIBCMT:memmove.obj
 0001:0006ae40       _strncpy                   1006be40 f   LIBCMT:strncpy.obj
 0001:0006af40       _strncat                   1006bf40 f   LIBCMT:strncat.obj
 0001:0006b063       _srand                     1006c063 f   LIBCMT:rand.obj
 0001:0006b070       _rand                      1006c070 f   LIBCMT:rand.obj
 0001:0006b092       _time                      1006c092 f   LIBCMT:time.obj
 0001:0006b16e       _fprintf                   1006c16e f   LIBCMT:fprintf.obj
 0001:0006b1b0       __CIpow                    1006c1b0 f   LIBCMT:pow.obj
 0001:0006b1c9       _pow                       1006c1c9 f   LIBCMT:pow.obj
 0001:0006b3cd       _isalpha                   1006c3cd f   LIBCMT:_ctype.obj
 0001:0006b3fb       _isupper                   1006c3fb f   LIBCMT:_ctype.obj
 0001:0006b423       _islower                   1006c423 f   LIBCMT:_ctype.obj
 0001:0006b44b       _isdigit                   1006c44b f   LIBCMT:_ctype.obj
 0001:0006b473       _isxdigit                  1006c473 f   LIBCMT:_ctype.obj
 0001:0006b4a0       _isspace                   1006c4a0 f   LIBCMT:_ctype.obj
 0001:0006b4c8       _ispunct                   1006c4c8 f   LIBCMT:_ctype.obj
 0001:0006b4f0       _isalnum                   1006c4f0 f   LIBCMT:_ctype.obj
 0001:0006b51e       _isprint                   1006c51e f   LIBCMT:_ctype.obj
 0001:0006b54c       _isgraph                   1006c54c f   LIBCMT:_ctype.obj
 0001:0006b57a       _iscntrl                   1006c57a f   LIBCMT:_ctype.obj
 0001:0006b5a2       ___isascii                 1006c5a2 f   LIBCMT:_ctype.obj
 0001:0006b5af       ___toascii                 1006c5af f   LIBCMT:_ctype.obj
 0001:0006b5b7       ___iscsymf                 1006c5b7 f   LIBCMT:_ctype.obj
 0001:0006b5f4       ___iscsym                  1006c5f4 f   LIBCMT:_ctype.obj
 0001:0006b640       _strstr                    1006c640 f   LIBCMT:strstr.obj
 0001:0006b6c0       _strncmp                   1006c6c0 f   LIBCMT:strncmp.obj
 0001:0006b6f8       _qsort                     1006c6f8 f   LIBCMT:qsort.obj
 0001:0006b8c6       __vsnprintf                1006c8c6 f   LIBCMT:vsnprint.obj
 0001:0006b920       __CIacos                   1006c920 f   LIBCMT:acos.obj
 0001:0006b934       _acos                      1006c934 f   LIBCMT:acos.obj
 0001:0006b9eb       __toupper                  1006c9eb f   LIBCMT:toupper.obj
 0001:0006b9f3       _toupper                   1006c9f3 f   LIBCMT:toupper.obj
 0001:0006ba62       __toupper_lk               1006ca62 f   LIBCMT:toupper.obj
 0001:0006bb2e       __isctype                  1006cb2e f   LIBCMT:isctype.obj
 0001:0006bba3       _sscanf                    1006cba3 f   LIBCMT:sscanf.obj
 0001:0006bbd7       ??_L@YGXPAXIHP6EX0@Z1@Z    1006cbd7 f   LIBCMT:ehvecctr.obj
 0001:0006bc59       ??_M@YGXPAXIHP6EX0@Z@Z     1006cc59 f   LIBCMT:ehvecdtr.obj
 0001:0006bcd9       ?__ArrayUnwind@@YGXPAXIHP6EX0@Z@Z 1006ccd9 f   LIBCMT:ehvecdtr.obj
 0001:0006bd4d       ??1type_info@@UAE@XZ       1006cd4d f   LIBCMT:typinfo.obj
 0001:0006bd76       ??_Etype_info@@UAEPAXI@Z   1006cd76 f i LIBCMT:typinfo.obj
 0001:0006bd76       ??_Gtype_info@@UAEPAXI@Z   1006cd76 f i LIBCMT:typinfo.obj
 0001:0006bd92       ??8type_info@@QBEHABV0@@Z  1006cd92 f   LIBCMT:typinfo.obj
 0001:0006bdad       ??9type_info@@QBEHABV0@@Z  1006cdad f   LIBCMT:typinfo.obj
 0001:0006bdc9       ?before@type_info@@QBEHABV1@@Z 1006cdc9 f   LIBCMT:typinfo.obj
 0001:0006bde8       ?raw_name@type_info@@QBEPBDXZ 1006cde8 f   LIBCMT:typinfo.obj
 0001:0006bdec       ??0type_info@@AAE@ABV0@@Z  1006cdec f   LIBCMT:typinfo.obj
 0001:0006bdf7       ??4type_info@@AAEAAV0@ABV0@@Z 1006cdf7 f   LIBCMT:typinfo.obj
 0001:0006be10       _strchr                    1006ce10 f   LIBCMT:strchr.obj
 0001:0006be16       ___from_strstr_to_strchr   1006ce16 f   LIBCMT:strchr.obj
 0001:0006becc       __CRT_INIT@12              1006cecc f   LIBCMT:dllcrt0.obj
 0001:0006bfa5       __DllMainCRTStartup@12     1006cfa5 f   LIBCMT:dllcrt0.obj
 0001:0006c042       __amsg_exit                1006d042 f   LIBCMT:dllcrt0.obj
 0001:0006c075       ___InternalCxxFrameHandler 1006d075 f   LIBCMT:frame.obj
 0001:0006c3ca       ___FrameUnwindToState      1006d3ca f   LIBCMT:frame.obj
 0001:0006c802       ?_DestructExceptionObject@@YAXPAUEHExceptionRecord@@E@Z 1006d802 f   LIBCMT:frame.obj
 0001:0006c890       __CallSettingFrame@12      1006d890 f   LIBCMT:lowhelpr.obj
 0001:0006c8b7       __NLG_Return               1006d8b7 f   LIBCMT:lowhelpr.obj
 0001:0006c8dc       __mtinit                   1006d8dc f   LIBCMT:tidtable.obj
 0001:0006c930       __mtterm                   1006d930 f   LIBCMT:tidtable.obj
 0001:0006c94e       __initptd                  1006d94e f   LIBCMT:tidtable.obj
 0001:0006c961       __getptd                   1006d961 f   LIBCMT:tidtable.obj
 0001:0006c9c8       __freeptd                  1006d9c8 f   LIBCMT:tidtable.obj
 0001:0006ca68       ___threadid                1006da68 f   LIBCMT:tidtable.obj
 0001:0006ca6e       ___threadhandle            1006da6e f   LIBCMT:tidtable.obj
 0001:0006ca74       ?terminate@@YAXXZ          1006da74 f   LIBCMT:hooks.obj
 0001:0006cad5       ?unexpected@@YAXXZ         1006dad5 f   LIBCMT:hooks.obj
 0001:0006caed       ?_inconsistency@@YAXXZ     1006daed f   LIBCMT:hooks.obj
 0001:0006cb43       __setdefaultprecision      1006db43 f   LIBCMT:fp8.obj
 0001:0006cb55       __ms_p5_test_fdiv          1006db55 f   LIBCMT:testfdiv.obj
 0001:0006cb93       __ms_p5_mp_test_fdiv       1006db93 f   LIBCMT:testfdiv.obj
 0001:0006cbbc       __forcdecpt                1006dbbc f   LIBCMT:cvt.obj
 0001:0006cc16       __cropzeros                1006dc16 f   LIBCMT:cvt.obj
 0001:0006cc64       __positive                 1006dc64 f   LIBCMT:cvt.obj
 0001:0006cc7c       __fassign                  1006dc7c f   LIBCMT:cvt.obj
 0001:0006ccba       __cftoe                    1006dcba f   LIBCMT:cvt.obj
 0001:0006cddd       __cftof                    1006dddd f   LIBCMT:cvt.obj
 0001:0006ced9       __cftog                    1006ded9 f   LIBCMT:cvt.obj
 0001:0006cf6c       __cfltcvt                  1006df6c f   LIBCMT:cvt.obj
 0001:0006cfe2       __flsbuf                   1006dfe2 f   LIBCMT:_flsbuf.obj
 0001:0006d0fa       __output                   1006e0fa f   LIBCMT:output.obj
 0001:0006d961       __mtinitlocks              1006e961 f   LIBCMT:mlock.obj
 0001:0006d98a       __mtdeletelocks            1006e98a f   LIBCMT:mlock.obj
 0001:0006d9f6       __lock                     1006e9f6 f   LIBCMT:mlock.obj
 0001:0006da57       __unlock                   1006ea57 f   LIBCMT:mlock.obj
 0001:0006da6c       __lockerr_exit             1006ea6c f   LIBCMT:mlock.obj
 0001:0006da84       ___initstdio               1006ea84 f   LIBCMT:_file.obj
 0001:0006db2c       ___endstdio                1006eb2c f   LIBCMT:_file.obj
 0001:0006db40       __lock_file                1006eb40 f   LIBCMT:_file.obj
 0001:0006db6f       __lock_file2               1006eb6f f   LIBCMT:_file.obj
 0001:0006db92       __unlock_file              1006eb92 f   LIBCMT:_file.obj
 0001:0006dbc1       __unlock_file2             1006ebc1 f   LIBCMT:_file.obj
 0001:0006dbe4       __close                    1006ebe4 f   LIBCMT:close.obj
 0001:0006dc41       __close_lk                 1006ec41 f   LIBCMT:close.obj
 0001:0006dcc4       __freebuf                  1006ecc4 f   LIBCMT:_freebuf.obj
 0001:0006dcef       _fflush                    1006ecef f   LIBCMT:fflush.obj
 0001:0006dd1e       __fflush_lk                1006ed1e f   LIBCMT:fflush.obj
 0001:0006dd4c       __flush                    1006ed4c f   LIBCMT:fflush.obj
 0001:0006dda8       __flushall                 1006eda8 f   LIBCMT:fflush.obj
 0001:0006de55       __dosmaperr                1006ee55 f   LIBCMT:dosmap.obj
 0001:0006dec8       __errno                    1006eec8 f   LIBCMT:dosmap.obj
 0001:0006ded1       ___doserrno                1006eed1 f   LIBCMT:dosmap.obj
 0001:0006deda       __ioinit                   1006eeda f   LIBCMT:ioinit.obj
 0001:0006e096       __ioterm                   1006f096 f   LIBCMT:ioinit.obj
 0001:0006e0ea       __lseek                    1006f0ea f   LIBCMT:lseek.obj
 0001:0006e14f       __lseek_lk                 1006f14f f   LIBCMT:lseek.obj
 0001:0006e1c2       __filbuf                   1006f1c2 f   LIBCMT:_filbuf.obj
 0001:0006e29e       __read                     1006f29e f   LIBCMT:read.obj
 0001:0006e303       __read_lk                  1006f303 f   LIBCMT:read.obj
 0001:0006e4e0       _memcpy                    1006f4e0 f   LIBCMT:memcpy.obj
 0001:0006e815       __openfile                 1006f815 f   LIBCMT:_open.obj
 0001:0006e985       __getstream                1006f985 f   LIBCMT:stream.obj
 0001:0006ea4d       __write                    1006fa4d f   LIBCMT:write.obj
 0001:0006eab2       __write_lk                 1006fab2 f   LIBCMT:write.obj
 0001:0006ec3d       _realloc                   1006fc3d f   LIBCMT:realloc.obj
 0001:0006ef6c       __msize                    1006ff6c f   LIBCMT:msize.obj
 0001:0006f05a       __GetLinkerVersion         1007005a f   LIBCMT:heapinit.obj
 0001:0006f087       ___heap_select             10070087 f   LIBCMT:heapinit.obj
 0001:0006f1cf       __heap_init                100701cf f   LIBCMT:heapinit.obj
 0001:0006f22c       __heap_term                1007022c f   LIBCMT:heapinit.obj
 0001:0006f2d4       __get_sbh_threshold        100702d4 f   LIBCMT:sbheap.obj
 0001:0006f2f3       __set_sbh_threshold        100702f3 f   LIBCMT:sbheap.obj
 0001:0006f3a6       ___sbh_heap_init           100703a6 f   LIBCMT:sbheap.obj
 0001:0006f3ee       ___sbh_find_block          100703ee f   LIBCMT:sbheap.obj
 0001:0006f419       ___sbh_free_block          10070419 f   LIBCMT:sbheap.obj
 0001:0006f742       ___sbh_alloc_block         10070742 f   LIBCMT:sbheap.obj
 0001:0006fa4b       ___sbh_alloc_new_region    10070a4b f   LIBCMT:sbheap.obj
 0001:0006fafc       ___sbh_alloc_new_group     10070afc f   LIBCMT:sbheap.obj
 0001:0006fbf7       ___sbh_resize_block        10070bf7 f   LIBCMT:sbheap.obj
 0001:0006feed       ___sbh_heapmin             10070eed f   LIBCMT:sbheap.obj
 0001:0006ffbe       ___sbh_heap_check          10070fbe f   LIBCMT:sbheap.obj
 0001:000702ed       __get_old_sbh_threshold    100712ed f   LIBCMT:sbheap.obj
 0001:000702f3       __set_old_sbh_threshold    100712f3 f   LIBCMT:sbheap.obj
 0001:0007030f       ___old_sbh_new_region      1007130f f   LIBCMT:sbheap.obj
 0001:00070453       ___old_sbh_release_region  10071453 f   LIBCMT:sbheap.obj
 0001:000704a9       ___old_sbh_decommit_pages  100714a9 f   LIBCMT:sbheap.obj
 0001:0007056b       ___old_sbh_find_block      1007156b f   LIBCMT:sbheap.obj
 0001:000705c2       ___old_sbh_free_block      100715c2 f   LIBCMT:sbheap.obj
 0001:00070607       ___old_sbh_alloc_block     10071607 f   LIBCMT:sbheap.obj
 0001:0007080f       ___old_sbh_alloc_block_from_page 1007180f f   LIBCMT:sbheap.obj
 0001:00070933       ___old_sbh_resize_block    10071933 f   LIBCMT:sbheap.obj
 0001:000709dc       ___old_sbh_heap_check      100719dc f   LIBCMT:sbheap.obj
 0001:00070b44       __except_handler3          10071b44 f   LIBCMT:exsup3.obj
 0001:00070c01       __seh_longjmp_unwind@4     10071c01 f   LIBCMT:exsup3.obj
 0001:00070c1c       ?_set_new_handler@@YAP6AHI@ZP6AHI@Z@Z 10071c1c f   LIBCMT:handler.obj
 0001:00070c40       ?_query_new_handler@@YAP6AHI@ZXZ 10071c40 f   LIBCMT:handler.obj
 0001:00070c46       __callnewh                 10071c46 f   LIBCMT:handler.obj
 0001:00070c61       __fltin2                   10071c61 f   LIBCMT:cfin.obj
 0001:00070ce0       _strlen                    10071ce0 f   LIBCMT:strlen.obj
 0001:00070d60       __cintrindisp2             10071d60 f   LIBCMT:87cdisp.obj
 0001:00070d9e       __cintrindisp1             10071d9e f   LIBCMT:87cdisp.obj
 0001:00070ddb       __ctrandisp2               10071ddb f   LIBCMT:87cdisp.obj
 0001:00070f5b       __ctrandisp1               10071f5b f   LIBCMT:87cdisp.obj
 0001:00070f8e       __fload                    10071f8e f   LIBCMT:87cdisp.obj
 0001:00070fd0       __trandisp1                10071fd0 f   LIBCMT:87disp.obj
 0001:00071037       __trandisp2                10072037 f   LIBCMT:87disp.obj
 0001:000710c3       __rttospopde               100720c3 f   LIBCMT:87disp.obj
 0001:000710c8       __rttospop                 100720c8 f   LIBCMT:87disp.obj
 0001:000710ca       __rtnospop                 100720ca f   LIBCMT:87disp.obj
 0001:000710cc       __rttosnpop                100720cc f   LIBCMT:87disp.obj
 0001:000710cd       __rtnospopde               100720cd f   LIBCMT:87disp.obj
 0001:000710d4       __rtzeropop                100720d4 f   LIBCMT:87disp.obj
 0001:000710d6       __rtzeronpop               100720d6 f   LIBCMT:87disp.obj
 0001:000710db       __rtonepop                 100720db f   LIBCMT:87disp.obj
 0001:000710dd       __rtonenpop                100720dd f   LIBCMT:87disp.obj
 0001:000710e2       __tosnan1                  100720e2 f   LIBCMT:87disp.obj
 0001:0007110d       __nosnan2                  1007210d f   LIBCMT:87disp.obj
 0001:0007110f       __tosnan2                  1007210f f   LIBCMT:87disp.obj
 0001:00071137       __nan2                     10072137 f   LIBCMT:87disp.obj
 0001:00071176       __rtindfpop                10072176 f   LIBCMT:87disp.obj
 0001:00071178       __rtindfnpop               10072178 f   LIBCMT:87disp.obj
 0001:00071189       __rttosnpopde              10072189 f   LIBCMT:87disp.obj
 0001:00071193       __rtchsifneg               10072193 f   LIBCMT:87disp.obj
 0001:000711a0       _fdiv_main_routine         100721a0 f   LIBCMT:adj_fdiv.obj
 0001:000712b7       __adj_fdiv_r               100722b7 f   LIBCMT:adj_fdiv.obj
 0001:00071756       __fdivp_sti_st             10072756 f   LIBCMT:adj_fdiv.obj
 0001:00071769       __fdivrp_sti_st            10072769 f   LIBCMT:adj_fdiv.obj
 0001:0007177c       __adj_fdiv_m32             1007277c f   LIBCMT:adj_fdiv.obj
 0001:000717c8       __adj_fdiv_m64             100727c8 f   LIBCMT:adj_fdiv.obj
 0001:00071814       __adj_fdiv_m16i            10072814 f   LIBCMT:adj_fdiv.obj
 0001:00071848       __adj_fdiv_m32i            10072848 f   LIBCMT:adj_fdiv.obj
 0001:0007187c       __adj_fdivr_m32            1007287c f   LIBCMT:adj_fdiv.obj
 0001:000718c8       __adj_fdivr_m64            100728c8 f   LIBCMT:adj_fdiv.obj
 0001:00071914       __adj_fdivr_m16i           10072914 f   LIBCMT:adj_fdiv.obj
 0001:00071948       __adj_fdivr_m32i           10072948 f   LIBCMT:adj_fdiv.obj
 0001:0007197c       __safe_fdiv                1007297c f   LIBCMT:adj_fdiv.obj
 0001:00071991       __safe_fdivr               10072991 f   LIBCMT:adj_fdiv.obj
 0001:000719a6       __fprem_common             100729a6 f   LIBCMT:adj_fdiv.obj
 0001:00071bac       __adj_fprem                10072bac f   LIBCMT:adj_fdiv.obj
 0001:00071c5e       __fprem1_common            10072c5e f   LIBCMT:adj_fdiv.obj
 0001:00071e64       __adj_fprem1               10072e64 f   LIBCMT:adj_fdiv.obj
 0001:00071f19       __safe_fprem               10072f19 f   LIBCMT:adj_fdiv.obj
 0001:00071f1f       __safe_fprem1              10072f1f f   LIBCMT:adj_fdiv.obj
 0001:00071f25       __adj_fpatan               10072f25 f   LIBCMT:adj_fdiv.obj
 0001:00071f28       __adj_fptan                10072f28 f   LIBCMT:adj_fdiv.obj
 0001:00071f30       __allmul                   10072f30 f   LIBCMT:llmul.obj
 0001:00071f64       ___loctotime_t             10072f64 f   LIBCMT:dtoxtime.obj
 0001:00072026       __stbuf                    10073026 f   LIBCMT:_sftbuf.obj
 0001:000720b3       __ftbuf                    100730b3 f   LIBCMT:_sftbuf.obj
 0001:000720f1       __fFEXP                    100730f1 f   LIBCMT:87tran.obj
 0001:00072158       __rtinfpopse               10073158 f   LIBCMT:87tran.obj
 0001:0007215a       __rtinfnpopse              1007315a f   LIBCMT:87tran.obj
 0001:0007216a       __fFLN                     1007316a f   LIBCMT:87tran.obj
 0001:0007221f       __rtinfpop                 1007321f f   LIBCMT:87tran.obj
 0001:00072221       __rtinfnpop                10073221 f   LIBCMT:87tran.obj
 0001:0007223e       __ffexpm1                  1007323e f   LIBCMT:87tran.obj
 0001:000722f0       __startTwoArgErrorHandling 100732f0 f   LIBCMT:genexcep.obj
 0001:00072307       __startOneArgErrorHandling 10073307 f   LIBCMT:genexcep.obj
 0001:00072350       __twoToTOS                 10073350 f   LIBCMT:common.obj
 0001:00072365       __load_CW                  10073365 f   LIBCMT:common.obj
 0001:0007237c       __convertTOStoQNaN         1007337c f   LIBCMT:common.obj
 0001:00072395       __fload_withFB             10073395 f   LIBCMT:common.obj
 0001:000723d8       __checkTOS_withFB          100733d8 f   LIBCMT:common.obj
 0001:000723ee       __fast_exit                100733ee f   LIBCMT:common.obj
 0001:000723fb       __math_exit                100733fb f   LIBCMT:common.obj
 0001:00072425       __check_overflow_exit      10073425 f   LIBCMT:common.obj
 0001:00072439       __check_range_exit         10073439 f   LIBCMT:common.obj
 0001:000724dc       __powhlp                   100734dc f   LIBCMT:powhlp.obj
 0001:0007260c       __d_inttype                1007360c f   LIBCMT:powhlp.obj
 0001:00072671       _setlocale                 10073671 f   LIBCMT:setlocal.obj
 0001:00072a8b       __expandlocale             10073a8b f   LIBCMT:setlocal.obj
 0001:00072ba3       ___init_dummy              10073ba3 f   LIBCMT:setlocal.obj
 0001:00072ba6       __strcats                  10073ba6 f   LIBCMT:setlocal.obj
 0001:00072bcb       ___lc_strtolc              10073bcb f   LIBCMT:setlocal.obj
 0001:00072c97       ___lc_lctostr              10073c97 f   LIBCMT:setlocal.obj
 0001:00072cea       ___crtLCMapStringA         10073cea f   LIBCMT:a_map.obj
 0001:00072f39       ___crtGetStringTypeA       10073f39 f   LIBCMT:a_str.obj
 0001:00073082       __input                    10074082 f   LIBCMT:input.obj
 0001:00073b40       _strcmp                    10074b40 f   LIBCMT:strcmp.obj
 0001:00073bc4       __setenvp                  10074bc4 f   LIBCMT:stdenvp.obj
 0001:00073c7d       __setargv                  10074c7d f   LIBCMT:stdargv.obj
 0001:00073eca       ___crtGetEnvironmentStringsA 10074eca f   LIBCMT:a_env.obj
 0001:00073ffc       _DllMain@12                10074ffc f   LIBCMT:dllmain.obj
 0001:00074002       __FF_MSGBANNER             10075002 f   LIBCMT:crt0msg.obj
 0001:0007403b       __NMSG_WRITE               1007503b f   LIBCMT:crt0msg.obj
 0001:0007418e       __GET_RTERRMSG             1007518e f   LIBCMT:crt0msg.obj
 0001:000741bf       ?__CxxUnhandledExceptionFilter@@YGJPAU_EXCEPTION_POINTERS@@@Z 100751bf f   LIBCMT:unhandld.obj
 0001:00074205       ?__CxxSetUnhandledExceptionFilter@@YAXXZ 10075205 f   LIBCMT:unhandld.obj
 0001:00074216       ?__CxxRestoreUnhandledExceptionFilter@@YAXXZ 10075216 f   LIBCMT:unhandld.obj
 0001:00074223       ?_ValidateRead@@YAHPBXI@Z  10075223 f   LIBCMT:validate.obj
 0001:0007423f       ?_ValidateWrite@@YAHPAXI@Z 1007523f f   LIBCMT:validate.obj
 0001:0007425b       ?_ValidateExecute@@YAHP6GHXZ@Z 1007525b f   LIBCMT:validate.obj
 0001:00074273       _calloc                    10075273 f   LIBCMT:calloc.obj
 0001:000743b0       __XcptFilter               100753b0 f   LIBCMT:winxfltr.obj
 0001:00074528       _abort                     10075528 f   LIBCMT:abort.obj
 0001:0007453f       __statusfp                 1007553f f   LIBCMT:ieee87.obj
 0001:00074552       __clearfp                  10075552 f   LIBCMT:ieee87.obj
 0001:00074566       __control87                10075566 f   LIBCMT:ieee87.obj
 0001:0007459b       __controlfp                1007559b f   LIBCMT:ieee87.obj
 0001:000745b1       __fpreset                  100755b1 f   LIBCMT:ieee87.obj
 0001:0007472c       __tolower                  1007572c f   LIBCMT:tolower.obj
 0001:00074734       _tolower                   10075734 f   LIBCMT:tolower.obj
 0001:000747a3       __tolower_lk               100757a3 f   LIBCMT:tolower.obj
 0001:0007486e       __ZeroTail                 1007586e f   LIBCMT:intrncvt.obj
 0001:000748b7       __IncMan                   100758b7 f   LIBCMT:intrncvt.obj
 0001:0007490d       __RoundMan                 1007590d f   LIBCMT:intrncvt.obj
 0001:00074999       __CopyMan                  10075999 f   LIBCMT:intrncvt.obj
 0001:000749b4       __FillZeroMan              100759b4 f   LIBCMT:intrncvt.obj
 0001:000749c0       __IsZeroMan                100759c0 f   LIBCMT:intrncvt.obj
 0001:000749db       __ShrMan                   100759db f   LIBCMT:intrncvt.obj
 0001:00074a68       __ld12cvt                  10075a68 f   LIBCMT:intrncvt.obj
 0001:00074bd4       __ld12tod                  10075bd4 f   LIBCMT:intrncvt.obj
 0001:00074bea       __ld12tof                  10075bea f   LIBCMT:intrncvt.obj
 0001:00074c00       __ld12told                 10075c00 f   LIBCMT:intrncvt.obj
 0001:00074c7a       __atodbl                   10075c7a f   LIBCMT:intrncvt.obj
 0001:00074ca7       __atoldbl                  10075ca7 f   LIBCMT:intrncvt.obj
 0001:00074cd5       __atoflt                   10075cd5 f   LIBCMT:intrncvt.obj
 0001:00074d02       __fptostr                  10075d02 f   LIBCMT:_fptostr.obj
 0001:00074d79       __fltout2                  10075d79 f   LIBCMT:cfout.obj
 0001:00074dd5       ___dtold                   10075dd5 f   LIBCMT:cfout.obj
 0001:00074e90       _strcpy                    10075e90 f   LIBCMT:strcat.obj
 0001:00074ea0       _strcat                    10075ea0 f   LIBCMT:strcat.obj
 0001:00074f80       _memset                    10075f80 f   LIBCMT:memset.obj
 0001:00074fd8       __fptrap                   10075fd8 f   LIBCMT:crt0fp.obj
 0001:00074fe1       __getbuf                   10075fe1 f   LIBCMT:_getbuf.obj
 0001:00075025       __isatty                   10076025 f   LIBCMT:isatty.obj
 0001:0007504e       _wctomb                    1007604e f   LIBCMT:wctomb.obj
 0001:000750a7       __wctomb_lk                100760a7 f   LIBCMT:wctomb.obj
 0001:00075110       __aulldiv                  10076110 f   LIBCMT:ulldiv.obj
 0001:00075180       __aullrem                  10076180 f   LIBCMT:ullrem.obj
 0001:000751f5       __fcloseall                100761f5 f   LIBCMT:closeall.obj
 0001:00075276       __alloc_osfhnd             10076276 f   LIBCMT:osfinfo.obj
 0001:00075399       __set_osfhnd               10076399 f   LIBCMT:osfinfo.obj
 0001:00075415       __free_osfhnd              10076415 f   LIBCMT:osfinfo.obj
 0001:00075494       __get_osfhandle            10076494 f   LIBCMT:osfinfo.obj
 0001:000754d6       __open_osfhandle           100764d6 f   LIBCMT:osfinfo.obj
 0001:0007557d       __lock_fhandle             1007657d f   LIBCMT:osfinfo.obj
 0001:000755dc       __unlock_fhandle           100765dc f   LIBCMT:osfinfo.obj
 0001:000755fe       __commit                   100765fe f   LIBCMT:commit.obj
 0001:00075691       __open                     10076691 f   LIBCMT:open.obj
 0001:000756a8       __sopen                    100766a8 f   LIBCMT:open.obj
 0001:00075977       _strtol                    10076977 f   LIBCMT:strtol.obj
 0001:00075b93       _strtoul                   10076b93 f   LIBCMT:strtol.obj
 0001:00075baa       ___strgtold12              10076baa f   LIBCMT:strgtold.obj
 0001:0007607b       ___STRINGTOLD              1007707b f   LIBCMT:strgtold.obj
 0001:000760b7       __87except                 100770b7 f   LIBCMT:87except.obj
 0001:00076187       ___tzset                   10077187 f   LIBCMT:tzset.obj
 0001:000761b5       __tzset                    100771b5 f   LIBCMT:tzset.obj
 0001:00076452       __isindst                  10077452 f   LIBCMT:tzset.obj
 0001:0007675f       __set_exp                  1007775f f   LIBCMT:util.obj
 0001:00076788       __get_exp                  10077788 f   LIBCMT:util.obj
 0001:0007679c       __add_exp                  1007779c f   LIBCMT:util.obj
 0001:000767c8       __set_bexp                 100777c8 f   LIBCMT:util.obj
 0001:000767ec       __sptype                   100777ec f   LIBCMT:util.obj
 0001:00076846       __decomp                   10077846 f   LIBCMT:util.obj
 0001:00076907       __frnd                     10077907 f   LIBCMT:frnd.obj
 0001:00076919       __copysign                 10077919 f   LIBCMT:ieeemisc.obj
 0001:0007693a       __chgsign                  1007793a f   LIBCMT:ieeemisc.obj
 0001:0007695f       __scalb                    1007795f f   LIBCMT:ieeemisc.obj
 0001:00076975       __logb                     10077975 f   LIBCMT:ieeemisc.obj
 0001:00076a5c       __nextafter                10077a5c f   LIBCMT:ieeemisc.obj
 0001:00076cf1       __finite                   10077cf1 f   LIBCMT:ieeemisc.obj
 0001:00076d05       __isnan                    10077d05 f   LIBCMT:ieeemisc.obj
 0001:00076d33       __fpclass                  10077d33 f   LIBCMT:ieeemisc.obj
 0001:00076dc5       ___init_time               10077dc5 f   LIBCMT:inittime.obj
 0001:00077334       ___init_numeric            10078334 f   LIBCMT:initnum.obj
 0001:00077540       ___init_monetary           10078540 f   LIBCMT:initmon.obj
 0001:000777b2       ___init_ctype              100787b2 f   LIBCMT:initctyp.obj
 0001:000779f7       ___init_collate            100789f7 f   LIBCMT:initcoll.obj
 0001:00077a00       _strcspn                   10078a00 f   LIBCMT:strcspn.obj
 0001:00077a40       _strpbrk                   10078a40 f   LIBCMT:strpbrk.obj
 0001:00077a7a       ___get_qualified_locale    10078a7a f   LIBCMT:getqloc.obj
 0001:00078321       _mbtowc                    10079321 f   LIBCMT:mbtowc.obj
 0001:0007837e       __mbtowc_lk                1007937e f   LIBCMT:mbtowc.obj
 0001:00078450       __allshl                   10079450 f   LIBCMT:llshl.obj
 0001:0007846f       _ungetc                    1007946f f   LIBCMT:ungetc.obj
 0001:00078498       __ungetc_lk                10079498 f   LIBCMT:ungetc.obj
 0001:00078506       __setmbcp                  10079506 f   LIBCMT:mbctype.obj
 0001:000788de       __getmbcp                  100798de f   LIBCMT:mbctype.obj
 0001:000788ee       ___initmbctable            100798ee f   LIBCMT:mbctype.obj
 0001:0007890a       ___crtMessageBoxA          1007990a f   LIBCMT:crtmbox.obj
 0001:00078993       _signal                    10079993 f   LIBCMT:winsig.obj
 0001:00078b77       _raise                     10079b77 f   LIBCMT:winsig.obj
 0001:00078d36       ___fpecode                 10079d36 f   LIBCMT:winsig.obj
 0001:00078d3f       ___pxcptinfoptrs           10079d3f f   LIBCMT:winsig.obj
 0001:00078d48       ___addl                    10079d48 f   LIBCMT:mantold.obj
 0001:00078d69       ___add_12                  10079d69 f   LIBCMT:mantold.obj
 0001:00078dc7       ___shl_12                  10079dc7 f   LIBCMT:mantold.obj
 0001:00078df5       ___shr_12                  10079df5 f   LIBCMT:mantold.obj
 0001:00078e22       ___mtold12                 10079e22 f   LIBCMT:mantold.obj
 0001:00078ee9       _$I10_OUTPUT               10079ee9 f   LIBCMT:x10fout.obj
 0001:0007917c       __chsize                   1007a17c f   LIBCMT:chsize.obj
 0001:000791d5       __chsize_lk                1007a1d5 f   LIBCMT:chsize.obj
 0001:000792fa       ___ld12mul                 1007a2fa f   LIBCMT:tenpow.obj
 0001:0007951a       ___multtenpow12            1007a51a f   LIBCMT:tenpow.obj
 0001:00079596       __handle_qnan1             1007a596 f   LIBCMT:fpexcept.obj
 0001:000795ea       __handle_qnan2             1007a5ea f   LIBCMT:fpexcept.obj
 0001:0007964a       __except1                  1007a64a f   LIBCMT:fpexcept.obj
 0001:000796e2       __except2                  1007a6e2 f   LIBCMT:fpexcept.obj
 0001:00079787       __raise_exc                1007a787 f   LIBCMT:fpexcept.obj
 0001:00079a3a       __handle_exc               1007aa3a f   LIBCMT:fpexcept.obj
 0001:00079c51       __umatherr                 1007ac51 f   LIBCMT:fpexcept.obj
 0001:00079cd9       __set_errno                1007acd9 f   LIBCMT:fpexcept.obj
 0001:00079d26       __errcode                  1007ad26 f   LIBCMT:fpexcept.obj
 0001:00079d53       __matherr                  1007ad53 f   LIBCMT:matherr.obj
 0001:00079d56       __statfp                   1007ad56 f   LIBCMT:fpctrl.obj
 0001:00079d64       __clrfp                    1007ad64 f   LIBCMT:fpctrl.obj
 0001:00079d73       __ctrlfp                   1007ad73 f   LIBCMT:fpctrl.obj
 0001:00079d96       __set_statfp               1007ad96 f   LIBCMT:fpctrl.obj
 0001:00079dec       _getenv                    1007adec f   LIBCMT:getenv.obj
 0001:00079e0d       __getenv_lk                1007ae0d f   LIBCMT:getenv.obj
 0001:00079e8a       _ldexp                     1007ae8a f   LIBCMT:ldexp.obj
 0001:0007a070       __Getdays                  1007b070 f   LIBCMT:strftime.obj
 0001:0007a0ff       __Getmonths                1007b0ff f   LIBCMT:strftime.obj
 0001:0007a194       __Gettnames                1007b194 f   LIBCMT:strftime.obj
 0001:0007a3c6       _strftime                  1007b3c6 f   LIBCMT:strftime.obj
 0001:0007a3e1       __Strftime                 1007b3e1 f   LIBCMT:strftime.obj
 0001:0007acb7       ___getlocaleinfo           1007bcb7 f   LIBCMT:inithelp.obj
 0001:0007adef       _localeconv                1007bdef f   LIBCMT:lconv.obj
 0001:0007adf5       ___crtGetStringTypeW       1007bdf5 f   LIBCMT:w_str.obj
 0001:0007afba       __itoa                     1007bfba f   LIBCMT:xtoa.obj
 0001:0007b043       __ltoa                     1007c043 f   LIBCMT:xtoa.obj
 0001:0007b06d       __ultoa                    1007c06d f   LIBCMT:xtoa.obj
 0001:0007b088       __i64toa                   1007c088 f   LIBCMT:xtoa.obj
 0001:0007b13f       __ui64toa                  1007c13f f   LIBCMT:xtoa.obj
 0001:0007b160       __strcmpi                  1007c160 f   LIBCMT:stricmp.obj
 0001:0007b160       __stricmp                  1007c160 f   LIBCMT:stricmp.obj
 0001:0007b160       _stricmp                   1007c160 f   LIBCMT:stricmp.obj
 0001:0007b230       __strnicmp                 1007c230 f   LIBCMT:strnicmp.obj
 0001:0007b230       _strnicmp                  1007c230 f   LIBCMT:strnicmp.obj
 0001:0007b331       __setmode                  1007c331 f   LIBCMT:setmode.obj
 0001:0007b38a       __setmode_lk               1007c38a f   LIBCMT:setmode.obj
 0001:0007b3eb       __mbsnbicoll               1007c3eb f   LIBCMT:mbsnbico.obj
 0001:0007b42a       ___wtomb_environ           1007c42a f   LIBCMT:wtombenv.obj
 0001:0007b498       ___crtGetLocaleInfoW       1007c498 f   LIBCMT:w_loc.obj
 0001:0007b5ab       ___crtGetLocaleInfoA       1007c5ab f   LIBCMT:a_loc.obj
 0001:0007b6c9       ___crtCompareStringA       1007c6c9 f   LIBCMT:a_cmp.obj
 0001:0007b971       ___crtsetenv               1007c971 f   LIBCMT:setenv.obj
 0001:0007bbb7       __mbschr                   1007cbb7 f   LIBCMT:mbschr.obj
 0001:0007bc4e       __strdup                   1007cc4e f   LIBCMT:strdup.obj
 0001:0007bc80       _RtlUnwind@16              1007cc80 f   kernel32:KERNEL32.dll
 0001:0007bc86       _ExitProcess@4             1007cc86 f   kernel32:KERNEL32.dll
 0001:0007bc8c       _TerminateProcess@8        1007cc8c f   kernel32:KERNEL32.dll
 0001:0007bc92       _HeapFree@12               1007cc92 f   kernel32:KERNEL32.dll
 0001:0007bc98       _HeapAlloc@12              1007cc98 f   kernel32:KERNEL32.dll
 0001:0007bc9e       _GetTimeZoneInformation@4  1007cc9e f   kernel32:KERNEL32.dll
 0001:0007bca4       _GetSystemTime@4           1007cca4 f   kernel32:KERNEL32.dll
 0001:0007bcaa       _GetLocalTime@4            1007ccaa f   kernel32:KERNEL32.dll
 0001:0007bcb0       _InterlockedDecrement@4    1007ccb0 f   kernel32:KERNEL32.dll
 0001:0007bcb6       _InterlockedIncrement@4    1007ccb6 f   kernel32:KERNEL32.dll
 0001:0007bcbc       _GetCommandLineA@0         1007ccbc f   kernel32:KERNEL32.dll
 0001:0007bcc2       _GetVersion@0              1007ccc2 f   kernel32:KERNEL32.dll
 0001:0007bcc8       _GetCurrentThreadId@0      1007ccc8 f   kernel32:KERNEL32.dll
 0001:0007bcce       _TlsSetValue@8             1007ccce f   kernel32:KERNEL32.dll
 0001:0007bcd4       _TlsAlloc@0                1007ccd4 f   kernel32:KERNEL32.dll
 0001:0007bcda       _TlsFree@4                 1007ccda f   kernel32:KERNEL32.dll
 0001:0007bce0       _SetLastError@4            1007cce0 f   kernel32:KERNEL32.dll
 0001:0007bce6       _TlsGetValue@4             1007cce6 f   kernel32:KERNEL32.dll
 0001:0007bcec       _GetLastError@0            1007ccec f   kernel32:KERNEL32.dll
 0001:0007bcf2       _GetCurrentThread@0        1007ccf2 f   kernel32:KERNEL32.dll
 0001:0007bcf8       _GetModuleHandleA@4        1007ccf8 f   kernel32:KERNEL32.dll
 0001:0007bcfe       _InitializeCriticalSection@4 1007ccfe f   kernel32:KERNEL32.dll
 0001:0007bd04       _DeleteCriticalSection@4   1007cd04 f   kernel32:KERNEL32.dll
 0001:0007bd0a       _EnterCriticalSection@4    1007cd0a f   kernel32:KERNEL32.dll
 0001:0007bd10       _LeaveCriticalSection@4    1007cd10 f   kernel32:KERNEL32.dll
 0001:0007bd16       _FatalAppExitA@8           1007cd16 f   kernel32:KERNEL32.dll
 0001:0007bd1c       _CloseHandle@4             1007cd1c f   kernel32:KERNEL32.dll
 0001:0007bd22       _SetHandleCount@4          1007cd22 f   kernel32:KERNEL32.dll
 0001:0007bd28       _GetStdHandle@4            1007cd28 f   kernel32:KERNEL32.dll
 0001:0007bd2e       _GetFileType@4             1007cd2e f   kernel32:KERNEL32.dll
 0001:0007bd34       _GetStartupInfoA@4         1007cd34 f   kernel32:KERNEL32.dll
 0001:0007bd3a       _SetFilePointer@16         1007cd3a f   kernel32:KERNEL32.dll
 0001:0007bd40       _ReadFile@20               1007cd40 f   kernel32:KERNEL32.dll
 0001:0007bd46       _WriteFile@20              1007cd46 f   kernel32:KERNEL32.dll
 0001:0007bd4c       _HeapReAlloc@16            1007cd4c f   kernel32:KERNEL32.dll
 0001:0007bd52       _HeapSize@12               1007cd52 f   kernel32:KERNEL32.dll
 0001:0007bd58       _GetEnvironmentVariableA@12 1007cd58 f   kernel32:KERNEL32.dll
 0001:0007bd5e       _GetVersionExA@4           1007cd5e f   kernel32:KERNEL32.dll
 0001:0007bd64       _HeapDestroy@4             1007cd64 f   kernel32:KERNEL32.dll
 0001:0007bd6a       _HeapCreate@12             1007cd6a f   kernel32:KERNEL32.dll
 0001:0007bd70       _VirtualFree@12            1007cd70 f   kernel32:KERNEL32.dll
 0001:0007bd76       _VirtualAlloc@16           1007cd76 f   kernel32:KERNEL32.dll
 0001:0007bd7c       _IsBadWritePtr@8           1007cd7c f   kernel32:KERNEL32.dll
 0001:0007bd82       _Sleep@4                   1007cd82 f   kernel32:KERNEL32.dll
 0001:0007bd88       _WideCharToMultiByte@32    1007cd88 f   kernel32:KERNEL32.dll
 0001:0007bd8e       _MultiByteToWideChar@24    1007cd8e f   kernel32:KERNEL32.dll
 0001:0007bd94       _LCMapStringA@24           1007cd94 f   kernel32:KERNEL32.dll
 0001:0007bd9a       _LCMapStringW@24           1007cd9a f   kernel32:KERNEL32.dll
 0001:0007bda0       _GetStringTypeA@20         1007cda0 f   kernel32:KERNEL32.dll
 0001:0007bda6       _GetStringTypeW@16         1007cda6 f   kernel32:KERNEL32.dll
 0001:0007bdac       _FreeEnvironmentStringsA@4 1007cdac f   kernel32:KERNEL32.dll
 0001:0007bdb2       _FreeEnvironmentStringsW@4 1007cdb2 f   kernel32:KERNEL32.dll
 0001:0007bdb8       _GetEnvironmentStrings@0   1007cdb8 f   kernel32:KERNEL32.dll
 0001:0007bdbe       _GetEnvironmentStringsW@0  1007cdbe f   kernel32:KERNEL32.dll
 0001:0007bdc4       _IsBadReadPtr@8            1007cdc4 f   kernel32:KERNEL32.dll
 0001:0007bdca       _IsBadCodePtr@4            1007cdca f   kernel32:KERNEL32.dll
 0001:0007bdd0       _UnhandledExceptionFilter@4 1007cdd0 f   kernel32:KERNEL32.dll
 0001:0007bdd6       _SetStdHandle@8            1007cdd6 f   kernel32:KERNEL32.dll
 0001:0007bddc       _FlushFileBuffers@4        1007cddc f   kernel32:KERNEL32.dll
 0001:0007bde2       _CreateFileA@28            1007cde2 f   kernel32:KERNEL32.dll
 0001:0007bde8       _GetCPInfo@8               1007cde8 f   kernel32:KERNEL32.dll
 0001:0007bdee       _IsValidLocale@8           1007cdee f   kernel32:KERNEL32.dll
 0001:0007bdf4       _IsValidCodePage@4         1007cdf4 f   kernel32:KERNEL32.dll
 0001:0007bdfa       _GetLocaleInfoA@16         1007cdfa f   kernel32:KERNEL32.dll
 0001:0007be00       _EnumSystemLocalesA@8      1007ce00 f   kernel32:KERNEL32.dll
 0001:0007be06       _GetUserDefaultLCID@0      1007ce06 f   kernel32:KERNEL32.dll
 0001:0007be0c       _GetACP@0                  1007ce0c f   kernel32:KERNEL32.dll
 0001:0007be12       _GetOEMCP@0                1007ce12 f   kernel32:KERNEL32.dll
 0001:0007be18       _SetConsoleCtrlHandler@8   1007ce18 f   kernel32:KERNEL32.dll
 0001:0007be1e       _SetEndOfFile@4            1007ce1e f   kernel32:KERNEL32.dll
 0001:0007be24       _RaiseException@16         1007ce24 f   kernel32:KERNEL32.dll
 0001:0007be2a       _GetLocaleInfoW@16         1007ce2a f   kernel32:KERNEL32.dll
 0001:0007be30       _CompareStringA@24         1007ce30 f   kernel32:KERNEL32.dll
 0001:0007be36       _CompareStringW@24         1007ce36 f   kernel32:KERNEL32.dll
 0001:0007be3c       _SetEnvironmentVariableA@8 1007ce3c f   kernel32:KERNEL32.dll
 0001:0007be42       __strupr                   1007ce42 f   LIBCMT:strupr.obj
 0001:0007be42       _strupr                    1007ce42 f   LIBCMT:strupr.obj
 0002:00000000       __imp__LoadLibraryA@4      1007e000     kernel32:KERNEL32.dll
 0002:00000004       __imp__FreeLibrary@4       1007e004     kernel32:KERNEL32.dll
 0002:00000008       __imp__GetProcAddress@8    1007e008     kernel32:KERNEL32.dll
 0002:0000000c       __imp__SetCurrentDirectoryA@4 1007e00c     kernel32:KERNEL32.dll
 0002:00000010       __imp__GetCurrentDirectoryA@8 1007e010     kernel32:KERNEL32.dll
 0002:00000014       __imp__SetUnhandledExceptionFilter@4 1007e014     kernel32:KERNEL32.dll
 0002:00000018       __imp__GetModuleFileNameA@12 1007e018     kernel32:KERNEL32.dll
 0002:0000001c       __imp__GetCurrentProcess@0 1007e01c     kernel32:KERNEL32.dll
 0002:00000020       __imp__CompareStringW@24   1007e020     kernel32:KERNEL32.dll
 0002:00000024       __imp__CompareStringA@24   1007e024     kernel32:KERNEL32.dll
 0002:00000028       __imp__GetLocaleInfoW@16   1007e028     kernel32:KERNEL32.dll
 0002:0000002c       __imp__RaiseException@16   1007e02c     kernel32:KERNEL32.dll
 0002:00000030       __imp__SetEndOfFile@4      1007e030     kernel32:KERNEL32.dll
 0002:00000034       __imp__SetConsoleCtrlHandler@8 1007e034     kernel32:KERNEL32.dll
 0002:00000038       __imp__GetOEMCP@0          1007e038     kernel32:KERNEL32.dll
 0002:0000003c       __imp__GetACP@0            1007e03c     kernel32:KERNEL32.dll
 0002:00000040       __imp__GetUserDefaultLCID@0 1007e040     kernel32:KERNEL32.dll
 0002:00000044       __imp__EnumSystemLocalesA@8 1007e044     kernel32:KERNEL32.dll
 0002:00000048       __imp__GetLocaleInfoA@16   1007e048     kernel32:KERNEL32.dll
 0002:0000004c       __imp__IsValidCodePage@4   1007e04c     kernel32:KERNEL32.dll
 0002:00000050       __imp__IsValidLocale@8     1007e050     kernel32:KERNEL32.dll
 0002:00000054       __imp__GetCPInfo@8         1007e054     kernel32:KERNEL32.dll
 0002:00000058       __imp__CreateFileA@28      1007e058     kernel32:KERNEL32.dll
 0002:0000005c       __imp__FlushFileBuffers@4  1007e05c     kernel32:KERNEL32.dll
 0002:00000060       __imp__SetStdHandle@8      1007e060     kernel32:KERNEL32.dll
 0002:00000064       __imp__UnhandledExceptionFilter@4 1007e064     kernel32:KERNEL32.dll
 0002:00000068       __imp__IsBadCodePtr@4      1007e068     kernel32:KERNEL32.dll
 0002:0000006c       __imp__IsBadReadPtr@8      1007e06c     kernel32:KERNEL32.dll
 0002:00000070       __imp__GetEnvironmentStringsW@0 1007e070     kernel32:KERNEL32.dll
 0002:00000074       __imp__GetEnvironmentStrings@0 1007e074     kernel32:KERNEL32.dll
 0002:00000078       __imp__FreeEnvironmentStringsW@4 1007e078     kernel32:KERNEL32.dll
 0002:0000007c       __imp__FreeEnvironmentStringsA@4 1007e07c     kernel32:KERNEL32.dll
 0002:00000080       __imp__GetStringTypeW@16   1007e080     kernel32:KERNEL32.dll
 0002:00000084       __imp__GetStringTypeA@20   1007e084     kernel32:KERNEL32.dll
 0002:00000088       __imp__LCMapStringW@24     1007e088     kernel32:KERNEL32.dll
 0002:0000008c       __imp__LCMapStringA@24     1007e08c     kernel32:KERNEL32.dll
 0002:00000090       __imp__MultiByteToWideChar@24 1007e090     kernel32:KERNEL32.dll
 0002:00000094       __imp__WideCharToMultiByte@32 1007e094     kernel32:KERNEL32.dll
 0002:00000098       __imp__Sleep@4             1007e098     kernel32:KERNEL32.dll
 0002:0000009c       __imp__IsBadWritePtr@8     1007e09c     kernel32:KERNEL32.dll
 0002:000000a0       __imp__VirtualAlloc@16     1007e0a0     kernel32:KERNEL32.dll
 0002:000000a4       __imp__VirtualFree@12      1007e0a4     kernel32:KERNEL32.dll
 0002:000000a8       __imp__HeapCreate@12       1007e0a8     kernel32:KERNEL32.dll
 0002:000000ac       __imp__HeapDestroy@4       1007e0ac     kernel32:KERNEL32.dll
 0002:000000b0       __imp__GetVersionExA@4     1007e0b0     kernel32:KERNEL32.dll
 0002:000000b4       __imp__GetEnvironmentVariableA@12 1007e0b4     kernel32:KERNEL32.dll
 0002:000000b8       __imp__HeapSize@12         1007e0b8     kernel32:KERNEL32.dll
 0002:000000bc       __imp__HeapReAlloc@16      1007e0bc     kernel32:KERNEL32.dll
 0002:000000c0       __imp__WriteFile@20        1007e0c0     kernel32:KERNEL32.dll
 0002:000000c4       __imp__ReadFile@20         1007e0c4     kernel32:KERNEL32.dll
 0002:000000c8       __imp__SetFilePointer@16   1007e0c8     kernel32:KERNEL32.dll
 0002:000000cc       __imp__GetStartupInfoA@4   1007e0cc     kernel32:KERNEL32.dll
 0002:000000d0       __imp__GetFileType@4       1007e0d0     kernel32:KERNEL32.dll
 0002:000000d4       __imp__GetStdHandle@4      1007e0d4     kernel32:KERNEL32.dll
 0002:000000d8       __imp__SetHandleCount@4    1007e0d8     kernel32:KERNEL32.dll
 0002:000000dc       __imp__CloseHandle@4       1007e0dc     kernel32:KERNEL32.dll
 0002:000000e0       __imp__FatalAppExitA@8     1007e0e0     kernel32:KERNEL32.dll
 0002:000000e4       __imp__LeaveCriticalSection@4 1007e0e4     kernel32:KERNEL32.dll
 0002:000000e8       __imp__EnterCriticalSection@4 1007e0e8     kernel32:KERNEL32.dll
 0002:000000ec       __imp__DeleteCriticalSection@4 1007e0ec     kernel32:KERNEL32.dll
 0002:000000f0       __imp__InitializeCriticalSection@4 1007e0f0     kernel32:KERNEL32.dll
 0002:000000f4       __imp__GetModuleHandleA@4  1007e0f4     kernel32:KERNEL32.dll
 0002:000000f8       __imp__GetCurrentThread@0  1007e0f8     kernel32:KERNEL32.dll
 0002:000000fc       __imp__GetLastError@0      1007e0fc     kernel32:KERNEL32.dll
 0002:00000100       __imp__TlsGetValue@4       1007e100     kernel32:KERNEL32.dll
 0002:00000104       __imp__SetLastError@4      1007e104     kernel32:KERNEL32.dll
 0002:00000108       __imp__TlsFree@4           1007e108     kernel32:KERNEL32.dll
 0002:0000010c       __imp__TlsAlloc@0          1007e10c     kernel32:KERNEL32.dll
 0002:00000110       __imp__TlsSetValue@8       1007e110     kernel32:KERNEL32.dll
 0002:00000114       __imp__GetCurrentThreadId@0 1007e114     kernel32:KERNEL32.dll
 0002:00000118       __imp__GetVersion@0        1007e118     kernel32:KERNEL32.dll
 0002:0000011c       __imp__GetCommandLineA@0   1007e11c     kernel32:KERNEL32.dll
 0002:00000120       __imp__InterlockedIncrement@4 1007e120     kernel32:KERNEL32.dll
 0002:00000124       __imp__InterlockedDecrement@4 1007e124     kernel32:KERNEL32.dll
 0002:00000128       __imp__GetLocalTime@4      1007e128     kernel32:KERNEL32.dll
 0002:0000012c       __imp__GetSystemTime@4     1007e12c     kernel32:KERNEL32.dll
 0002:00000130       __imp__GetTimeZoneInformation@4 1007e130     kernel32:KERNEL32.dll
 0002:00000134       __imp__HeapAlloc@12        1007e134     kernel32:KERNEL32.dll
 0002:00000138       __imp__HeapFree@12         1007e138     kernel32:KERNEL32.dll
 0002:0000013c       __imp__TerminateProcess@8  1007e13c     kernel32:KERNEL32.dll
 0002:00000140       __imp__ExitProcess@4       1007e140     kernel32:KERNEL32.dll
 0002:00000144       __imp__RtlUnwind@16        1007e144     kernel32:KERNEL32.dll
 0002:00000148       __imp__SetEnvironmentVariableA@8 1007e148     kernel32:KERNEL32.dll
 0002:0000014c       \177KERNEL32_NULL_THUNK_DATA 1007e14c     kernel32:KERNEL32.dll
 0002:00000150       __imp__GetCursorPos@4      1007e150     user32:USER32.dll
 0002:00000154       __imp__SystemParametersInfoA@16 1007e154     user32:USER32.dll
 0002:00000158       __imp__SetCursorPos@8      1007e158     user32:USER32.dll
 0002:0000015c       \177USER32_NULL_THUNK_DATA 1007e15c     user32:USER32.dll
 0002:00000160       __imp__joyGetDevCapsA@12   1007e160     winmm:WINMM.dll
 0002:00000164       __imp__joyGetNumDevs@0     1007e164     winmm:WINMM.dll
 0002:00000168       __imp__joyGetPosEx@8       1007e168     winmm:WINMM.dll
 0002:0000016c       \177WINMM_NULL_THUNK_DATA  1007e16c     winmm:WINMM.dll
 0002:00000170       __imp__htons@4             1007e170     wsock32:WSOCK32.dll
 0002:00000174       \177WSOCK32_NULL_THUNK_DATA 1007e174     wsock32:WSOCK32.dll
 0002:00000178       __imp_?getSurfaceBase@Panel@vgui@@UAEPAVSurfaceBase@2@XZ 1007e178     vgui:vgui.dll
 0002:0000017c       __imp_?getPreferredSize@Panel@vgui@@UAEXAAH0@Z 1007e17c     vgui:vgui.dll
 0002:00000180       __imp_?setPreferredSize@Panel@vgui@@UAEXHH@Z 1007e180     vgui:vgui.dll
 0002:00000184       __imp_?getPaintSize@Panel@vgui@@UAEXAAH0@Z 1007e184     vgui:vgui.dll
 0002:00000188       __imp_?getInset@Panel@vgui@@UAEXAAH000@Z 1007e188     vgui:vgui.dll
 0002:0000018c       __imp_?setPaintEnabled@Panel@vgui@@UAEX_N@Z 1007e18c     vgui:vgui.dll
 0002:00000190       __imp_?setPaintBackgroundEnabled@Panel@vgui@@UAEX_N@Z 1007e190     vgui:vgui.dll
 0002:00000194       __imp_?setPaintBorderEnabled@Panel@vgui@@UAEX_N@Z 1007e194     vgui:vgui.dll
 0002:00000198       __imp_?setBorder@Panel@vgui@@UAEXPAVBorder@2@@Z 1007e198     vgui:vgui.dll
 0002:0000019c       __imp_?setAutoFocusNavEnabled@Panel@vgui@@UAEX_N@Z 1007e19c     vgui:vgui.dll
 0002:000001a0       __imp_?isAutoFocusNavEnabled@Panel@vgui@@UAE_NXZ 1007e1a0     vgui:vgui.dll
 0002:000001a4       __imp_?addFocusChangeSignal@Panel@vgui@@UAEXPAVFocusChangeSignal@2@@Z 1007e1a4     vgui:vgui.dll
 0002:000001a8       __imp_?requestFocusNext@Panel@vgui@@UAEXXZ 1007e1a8     vgui:vgui.dll
 0002:000001ac       __imp_?requestFocusPrev@Panel@vgui@@UAEXXZ 1007e1ac     vgui:vgui.dll
 0002:000001b0       __imp_?setFocusNavGroup@Panel@vgui@@UAEXPAVFocusNavGroup@2@@Z 1007e1b0     vgui:vgui.dll
 0002:000001b4       __imp_?invalidateLayout@Panel@vgui@@UAEX_N@Z 1007e1b4     vgui:vgui.dll
 0002:000001b8       __imp_?setLayout@Panel@vgui@@UAEXPAVLayout@2@@Z 1007e1b8     vgui:vgui.dll
 0002:000001bc       __imp_?getChild@Panel@vgui@@UAEPAV12@H@Z 1007e1bc     vgui:vgui.dll
 0002:000001c0       __imp_?getChildCount@Panel@vgui@@UAEHXZ 1007e1c0     vgui:vgui.dll
 0002:000001c4       __imp_?hasFocus@Panel@vgui@@UAE_NXZ 1007e1c4     vgui:vgui.dll
 0002:000001c8       __imp_?requestFocus@Panel@vgui@@UAEXXZ 1007e1c8     vgui:vgui.dll
 0002:000001cc       __imp_?getMinimumSize@Panel@vgui@@UAEXAAH0@Z 1007e1cc     vgui:vgui.dll
 0002:000001d0       __imp_?setMinimumSize@Panel@vgui@@UAEXHH@Z 1007e1d0     vgui:vgui.dll
 0002:000001d4       __imp_?getCursor@Panel@vgui@@UAEPAVCursor@2@XZ 1007e1d4     vgui:vgui.dll
 0002:000001d8       __imp_?setCursor@Panel@vgui@@UAEXPAVCursor@2@@Z 1007e1d8     vgui:vgui.dll
 0002:000001dc       __imp_?setCursor@Panel@vgui@@UAEXW4SchemeCursor@Scheme@2@@Z 1007e1dc     vgui:vgui.dll
 0002:000001e0       __imp_?screenToLocal@Panel@vgui@@UAEXAAH0@Z 1007e1e0     vgui:vgui.dll
 0002:000001e4       __imp_?localToScreen@Panel@vgui@@UAEXAAH0@Z 1007e1e4     vgui:vgui.dll
 0002:000001e8       __imp_?isWithinTraverse@Panel@vgui@@UAEPAV12@HH@Z 1007e1e8     vgui:vgui.dll
 0002:000001ec       __imp_?isWithin@Panel@vgui@@UAE_NHH@Z 1007e1ec     vgui:vgui.dll
 0002:000001f0       __imp_?removeRepaintSignal@Panel@vgui@@UAEXPAVRepaintSignal@2@@Z 1007e1f0     vgui:vgui.dll
 0002:000001f4       __imp_?addRepaintSignal@Panel@vgui@@UAEXPAVRepaintSignal@2@@Z 1007e1f4     vgui:vgui.dll
 0002:000001f8       __imp_?removeInputSignal@Panel@vgui@@UAEXPAVInputSignal@2@@Z 1007e1f8     vgui:vgui.dll
 0002:000001fc       __imp_?addInputSignal@Panel@vgui@@UAEXPAVInputSignal@2@@Z 1007e1fc     vgui:vgui.dll
 0002:00000200       __imp_?wasKeyReleased@Panel@vgui@@UAE_NW4KeyCode@2@@Z 1007e200     vgui:vgui.dll
 0002:00000204       __imp_?wasKeyTyped@Panel@vgui@@UAE_NW4KeyCode@2@@Z 1007e204     vgui:vgui.dll
 0002:00000208       __imp_?isKeyDown@Panel@vgui@@UAE_NW4KeyCode@2@@Z 1007e208     vgui:vgui.dll
 0002:0000020c       __imp_?wasKeyPressed@Panel@vgui@@UAE_NW4KeyCode@2@@Z 1007e20c     vgui:vgui.dll
 0002:00000210       __imp_?wasMouseReleased@Panel@vgui@@UAE_NW4MouseCode@2@@Z 1007e210     vgui:vgui.dll
 0002:00000214       __imp_?isMouseDown@Panel@vgui@@UAE_NW4MouseCode@2@@Z 1007e214     vgui:vgui.dll
 0002:00000218       __imp_?wasMouseDoublePressed@Panel@vgui@@UAE_NW4MouseCode@2@@Z 1007e218     vgui:vgui.dll
 0002:0000021c       __imp_?wasMousePressed@Panel@vgui@@UAE_NW4MouseCode@2@@Z 1007e21c     vgui:vgui.dll
 0002:00000220       __imp_?removeChild@Panel@vgui@@UAEXPAV12@@Z 1007e220     vgui:vgui.dll
 0002:00000224       __imp_?insertChildAt@Panel@vgui@@UAEXPAV12@H@Z 1007e224     vgui:vgui.dll
 0002:00000228       __imp_?addChild@Panel@vgui@@UAEXPAV12@@Z 1007e228     vgui:vgui.dll
 0002:0000022c       __imp_?setParent@Panel@vgui@@UAEXPAV12@@Z 1007e22c     vgui:vgui.dll
 0002:00000230       __imp_?getClipRect@Panel@vgui@@UAEXAAH000@Z 1007e230     vgui:vgui.dll
 0002:00000234       __imp_?getAbsExtents@Panel@vgui@@UAEXAAH000@Z 1007e234     vgui:vgui.dll
 0002:00000238       __imp_?repaintAll@Panel@vgui@@UAEXXZ 1007e238     vgui:vgui.dll
 0002:0000023c       __imp_?repaint@Panel@vgui@@UAEXXZ 1007e23c     vgui:vgui.dll
 0002:00000240       __imp_?isVisibleUp@Panel@vgui@@UAE_NXZ 1007e240     vgui:vgui.dll
 0002:00000244       __imp_?isVisible@Panel@vgui@@UAE_NXZ 1007e244     vgui:vgui.dll
 0002:00000248       __imp_?setVisible@Panel@vgui@@UAEX_N@Z 1007e248     vgui:vgui.dll
 0002:0000024c       __imp_?getParent@Panel@vgui@@UAEPAV12@XZ 1007e24c     vgui:vgui.dll
 0002:00000250       __imp_?getTall@Panel@vgui@@UAEHXZ 1007e250     vgui:vgui.dll
 0002:00000254       __imp_?getWide@Panel@vgui@@UAEHXZ 1007e254     vgui:vgui.dll
 0002:00000258       __imp_?getBounds@Panel@vgui@@UAEXAAH000@Z 1007e258     vgui:vgui.dll
 0002:0000025c       __imp_?setBounds@Panel@vgui@@UAEXHHHH@Z 1007e25c     vgui:vgui.dll
 0002:00000260       __imp_?getSize@Panel@vgui@@UAEXAAH0@Z 1007e260     vgui:vgui.dll
 0002:00000264       __imp_?setSize@Panel@vgui@@UAEXHH@Z 1007e264     vgui:vgui.dll
 0002:00000268       __imp_?getPos@Panel@vgui@@UAEXAAH0@Z 1007e268     vgui:vgui.dll
 0002:0000026c       __imp_?setPos@Panel@vgui@@UAEXHH@Z 1007e26c     vgui:vgui.dll
 0002:00000270       __imp_?recomputeMinimumSize@Label@vgui@@MAEXXZ 1007e270     vgui:vgui.dll
 0002:00000274       __imp_?computeAlignment@Label@vgui@@MAEXAAH00000000000@Z 1007e274     vgui:vgui.dll
 0002:00000278       __imp_?setContentFitted@Label@vgui@@UAEX_N@Z 1007e278     vgui:vgui.dll
 0002:0000027c       __imp_?setContentAlignment@Label@vgui@@UAEXW4Alignment@12@@Z 1007e27c     vgui:vgui.dll
 0002:00000280       __imp_?setTextAlignment@Label@vgui@@UAEXW4Alignment@12@@Z 1007e280     vgui:vgui.dll
 0002:00000284       __imp_?getContentSize@Label@vgui@@UAEXAAH0@Z 1007e284     vgui:vgui.dll
 0002:00000288       __imp_?getTextSize@Label@vgui@@UAEXAAH0@Z 1007e288     vgui:vgui.dll
 0002:0000028c       __imp_?setFont@Label@vgui@@UAEXW4SchemeFont@Scheme@2@@Z 1007e28c     vgui:vgui.dll
 0002:00000290       __imp_?setFont@Label@vgui@@UAEXPAVFont@2@@Z 1007e290     vgui:vgui.dll
 0002:00000294       __imp_?setText@Label@vgui@@UAEXHPBD@Z 1007e294     vgui:vgui.dll
 0002:00000298       __imp_?setText@Label@vgui@@UAAXPBDZZ 1007e298     vgui:vgui.dll
 0002:0000029c       __imp_?setImage@Label@vgui@@UAEXPAVImage@2@@Z 1007e29c     vgui:vgui.dll
 0002:000002a0       __imp_?paint@Label@vgui@@MAEXXZ 1007e2a0     vgui:vgui.dll
 0002:000002a4       __imp_?setFgColor@Label@vgui@@UAEXW4SchemeColor@Scheme@2@@Z 1007e2a4     vgui:vgui.dll
 0002:000002a8       __imp_?setFgColor@Label@vgui@@UAEXHHHH@Z 1007e2a8     vgui:vgui.dll
 0002:000002ac       __imp_?createPropertyPanel@Label@vgui@@UAEPAVPanel@2@XZ 1007e2ac     vgui:vgui.dll
 0002:000002b0       __imp_?init@Label@vgui@@AAEXHPBD_N@Z 1007e2b0     vgui:vgui.dll
 0002:000002b4       __imp_??0Panel@vgui@@QAE@HHHH@Z 1007e2b4     vgui:vgui.dll
 0002:000002b8       __imp_?doPaint@Image@vgui@@UAEXPAVPanel@2@@Z 1007e2b8     vgui:vgui.dll
 0002:000002bc       __imp_?paint@Image@vgui@@MAEXPAVPanel@2@@Z 1007e2bc     vgui:vgui.dll
 0002:000002c0       __imp_?drawTexturedRect@Image@vgui@@MAEXHHHH@Z 1007e2c0     vgui:vgui.dll
 0002:000002c4       __imp_?drawSetTexture@Image@vgui@@MAEXH@Z 1007e2c4     vgui:vgui.dll
 0002:000002c8       __imp_?drawSetTextureRGBA@Image@vgui@@MAEXHPBDHH@Z 1007e2c8     vgui:vgui.dll
 0002:000002cc       __imp_?drawPrintChar@Image@vgui@@MAEXD@Z 1007e2cc     vgui:vgui.dll
 0002:000002d0       __imp_?drawPrintChar@Image@vgui@@MAEXHHD@Z 1007e2d0     vgui:vgui.dll
 0002:000002d4       __imp_?drawPrintText@Image@vgui@@MAEXPBDH@Z 1007e2d4     vgui:vgui.dll
 0002:000002d8       __imp_?drawPrintText@Image@vgui@@MAEXHHPBDH@Z 1007e2d8     vgui:vgui.dll
 0002:000002dc       __imp_?drawSetTextPos@Image@vgui@@MAEXHH@Z 1007e2dc     vgui:vgui.dll
 0002:000002e0       __imp_?drawSetTextColor@Image@vgui@@MAEXW4SchemeColor@Scheme@2@@Z 1007e2e0     vgui:vgui.dll
 0002:000002e4       __imp_?drawSetTextColor@Image@vgui@@MAEXHHHH@Z 1007e2e4     vgui:vgui.dll
 0002:000002e8       __imp_?drawSetTextFont@Image@vgui@@MAEXW4SchemeFont@Scheme@2@@Z 1007e2e8     vgui:vgui.dll
 0002:000002ec       __imp_?drawSetTextFont@Image@vgui@@MAEXPAVFont@2@@Z 1007e2ec     vgui:vgui.dll
 0002:000002f0       __imp_?drawOutlinedRect@Image@vgui@@MAEXHHHH@Z 1007e2f0     vgui:vgui.dll
 0002:000002f4       __imp_?drawFilledRect@Image@vgui@@MAEXHHHH@Z 1007e2f4     vgui:vgui.dll
 0002:000002f8       __imp_?drawSetColor@Image@vgui@@MAEXW4SchemeColor@Scheme@2@@Z 1007e2f8     vgui:vgui.dll
 0002:000002fc       __imp_?drawSetColor@Image@vgui@@MAEXHHHH@Z 1007e2fc     vgui:vgui.dll
 0002:00000300       __imp_?setSize@Image@vgui@@MAEXHH@Z 1007e300     vgui:vgui.dll
 0002:00000304       __imp_?getColor@Image@vgui@@UAEXAAVColor@2@@Z 1007e304     vgui:vgui.dll
 0002:00000308       __imp_?setColor@Image@vgui@@UAEXVColor@2@@Z 1007e308     vgui:vgui.dll
 0002:0000030c       __imp_?getSize@Image@vgui@@UAEXAAH0@Z 1007e30c     vgui:vgui.dll
 0002:00000310       __imp_?getPos@Image@vgui@@UAEXAAH0@Z 1007e310     vgui:vgui.dll
 0002:00000314       __imp_?setPos@Image@vgui@@UAEXHH@Z 1007e314     vgui:vgui.dll
 0002:00000318       __imp_?getInset@Border@vgui@@UAEXAAH000@Z 1007e318     vgui:vgui.dll
 0002:0000031c       __imp_?setInset@Border@vgui@@UAEXHHHH@Z 1007e31c     vgui:vgui.dll
 0002:00000320       __imp_?drawPrintChar@Border@vgui@@MAEXHHD@Z 1007e320     vgui:vgui.dll
 0002:00000324       __imp_?drawPrintText@Border@vgui@@MAEXHHPBDH@Z 1007e324     vgui:vgui.dll
 0002:00000328       __imp_?drawSetTextPos@Border@vgui@@MAEXHH@Z 1007e328     vgui:vgui.dll
 0002:0000032c       __imp_?drawOutlinedRect@Border@vgui@@MAEXHHHH@Z 1007e32c     vgui:vgui.dll
 0002:00000330       __imp_?drawFilledRect@Border@vgui@@MAEXHHHH@Z 1007e330     vgui:vgui.dll
 0002:00000334       __imp_??0Color@vgui@@QAE@HHHH@Z 1007e334     vgui:vgui.dll
 0002:00000338       __imp_?init@LineBorder@vgui@@EAEXHVColor@2@@Z 1007e338     vgui:vgui.dll
 0002:0000033c       __imp_?paint@LineBorder@vgui@@MAEXPAVPanel@2@@Z 1007e33c     vgui:vgui.dll
 0002:00000340       __imp_?setImage@ImagePanel@vgui@@UAEXPAVImage@2@@Z 1007e340     vgui:vgui.dll
 0002:00000344       __imp_?paintBackground@ImagePanel@vgui@@MAEXXZ 1007e344     vgui:vgui.dll
 0002:00000348       __imp_??0Panel@vgui@@QAE@XZ 1007e348     vgui:vgui.dll
 0002:0000034c       __imp_?setRGBA@Bitmap@vgui@@MAEXHHEEEE@Z 1007e34c     vgui:vgui.dll
 0002:00000350       __imp_?paint@Bitmap@vgui@@UAEXPAVPanel@2@@Z 1007e350     vgui:vgui.dll
 0002:00000354       __imp_?setSize@Bitmap@vgui@@MAEXHH@Z 1007e354     vgui:vgui.dll
 0002:00000358       __imp_?loadTGA@BitmapTGA@vgui@@EAE_NPAVInputStream@2@_N@Z 1007e358     vgui:vgui.dll
 0002:0000035c       __imp_?setButtonController@Button@vgui@@MAEXPAVButtonController@2@@Z 1007e35c     vgui:vgui.dll
 0002:00000360       __imp_?fireActionSignal@Button@vgui@@UAEXXZ 1007e360     vgui:vgui.dll
 0002:00000364       __imp_?isMouseClickEnabled@Button@vgui@@UAE_NW4MouseCode@2@@Z 1007e364     vgui:vgui.dll
 0002:00000368       __imp_?setMouseClickEnabled@Button@vgui@@UAEXW4MouseCode@2@_N@Z 1007e368     vgui:vgui.dll
 0002:0000036c       __imp_?setButtonBorderEnabled@Button@vgui@@UAEX_N@Z 1007e36c     vgui:vgui.dll
 0002:00000370       __imp_?isArmed@Button@vgui@@UAE_NXZ 1007e370     vgui:vgui.dll
 0002:00000374       __imp_?setButtonGroup@Button@vgui@@UAEXPAVButtonGroup@2@@Z 1007e374     vgui:vgui.dll
 0002:00000378       __imp_?addActionSignal@Button@vgui@@UAEXPAVActionSignal@2@@Z 1007e378     vgui:vgui.dll
 0002:0000037c       __imp_?doClick@Button@vgui@@UAEXXZ 1007e37c     vgui:vgui.dll
 0002:00000380       __imp_?isSelected@Button@vgui@@UAE_NXZ 1007e380     vgui:vgui.dll
 0002:00000384       __imp_?setArmed@Button@vgui@@UAEX_N@Z 1007e384     vgui:vgui.dll
 0002:00000388       __imp_?setSelectedDirect@Button@vgui@@UAEX_N@Z 1007e388     vgui:vgui.dll
 0002:0000038c       __imp_?setSelected@Button@vgui@@UAEX_N@Z 1007e38c     vgui:vgui.dll
 0002:00000390       __imp_?paintBackground@Button@vgui@@MAEXXZ 1007e390     vgui:vgui.dll
 0002:00000394       __imp_?createPropertyPanel@Button@vgui@@UAEPAVPanel@2@XZ 1007e394     vgui:vgui.dll
 0002:00000398       __imp_??0LineBorder@vgui@@QAE@VColor@1@@Z 1007e398     vgui:vgui.dll
 0002:0000039c       __imp_??0Button@vgui@@QAE@PBDHHHH@Z 1007e39c     vgui:vgui.dll
 0002:000003a0       __imp_?getDefaultCursor@Cursor@vgui@@UAE?AW4DefaultCursor@12@XZ 1007e3a0     vgui:vgui.dll
 0002:000003a4       __imp_?getBitmap@Cursor@vgui@@UAEPAVBitmap@2@XZ 1007e3a4     vgui:vgui.dll
 0002:000003a8       __imp_?privateInit@Cursor@vgui@@EAEXPAVBitmap@2@HH@Z 1007e3a8     vgui:vgui.dll
 0002:000003ac       __imp_?getHotspot@Cursor@vgui@@UAEXAAH0@Z 1007e3ac     vgui:vgui.dll
 0002:000003b0       __imp_?internalTick@App@vgui@@MAEXXZ 1007e3b0     vgui:vgui.dll
 0002:000003b4       __imp_?platTick@App@vgui@@MAEXXZ 1007e3b4     vgui:vgui.dll
 0002:000003b8       __imp_?surfaceBaseDeleted@App@vgui@@MAEXPAVSurfaceBase@2@@Z 1007e3b8     vgui:vgui.dll
 0002:000003bc       __imp_?surfaceBaseCreated@App@vgui@@MAEXPAVSurfaceBase@2@@Z 1007e3bc     vgui:vgui.dll
 0002:000003c0       __imp_?setMouseFocus@App@vgui@@EAEXPAVPanel@2@@Z 1007e3c0     vgui:vgui.dll
 0002:000003c4       __imp_?updateMouseFocus@App@vgui@@EAEXHHPAVSurfaceBase@2@@Z 1007e3c4     vgui:vgui.dll
 0002:000003c8       __imp_?init@App@vgui@@EAEXXZ 1007e3c8     vgui:vgui.dll
 0002:000003cc       __imp_?internalKeyReleased@App@vgui@@UAEXW4KeyCode@2@PAVSurfaceBase@2@@Z 1007e3cc     vgui:vgui.dll
 0002:000003d0       __imp_?internalKeyTyped@App@vgui@@UAEXW4KeyCode@2@PAVSurfaceBase@2@@Z 1007e3d0     vgui:vgui.dll
 0002:000003d4       __imp_?internalKeyPressed@App@vgui@@UAEXW4KeyCode@2@PAVSurfaceBase@2@@Z 1007e3d4     vgui:vgui.dll
 0002:000003d8       __imp_?internalMouseWheeled@App@vgui@@UAEXHPAVSurfaceBase@2@@Z 1007e3d8     vgui:vgui.dll
 0002:000003dc       __imp_?internalMouseReleased@App@vgui@@UAEXW4MouseCode@2@PAVSurfaceBase@2@@Z 1007e3dc     vgui:vgui.dll
 0002:000003e0       __imp_?internalMouseDoublePressed@App@vgui@@UAEXW4MouseCode@2@PAVSurfaceBase@2@@Z 1007e3e0     vgui:vgui.dll
 0002:000003e4       __imp_?internalMousePressed@App@vgui@@UAEXW4MouseCode@2@PAVSurfaceBase@2@@Z 1007e3e4     vgui:vgui.dll
 0002:000003e8       __imp_?internalCursorMoved@App@vgui@@UAEXHHPAVSurfaceBase@2@@Z 1007e3e8     vgui:vgui.dll
 0002:000003ec       __imp_?run@App@vgui@@UAEXXZ 1007e3ec     vgui:vgui.dll
 0002:000003f0       __imp_?setMinimumTickMillisInterval@App@vgui@@UAEXH@Z 1007e3f0     vgui:vgui.dll
 0002:000003f4       __imp_?getCursorOveride@App@vgui@@UAEPAVCursor@2@XZ 1007e3f4     vgui:vgui.dll
 0002:000003f8       __imp_?setCursorOveride@App@vgui@@UAEXPAVCursor@2@@Z 1007e3f8     vgui:vgui.dll
 0002:000003fc       __imp_?getRegistryInteger@App@vgui@@UAE_NPBDAAH@Z 1007e3fc     vgui:vgui.dll
 0002:00000400       __imp_?setRegistryInteger@App@vgui@@UAE_NPBDH@Z 1007e400     vgui:vgui.dll
 0002:00000404       __imp_?getRegistryString@App@vgui@@UAE_NPBDPADH@Z 1007e404     vgui:vgui.dll
 0002:00000408       __imp_?setRegistryString@App@vgui@@UAE_NPBD0@Z 1007e408     vgui:vgui.dll
 0002:0000040c       __imp_?internalSetMouseArena@App@vgui@@UAEXHHHH_N@Z 1007e40c     vgui:vgui.dll
 0002:00000410       __imp_?reset@App@vgui@@UAEXXZ 1007e410     vgui:vgui.dll
 0002:00000414       __imp_?getClipboardText@App@vgui@@UAEHHPADH@Z 1007e414     vgui:vgui.dll
 0002:00000418       __imp_?setClipboardText@App@vgui@@UAEXPBDH@Z 1007e418     vgui:vgui.dll
 0002:0000041c       __imp_?getClipboardTextCount@App@vgui@@UAEHXZ 1007e41c     vgui:vgui.dll
 0002:00000420       __imp_?getKeyCodeText@App@vgui@@UAEXW4KeyCode@2@PADH@Z 1007e420     vgui:vgui.dll
 0002:00000424       __imp_?getKeyCodeChar@App@vgui@@UAEDW4KeyCode@2@_N@Z 1007e424     vgui:vgui.dll
 0002:00000428       __imp_?getTimeMillis@App@vgui@@UAEJXZ 1007e428     vgui:vgui.dll
 0002:0000042c       __imp_?enableBuildMode@App@vgui@@UAEXXZ 1007e42c     vgui:vgui.dll
 0002:00000430       __imp_?getScheme@App@vgui@@UAEPAVScheme@2@XZ 1007e430     vgui:vgui.dll
 0002:00000434       __imp_?setScheme@App@vgui@@UAEXPAVScheme@2@@Z 1007e434     vgui:vgui.dll
 0002:00000438       __imp_?repaintAll@App@vgui@@UAEXXZ 1007e438     vgui:vgui.dll
 0002:0000043c       __imp_?getFocus@App@vgui@@UAEPAVPanel@2@XZ 1007e43c     vgui:vgui.dll
 0002:00000440       __imp_?requestFocus@App@vgui@@UAEXPAVPanel@2@@Z 1007e440     vgui:vgui.dll
 0002:00000444       __imp_?setMouseArena@App@vgui@@UAEXHHHH_N@Z 1007e444     vgui:vgui.dll
 0002:00000448       __imp_?setMouseArena@App@vgui@@UAEXPAVPanel@2@@Z 1007e448     vgui:vgui.dll
 0002:0000044c       __imp_?setMouseCapture@App@vgui@@UAEXPAVPanel@2@@Z 1007e44c     vgui:vgui.dll
 0002:00000450       __imp_?getCursorPos@App@vgui@@UAEXAAH0@Z 1007e450     vgui:vgui.dll
 0002:00000454       __imp_?setCursorPos@App@vgui@@UAEXHH@Z 1007e454     vgui:vgui.dll
 0002:00000458       __imp_?addTickSignal@App@vgui@@UAEXPAVTickSignal@2@@Z 1007e458     vgui:vgui.dll
 0002:0000045c       __imp_?wasKeyReleased@App@vgui@@UAE_NW4KeyCode@2@PAVPanel@2@@Z 1007e45c     vgui:vgui.dll
 0002:00000460       __imp_?wasKeyTyped@App@vgui@@UAE_NW4KeyCode@2@PAVPanel@2@@Z 1007e460     vgui:vgui.dll
 0002:00000464       __imp_?isKeyDown@App@vgui@@UAE_NW4KeyCode@2@PAVPanel@2@@Z 1007e464     vgui:vgui.dll
 0002:00000468       __imp_?wasKeyPressed@App@vgui@@UAE_NW4KeyCode@2@PAVPanel@2@@Z 1007e468     vgui:vgui.dll
 0002:0000046c       __imp_?wasMouseReleased@App@vgui@@UAE_NW4MouseCode@2@PAVPanel@2@@Z 1007e46c     vgui:vgui.dll
 0002:00000470       __imp_?isMouseDown@App@vgui@@UAE_NW4MouseCode@2@PAVPanel@2@@Z 1007e470     vgui:vgui.dll
 0002:00000474       __imp_?wasMouseDoublePressed@App@vgui@@UAE_NW4MouseCode@2@PAVPanel@2@@Z 1007e474     vgui:vgui.dll
 0002:00000478       __imp_?wasMousePressed@App@vgui@@UAE_NW4MouseCode@2@PAVPanel@2@@Z 1007e478     vgui:vgui.dll
 0002:0000047c       __imp_?externalTick@App@vgui@@UAEXXZ 1007e47c     vgui:vgui.dll
 0002:00000480       __imp_?stop@App@vgui@@UAEXXZ 1007e480     vgui:vgui.dll
 0002:00000484       __imp_?start@App@vgui@@UAEXXZ 1007e484     vgui:vgui.dll
 0002:00000488       __imp_??0ImagePanel@vgui@@QAE@PAVImage@1@@Z 1007e488     vgui:vgui.dll
 0002:0000048c       __imp_??0Label@vgui@@QAE@PBD@Z 1007e48c     vgui:vgui.dll
 0002:00000490       __imp_?setFont@TextImage@vgui@@UAEXW4SchemeFont@Scheme@2@@Z 1007e490     vgui:vgui.dll
 0002:00000494       __imp_?setFont@TextImage@vgui@@UAEXPAVFont@2@@Z 1007e494     vgui:vgui.dll
 0002:00000498       __imp_?setText@TextImage@vgui@@UAEXHPBD@Z 1007e498     vgui:vgui.dll
 0002:0000049c       __imp_?setText@TextImage@vgui@@UAEXPBD@Z 1007e49c     vgui:vgui.dll
 0002:000004a0       __imp_?getFont@TextImage@vgui@@UAEPAVFont@2@XZ 1007e4a0     vgui:vgui.dll
 0002:000004a4       __imp_?getTextSizeWrapped@TextImage@vgui@@UAEXAAH0@Z 1007e4a4     vgui:vgui.dll
 0002:000004a8       __imp_?getTextSize@TextImage@vgui@@UAEXAAH0@Z 1007e4a8     vgui:vgui.dll
 0002:000004ac       __imp_?init@TextImage@vgui@@EAEXHPBD@Z 1007e4ac     vgui:vgui.dll
 0002:000004b0       __imp_?paint@TextImage@vgui@@MAEXPAVPanel@2@@Z 1007e4b0     vgui:vgui.dll
 0002:000004b4       __imp_?setSize@TextImage@vgui@@UAEXHH@Z 1007e4b4     vgui:vgui.dll
 0002:000004b8       __imp_??0Slider@vgui@@QAE@HHHH_N@Z 1007e4b8     vgui:vgui.dll
 0002:000004bc       __imp_??0ScrollBar@vgui@@QAE@HHHH_N@Z 1007e4bc     vgui:vgui.dll
 0002:000004c0       __imp_??0Button@vgui@@QAE@PBDHH@Z 1007e4c0     vgui:vgui.dll
 0002:000004c4       __imp_?fireMinimizingSignal@Frame@vgui@@UAEXXZ 1007e4c4     vgui:vgui.dll
 0002:000004c8       __imp_?fireClosingSignal@Frame@vgui@@UAEXXZ 1007e4c8     vgui:vgui.dll
 0002:000004cc       __imp_?setCloseButtonVisible@Frame@vgui@@UAEX_N@Z 1007e4cc     vgui:vgui.dll
 0002:000004d0       __imp_?setMaximizeButtonVisible@Frame@vgui@@UAEX_N@Z 1007e4d0     vgui:vgui.dll
 0002:000004d4       __imp_?setMinimizeButtonVisible@Frame@vgui@@UAEX_N@Z 1007e4d4     vgui:vgui.dll
 0002:000004d8       __imp_?setTrayButtonVisible@Frame@vgui@@UAEX_N@Z 1007e4d8     vgui:vgui.dll
 0002:000004dc       __imp_?setMenuButtonVisible@Frame@vgui@@UAEX_N@Z 1007e4dc     vgui:vgui.dll
 0002:000004e0       __imp_?addFrameSignal@Frame@vgui@@UAEXPAVFrameSignal@2@@Z 1007e4e0     vgui:vgui.dll
 0002:000004e4       __imp_?isSizeable@Frame@vgui@@UAE_NXZ 1007e4e4     vgui:vgui.dll
 0002:000004e8       __imp_?isMoveable@Frame@vgui@@UAE_NXZ 1007e4e8     vgui:vgui.dll
 0002:000004ec       __imp_?setSizeable@Frame@vgui@@UAEX_N@Z 1007e4ec     vgui:vgui.dll
 0002:000004f0       __imp_?setMoveable@Frame@vgui@@UAEX_N@Z 1007e4f0     vgui:vgui.dll
 0002:000004f4       __imp_?getTitle@Frame@vgui@@UAEXPADH@Z 1007e4f4     vgui:vgui.dll
 0002:000004f8       __imp_?setTitle@Frame@vgui@@UAEXPBD@Z 1007e4f8     vgui:vgui.dll
 0002:000004fc       __imp_?getClient@Frame@vgui@@UAEPAVPanel@2@XZ 1007e4fc     vgui:vgui.dll
 0002:00000500       __imp_?isInternal@Frame@vgui@@UAE_NXZ 1007e500     vgui:vgui.dll
 0002:00000504       __imp_?setInternal@Frame@vgui@@UAEX_N@Z 1007e504     vgui:vgui.dll
 0002:00000508       __imp_?paintBackground@Frame@vgui@@UAEXXZ 1007e508     vgui:vgui.dll
 0002:0000050c       __imp_?setVisible@Frame@vgui@@UAEX_N@Z 1007e50c     vgui:vgui.dll
 0002:00000510       __imp_?setSize@Frame@vgui@@UAEXHH@Z 1007e510     vgui:vgui.dll
 0002:00000514       __imp_?getTextImage@TextPanel@vgui@@UAEPAVTextImage@2@XZ 1007e514     vgui:vgui.dll
 0002:00000518       __imp_?setFont@TextPanel@vgui@@UAEXW4SchemeFont@Scheme@2@@Z 1007e518     vgui:vgui.dll
 0002:0000051c       __imp_?setFgColor@Panel@vgui@@UAEXHHHH@Z 1007e51c     vgui:vgui.dll
 0002:00000520       __imp_?setText@TextPanel@vgui@@UAEXPBD@Z 1007e520     vgui:vgui.dll
 0002:00000524       __imp_?paint@TextPanel@vgui@@MAEXXZ 1007e524     vgui:vgui.dll
 0002:00000528       __imp_?setFgColor@TextPanel@vgui@@UAEXW4SchemeColor@Scheme@2@@Z 1007e528     vgui:vgui.dll
 0002:0000052c       __imp_?setFgColor@TextPanel@vgui@@UAEXHHHH@Z 1007e52c     vgui:vgui.dll
 0002:00000530       __imp_?setSize@TextPanel@vgui@@UAEXHH@Z 1007e530     vgui:vgui.dll
 0002:00000534       __imp_?close@FileInputStream@vgui@@UAEXXZ 1007e534     vgui:vgui.dll
 0002:00000538       __imp_?close@FileInputStream@vgui@@UAEXAA_N@Z 1007e538     vgui:vgui.dll
 0002:0000053c       __imp_?isEnabled@Panel@vgui@@UAE_NXZ 1007e53c     vgui:vgui.dll
 0002:00000540       __imp_?readUChar@FileInputStream@vgui@@UAEXPAEHAA_N@Z 1007e540     vgui:vgui.dll
 0002:00000544       __imp_?getAvailable@FileInputStream@vgui@@UAEHAA_N@Z 1007e544     vgui:vgui.dll
 0002:00000548       __imp_?seekEnd@FileInputStream@vgui@@UAEXAA_N@Z 1007e548     vgui:vgui.dll
 0002:0000054c       __imp_?seekRelative@FileInputStream@vgui@@UAEXHAA_N@Z 1007e54c     vgui:vgui.dll
 0002:00000550       __imp_?seekStart@FileInputStream@vgui@@UAEXAA_N@Z 1007e550     vgui:vgui.dll
 0002:00000554       __imp_?getMiniApp@DesktopIcon@vgui@@UAEPAVMiniApp@2@XZ 1007e554     vgui:vgui.dll
 0002:00000558       __imp_?setDesktop@DesktopIcon@vgui@@UAEXPAVDesktop@2@@Z 1007e558     vgui:vgui.dll
 0002:0000055c       __imp_?setImage@DesktopIcon@vgui@@UAEXPAVImage@2@@Z 1007e55c     vgui:vgui.dll
 0002:00000560       __imp_?doActivate@DesktopIcon@vgui@@UAEXXZ 1007e560     vgui:vgui.dll
 0002:00000564       __imp_?paintBackground@DesktopIcon@vgui@@MAEXXZ 1007e564     vgui:vgui.dll
 0002:00000568       __imp_?setName@MiniApp@vgui@@MAEXPBD@Z 1007e568     vgui:vgui.dll
 0002:0000056c       __imp_?getName@MiniApp@vgui@@UAEXPADH@Z 1007e56c     vgui:vgui.dll
 0002:00000570       __imp_?recomputeScroll@ScrollPanel@vgui@@UAEXXZ 1007e570     vgui:vgui.dll
 0002:00000574       __imp_?validate@ScrollPanel@vgui@@UAEXXZ 1007e574     vgui:vgui.dll
 0002:00000578       __imp_?getVerticalScrollBar@ScrollPanel@vgui@@UAEPAVScrollBar@2@XZ 1007e578     vgui:vgui.dll
 0002:0000057c       __imp_?getHorizontalScrollBar@ScrollPanel@vgui@@UAEPAVScrollBar@2@XZ 1007e57c     vgui:vgui.dll
 0002:00000580       __imp_?recomputeClientSize@ScrollPanel@vgui@@UAEXXZ 1007e580     vgui:vgui.dll
 0002:00000584       __imp_?getScrollValue@ScrollPanel@vgui@@UAEXAAH0@Z 1007e584     vgui:vgui.dll
 0002:00000588       __imp_?setScrollValue@ScrollPanel@vgui@@UAEXHH@Z 1007e588     vgui:vgui.dll
 0002:0000058c       __imp_?getClientClip@ScrollPanel@vgui@@UAEPAVPanel@2@XZ 1007e58c     vgui:vgui.dll
 0002:00000590       __imp_?getClient@ScrollPanel@vgui@@UAEPAVPanel@2@XZ 1007e590     vgui:vgui.dll
 0002:00000594       __imp_?setScrollBarAutoVisible@ScrollPanel@vgui@@UAEX_N0@Z 1007e594     vgui:vgui.dll
 0002:00000598       __imp_?setScrollBarVisible@ScrollPanel@vgui@@UAEX_N0@Z 1007e598     vgui:vgui.dll
 0002:0000059c       __imp_?setSize@ScrollPanel@vgui@@MAEXHH@Z 1007e59c     vgui:vgui.dll
 0002:000005a0       __imp_?fireIntChangeSignal@ScrollBar@vgui@@UAEXXZ 1007e5a0     vgui:vgui.dll
 0002:000005a4       __imp_?validate@ScrollBar@vgui@@UAEXXZ 1007e5a4     vgui:vgui.dll
 0002:000005a8       __imp_?setButtonPressedScrollValue@ScrollBar@vgui@@UAEXH@Z 1007e5a8     vgui:vgui.dll
 0002:000005ac       __imp_?doButtonPressed@ScrollBar@vgui@@UAEXH@Z 1007e5ac     vgui:vgui.dll
 0002:000005b0       __imp_?getSlider@ScrollBar@vgui@@UAEPAVSlider@2@XZ 1007e5b0     vgui:vgui.dll
 0002:000005b4       __imp_?setSlider@ScrollBar@vgui@@UAEXPAVSlider@2@@Z 1007e5b4     vgui:vgui.dll
 0002:000005b8       __imp_?getButton@ScrollBar@vgui@@UAEPAVButton@2@H@Z 1007e5b8     vgui:vgui.dll
 0002:000005bc       __imp_?setButton@ScrollBar@vgui@@UAEXPAVButton@2@H@Z 1007e5bc     vgui:vgui.dll
 0002:000005c0       __imp_?setBuildGroup@Panel@vgui@@UAEXPAVBuildGroup@2@PBD@Z 1007e5c0     vgui:vgui.dll
 0002:000005c4       __imp_?isVertical@ScrollBar@vgui@@UAE_NXZ 1007e5c4     vgui:vgui.dll
 0002:000005c8       __imp_?setRangeWindowEnabled@ScrollBar@vgui@@UAEX_N@Z 1007e5c8     vgui:vgui.dll
 0002:000005cc       __imp_?setRangeWindow@ScrollBar@vgui@@UAEXH@Z 1007e5cc     vgui:vgui.dll
 0002:000005d0       __imp_?setRange@ScrollBar@vgui@@UAEXHH@Z 1007e5d0     vgui:vgui.dll
 0002:000005d4       __imp_?addIntChangeSignal@ScrollBar@vgui@@UAEXPAVIntChangeSignal@2@@Z 1007e5d4     vgui:vgui.dll
 0002:000005d8       __imp_?getValue@ScrollBar@vgui@@UAEHXZ 1007e5d8     vgui:vgui.dll
 0002:000005dc       __imp_?setValue@ScrollBar@vgui@@UAEXH@Z 1007e5dc     vgui:vgui.dll
 0002:000005e0       __imp_?performLayout@ScrollBar@vgui@@MAEXXZ 1007e5e0     vgui:vgui.dll
 0002:000005e4       __imp_?setSize@ScrollBar@vgui@@UAEXHH@Z 1007e5e4     vgui:vgui.dll
 0002:000005e8       __imp_?fireIntChangeSignal@Slider@vgui@@MAEXXZ 1007e5e8     vgui:vgui.dll
 0002:000005ec       __imp_?privateMouseReleased@Slider@vgui@@UAEXW4MouseCode@2@PAVPanel@2@@Z 1007e5ec     vgui:vgui.dll
 0002:000005f0       __imp_?privateMousePressed@Slider@vgui@@UAEXW4MouseCode@2@PAVPanel@2@@Z 1007e5f0     vgui:vgui.dll
 0002:000005f4       __imp_?privateCursorMoved@Slider@vgui@@UAEXHHPAVPanel@2@@Z 1007e5f4     vgui:vgui.dll
 0002:000005f8       __imp_?recomputeValueFromNobPos@Slider@vgui@@EAEXXZ 1007e5f8     vgui:vgui.dll
 0002:000005fc       __imp_?recomputeNobPosFromValue@Slider@vgui@@EAEXXZ 1007e5fc     vgui:vgui.dll
 0002:00000600       __imp_?setButtonOffset@Slider@vgui@@UAEXH@Z 1007e600     vgui:vgui.dll
 0002:00000604       __imp_?hasFullRange@Slider@vgui@@UAE_NXZ 1007e604     vgui:vgui.dll
 0002:00000608       __imp_?getNobPos@Slider@vgui@@UAEXAAH0@Z 1007e608     vgui:vgui.dll
 0002:0000060c       __imp_?setRangeWindowEnabled@Slider@vgui@@UAEX_N@Z 1007e60c     vgui:vgui.dll
 0002:00000610       __imp_?setRangeWindow@Slider@vgui@@UAEXH@Z 1007e610     vgui:vgui.dll
 0002:00000614       __imp_?getRange@Slider@vgui@@UAEXAAH0@Z 1007e614     vgui:vgui.dll
 0002:00000618       __imp_?setRange@Slider@vgui@@UAEXHH@Z 1007e618     vgui:vgui.dll
 0002:0000061c       __imp_?addIntChangeSignal@Slider@vgui@@UAEXPAVIntChangeSignal@2@@Z 1007e61c     vgui:vgui.dll
 0002:00000620       __imp_?isVertical@Slider@vgui@@UAE_NXZ 1007e620     vgui:vgui.dll
 0002:00000624       __imp_?getValue@Slider@vgui@@UAEHXZ 1007e624     vgui:vgui.dll
 0002:00000628       __imp_?setValue@Slider@vgui@@UAEXH@Z 1007e628     vgui:vgui.dll
 0002:0000062c       __imp_?paintBackground@Slider@vgui@@MAEXXZ 1007e62c     vgui:vgui.dll
 0002:00000630       __imp_?setSize@Slider@vgui@@UAEXHH@Z 1007e630     vgui:vgui.dll
 0002:00000634       __imp_?getId@Font@vgui@@UAEHXZ 1007e634     vgui:vgui.dll
 0002:00000638       __imp_?getTall@Font@vgui@@UAEHXZ 1007e638     vgui:vgui.dll
 0002:0000063c       __imp_?getTextSize@Font@vgui@@UAEXPBDAAH1@Z 1007e63c     vgui:vgui.dll
 0002:00000640       __imp_?getCharABCwide@Font@vgui@@UAEXHAAH00@Z 1007e640     vgui:vgui.dll
 0002:00000644       __imp_?getCharRGBA@Font@vgui@@UAEXHHHHHPAE@Z 1007e644     vgui:vgui.dll
 0002:00000648       __imp_?init@Font@vgui@@EAEXPBDPAXHHHMH_N222@Z 1007e648     vgui:vgui.dll
 0002:0000064c       __imp_?privateKeyTyped@TablePanel@vgui@@EAEXW4KeyCode@2@PAVPanel@2@@Z 1007e64c     vgui:vgui.dll
 0002:00000650       __imp_?privateMouseDoublePressed@TablePanel@vgui@@EAEXW4MouseCode@2@PAVPanel@2@@Z 1007e650     vgui:vgui.dll
 0002:00000654       __imp_?privateMousePressed@TablePanel@vgui@@EAEXW4MouseCode@2@PAVPanel@2@@Z 1007e654     vgui:vgui.dll
 0002:00000658       __imp_?stopCellEditing@TablePanel@vgui@@UAEXXZ 1007e658     vgui:vgui.dll
 0002:0000065c       __imp_?setEditableCell@TablePanel@vgui@@UAEXHH@Z 1007e65c     vgui:vgui.dll
 0002:00000660       __imp_?setCellSectionEnabled@TablePanel@vgui@@UAEX_N@Z 1007e660     vgui:vgui.dll
 0002:00000664       __imp_?setRowSelectionEnabled@TablePanel@vgui@@UAEX_N@Z 1007e664     vgui:vgui.dll
 0002:00000668       __imp_?setColumnSelectionEnabled@TablePanel@vgui@@UAEX_N@Z 1007e668     vgui:vgui.dll
 0002:0000066c       __imp_?setHeaderPanel@TablePanel@vgui@@UAEXPAVHeaderPanel@2@@Z 1007e66c     vgui:vgui.dll
 0002:00000670       __imp_?getSelectedCell@TablePanel@vgui@@UAEXAAH0@Z 1007e670     vgui:vgui.dll
 0002:00000674       __imp_?setSelectedCell@TablePanel@vgui@@UAEXHH@Z 1007e674     vgui:vgui.dll
 0002:00000678       __imp_?setColumnExtents@TablePanel@vgui@@UAEXHHH@Z 1007e678     vgui:vgui.dll
 0002:0000067c       __imp_?getColumnCount@TablePanel@vgui@@UAEHXZ 1007e67c     vgui:vgui.dll
 0002:00000680       __imp_?setGridSize@TablePanel@vgui@@UAEXHH@Z 1007e680     vgui:vgui.dll
 0002:00000684       __imp_?setGridVisible@TablePanel@vgui@@UAEX_N0@Z 1007e684     vgui:vgui.dll
 0002:00000688       __imp_?setColumnCount@TablePanel@vgui@@UAEXH@Z 1007e688     vgui:vgui.dll
 0002:0000068c       __imp_?setCellEditingEnabled@TablePanel@vgui@@UAEX_N@Z 1007e68c     vgui:vgui.dll
 0002:00000690       __imp_?paint@TablePanel@vgui@@MAEXXZ 1007e690     vgui:vgui.dll
 0002:00000694       __imp_?getVirtualSize@TablePanel@vgui@@UAEXAAH0@Z 1007e694     vgui:vgui.dll
 0002:00000698       __imp_?isWithinTraverse@TablePanel@vgui@@MAEPAVPanel@2@HH@Z 1007e698     vgui:vgui.dll
 0002:0000069c       __imp_?privateMouseReleased@HeaderPanel@vgui@@UAEXW4MouseCode@2@PAVPanel@2@@Z 1007e69c     vgui:vgui.dll
 0002:000006a0       __imp_?privateMousePressed@HeaderPanel@vgui@@UAEXW4MouseCode@2@PAVPanel@2@@Z 1007e6a0     vgui:vgui.dll
 0002:000006a4       __imp_?privateCursorMoved@HeaderPanel@vgui@@UAEXHHPAVPanel@2@@Z 1007e6a4     vgui:vgui.dll
 0002:000006a8       __imp_?fireChangeSignal@HeaderPanel@vgui@@UAEXXZ 1007e6a8     vgui:vgui.dll
 0002:000006ac       __imp_?addChangeSignal@HeaderPanel@vgui@@UAEXPAVChangeSignal@2@@Z 1007e6ac     vgui:vgui.dll
 0002:000006b0       __imp_?getSectionExtents@HeaderPanel@vgui@@UAEXHAAH0@Z 1007e6b0     vgui:vgui.dll
 0002:000006b4       __imp_?getSectionCount@HeaderPanel@vgui@@UAEHXZ 1007e6b4     vgui:vgui.dll
 0002:000006b8       __imp_?setSliderPos@HeaderPanel@vgui@@UAEXHH@Z 1007e6b8     vgui:vgui.dll
 0002:000006bc       __imp_?addSectionPanel@HeaderPanel@vgui@@UAEXPAVPanel@2@@Z 1007e6bc     vgui:vgui.dll
 0002:000006c0       __imp_?performLayout@HeaderPanel@vgui@@MAEXXZ 1007e6c0     vgui:vgui.dll
 0002:000006c4       __imp_?printf@TextGrid@vgui@@UAAHPBDZZ 1007e6c4     vgui:vgui.dll
 0002:000006c8       __imp_?vprintf@TextGrid@vgui@@UAEHPBDPAD@Z 1007e6c8     vgui:vgui.dll
 0002:000006cc       __imp_?setXY@TextGrid@vgui@@UAEXHH@Z 1007e6cc     vgui:vgui.dll
 0002:000006d0       __imp_?newLine@TextGrid@vgui@@UAEXXZ 1007e6d0     vgui:vgui.dll
 0002:000006d4       __imp_?setGridSize@TextGrid@vgui@@UAEXHH@Z 1007e6d4     vgui:vgui.dll
 0002:000006d8       __imp_?paintBackground@TextGrid@vgui@@MAEXXZ 1007e6d8     vgui:vgui.dll
 0002:000006dc       __imp_??0TextPanel@vgui@@QAE@PBDHHHH@Z 1007e6dc     vgui:vgui.dll
 0002:000006e0       __imp_??0Label@vgui@@QAE@PBDHH@Z 1007e6e0     vgui:vgui.dll
 0002:000006e4       __imp_??0TextEntry@vgui@@QAE@PBDHHHH@Z 1007e6e4     vgui:vgui.dll
 0002:000006e8       __imp_??0LoweredBorder@vgui@@QAE@XZ 1007e6e8     vgui:vgui.dll
 0002:000006ec       __imp_??0TextGrid@vgui@@QAE@HHHHHH@Z 1007e6ec     vgui:vgui.dll
 0002:000006f0       __imp_??0EtchedBorder@vgui@@QAE@XZ 1007e6f0     vgui:vgui.dll
 0002:000006f4       __imp_?keyFocusTicked@TextEntry@vgui@@MAEXPAVPanel@2@@Z 1007e6f4     vgui:vgui.dll
 0002:000006f8       __imp_?keyReleased@TextEntry@vgui@@MAEXW4KeyCode@2@PAVPanel@2@@Z 1007e6f8     vgui:vgui.dll
 0002:000006fc       __imp_?keyTyped@TextEntry@vgui@@MAEXW4KeyCode@2@PAVPanel@2@@Z 1007e6fc     vgui:vgui.dll
 0002:00000700       __imp_?keyPressed@TextEntry@vgui@@MAEXW4KeyCode@2@PAVPanel@2@@Z 1007e700     vgui:vgui.dll
 0002:00000704       __imp_?mouseWheeled@TextEntry@vgui@@MAEXHPAVPanel@2@@Z 1007e704     vgui:vgui.dll
 0002:00000708       __imp_?mouseReleased@TextEntry@vgui@@MAEXW4MouseCode@2@PAVPanel@2@@Z 1007e708     vgui:vgui.dll
 0002:0000070c       __imp_?mouseDoublePressed@TextEntry@vgui@@MAEXW4MouseCode@2@PAVPanel@2@@Z 1007e70c     vgui:vgui.dll
 0002:00000710       __imp_?mousePressed@TextEntry@vgui@@MAEXW4MouseCode@2@PAVPanel@2@@Z 1007e710     vgui:vgui.dll
 0002:00000714       __imp_?cursorExited@TextEntry@vgui@@MAEXPAVPanel@2@@Z 1007e714     vgui:vgui.dll
 0002:00000718       __imp_?cursorEntered@TextEntry@vgui@@MAEXPAVPanel@2@@Z 1007e718     vgui:vgui.dll
 0002:0000071c       __imp_?cursorMoved@TextEntry@vgui@@MAEXHHPAVPanel@2@@Z 1007e71c     vgui:vgui.dll
 0002:00000720       __imp_?selectCheck@TextEntry@vgui@@MAEXXZ 1007e720     vgui:vgui.dll
 0002:00000724       __imp_?cursorToPixelSpace@TextEntry@vgui@@MAEHH@Z 1007e724     vgui:vgui.dll
 0002:00000728       __imp_?getSelectedPixelRange@TextEntry@vgui@@MAE_NAAH0@Z 1007e728     vgui:vgui.dll
 0002:0000072c       __imp_?getSelectedRange@TextEntry@vgui@@MAE_NAAH0@Z 1007e72c     vgui:vgui.dll
 0002:00000730       __imp_?fireActionSignal@TextEntry@vgui@@MAEXXZ 1007e730     vgui:vgui.dll
 0002:00000734       __imp_?setCharAt@TextEntry@vgui@@MAEXDH@Z 1007e734     vgui:vgui.dll
 0002:00000738       __imp_?setTextHidden@TextEntry@vgui@@UAEX_N@Z 1007e738     vgui:vgui.dll
 0002:0000073c       __imp_?setFont@TextEntry@vgui@@UAEXPAVFont@2@@Z 1007e73c     vgui:vgui.dll
 0002:00000740       __imp_?addActionSignal@TextEntry@vgui@@UAEXPAVActionSignal@2@@Z 1007e740     vgui:vgui.dll
 0002:00000744       __imp_?doDeleteSelected@TextEntry@vgui@@UAEXXZ 1007e744     vgui:vgui.dll
 0002:00000748       __imp_?doPasteSelected@TextEntry@vgui@@UAEXXZ 1007e748     vgui:vgui.dll
 0002:0000074c       __imp_?doPaste@TextEntry@vgui@@UAEXXZ 1007e74c     vgui:vgui.dll
 0002:00000750       __imp_?doCopySelected@TextEntry@vgui@@UAEXXZ 1007e750     vgui:vgui.dll
 0002:00000754       __imp_?doSelectNone@TextEntry@vgui@@UAEXXZ 1007e754     vgui:vgui.dll
 0002:00000758       __imp_?doDelete@TextEntry@vgui@@UAEXXZ 1007e758     vgui:vgui.dll
 0002:0000075c       __imp_?doBackspace@TextEntry@vgui@@UAEXXZ 1007e75c     vgui:vgui.dll
 0002:00000760       __imp_?doInsertChar@TextEntry@vgui@@UAEXD@Z 1007e760     vgui:vgui.dll
 0002:00000764       __imp_?doGotoEndOfLine@TextEntry@vgui@@UAEXXZ 1007e764     vgui:vgui.dll
 0002:00000768       __imp_?doGotoFirstOfLine@TextEntry@vgui@@UAEXXZ 1007e768     vgui:vgui.dll
 0002:0000076c       __imp_?doGotoRight@TextEntry@vgui@@UAEXXZ 1007e76c     vgui:vgui.dll
 0002:00000770       __imp_?doGotoLeft@TextEntry@vgui@@UAEXXZ 1007e770     vgui:vgui.dll
 0002:00000774       __imp_?resetCursorBlink@TextEntry@vgui@@UAEXXZ 1007e774     vgui:vgui.dll
 0002:00000778       __imp_?getText@TextEntry@vgui@@UAEXHPADH@Z 1007e778     vgui:vgui.dll
 0002:0000077c       __imp_?setText@TextEntry@vgui@@UAEXPBDH@Z 1007e77c     vgui:vgui.dll
 0002:00000780       __imp_?paintBackground@TextEntry@vgui@@MAEXXZ 1007e780     vgui:vgui.dll
 0002:00000784       __imp_?paint@EtchedBorder@vgui@@MAEXPAVPanel@2@@Z 1007e784     vgui:vgui.dll
 0002:00000788       __imp_?paint@LoweredBorder@vgui@@MAEXPAVPanel@2@@Z 1007e788     vgui:vgui.dll
 0002:0000078c       __imp_??0Color@vgui@@QAE@W4SchemeColor@Scheme@1@@Z 1007e78c     vgui:vgui.dll
 0002:00000790       __imp_??0Label@vgui@@QAE@PBDHHHH@Z 1007e790     vgui:vgui.dll
 0002:00000794       __imp_??0TablePanel@vgui@@QAE@HHHHH@Z 1007e794     vgui:vgui.dll
 0002:00000798       __imp_??0ScrollPanel@vgui@@QAE@HHHH@Z 1007e798     vgui:vgui.dll
 0002:0000079c       __imp_??0HeaderPanel@vgui@@QAE@HHHH@Z 1007e79c     vgui:vgui.dll
 0002:000007a0       __imp_?vgui_strdup@vgui@@YAPADPBD@Z 1007e7a0     vgui:vgui.dll
 0002:000007a4       __imp_?vgui_strcpy@vgui@@YAXPADHPBD@Z 1007e7a4     vgui:vgui.dll
 0002:000007a8       __imp_?readLine@DataInputStream@vgui@@UAEXPADHAA_N@Z 1007e7a8     vgui:vgui.dll
 0002:000007ac       __imp_??0DataInputStream@vgui@@QAE@PAVInputStream@1@@Z 1007e7ac     vgui:vgui.dll
 0002:000007b0       __imp_?readDouble@DataInputStream@vgui@@UAENAA_N@Z 1007e7b0     vgui:vgui.dll
 0002:000007b4       __imp_?readFloat@DataInputStream@vgui@@UAEMAA_N@Z 1007e7b4     vgui:vgui.dll
 0002:000007b8       __imp_?readULong@DataInputStream@vgui@@UAEKAA_N@Z 1007e7b8     vgui:vgui.dll
 0002:000007bc       __imp_?readLong@DataInputStream@vgui@@UAEJAA_N@Z 1007e7bc     vgui:vgui.dll
 0002:000007c0       __imp_?readUInt@DataInputStream@vgui@@UAEIAA_N@Z 1007e7c0     vgui:vgui.dll
 0002:000007c4       __imp_?readInt@DataInputStream@vgui@@UAEHAA_N@Z 1007e7c4     vgui:vgui.dll
 0002:000007c8       __imp_?readUShort@DataInputStream@vgui@@UAEGAA_N@Z 1007e7c8     vgui:vgui.dll
 0002:000007cc       __imp_?readShort@DataInputStream@vgui@@UAEFAA_N@Z 1007e7cc     vgui:vgui.dll
 0002:000007d0       __imp_?readChar@DataInputStream@vgui@@UAEDAA_N@Z 1007e7d0     vgui:vgui.dll
 0002:000007d4       __imp_?readBool@DataInputStream@vgui@@UAE_NAA_N@Z 1007e7d4     vgui:vgui.dll
 0002:000007d8       __imp_?close@DataInputStream@vgui@@UAEXXZ 1007e7d8     vgui:vgui.dll
 0002:000007dc       __imp_?seekStart@DataInputStream@vgui@@UAEXAA_N@Z 1007e7dc     vgui:vgui.dll
 0002:000007e0       __imp_?seekRelative@DataInputStream@vgui@@UAEXHAA_N@Z 1007e7e0     vgui:vgui.dll
 0002:000007e4       __imp_?seekEnd@DataInputStream@vgui@@UAEXAA_N@Z 1007e7e4     vgui:vgui.dll
 0002:000007e8       __imp_?getAvailable@DataInputStream@vgui@@UAEHAA_N@Z 1007e7e8     vgui:vgui.dll
 0002:000007ec       __imp_?readUChar@DataInputStream@vgui@@UAEXPAEHAA_N@Z 1007e7ec     vgui:vgui.dll
 0002:000007f0       __imp_?readUChar@DataInputStream@vgui@@UAEEAA_N@Z 1007e7f0     vgui:vgui.dll
 0002:000007f4       __imp_?close@DataInputStream@vgui@@UAEXAA_N@Z 1007e7f4     vgui:vgui.dll
 0002:000007f8       __imp_??0BitmapTGA@vgui@@QAE@PAVInputStream@1@_N@Z 1007e7f8     vgui:vgui.dll
 0002:000007fc       __imp_??0FileInputStream@vgui@@QAE@PBD_N@Z 1007e7fc     vgui:vgui.dll
 0002:00000800       __imp_??0BorderLayout@vgui@@QAE@H@Z 1007e800     vgui:vgui.dll
 0002:00000804       __imp_?performLayout@Layout@vgui@@UAEXPAVPanel@2@@Z 1007e804     vgui:vgui.dll
 0002:00000808       __imp_?createLayoutInfo@BorderLayout@vgui@@UAEPAVLayoutInfo@2@W4Alignment@12@@Z 1007e808     vgui:vgui.dll
 0002:0000080c       __imp_?performLayout@BorderLayout@vgui@@UAEXPAVPanel@2@@Z 1007e80c     vgui:vgui.dll
 0002:00000810       __imp_?addModeInfo@SurfaceBase@vgui@@MAEXHHH@Z 1007e810     vgui:vgui.dll
 0002:00000814       __imp_?setEmulatedCursorPos@SurfaceBase@vgui@@UAEXHH@Z 1007e814     vgui:vgui.dll
 0002:00000818       __imp_?setEmulatedCursorVisible@SurfaceBase@vgui@@UAEX_N@Z 1007e818     vgui:vgui.dll
 0002:0000081c       __imp_?getApp@SurfaceBase@vgui@@UAEPAVApp@2@XZ 1007e81c     vgui:vgui.dll
 0002:00000820       __imp_?getModeInfo@SurfaceBase@vgui@@UAE_NHAAH00@Z 1007e820     vgui:vgui.dll
 0002:00000824       __imp_?getModeInfoCount@SurfaceBase@vgui@@UAEHXZ 1007e824     vgui:vgui.dll
 0002:00000828       __imp_?resetModeInfo@SurfaceBase@vgui@@UAEXXZ 1007e828     vgui:vgui.dll
 0002:0000082c       __imp_?requestSwap@SurfaceBase@vgui@@UAEXXZ 1007e82c     vgui:vgui.dll
 0002:00000830       __imp_?getPanel@SurfaceBase@vgui@@UAEPAVPanel@2@XZ 1007e830     vgui:vgui.dll
 0002:00000834       __imp_?performLayout@StackLayout@vgui@@UAEXPAVPanel@2@@Z 1007e834     vgui:vgui.dll
 0002:00000838       __imp_??0LineBorder@vgui@@QAE@XZ 1007e838     vgui:vgui.dll
 0002:0000083c       __imp_??0Font@vgui@@QAE@PBDHHMH_N111@Z 1007e83c     vgui:vgui.dll
 0002:00000840       __imp_??0Font@vgui@@QAE@PBDPAXHHHMH_N222@Z 1007e840     vgui:vgui.dll
 0002:00000844       __imp_??0Color@vgui@@QAE@XZ 1007e844     vgui:vgui.dll
 0002:00000848       __imp_??0TextImage@vgui@@QAE@PBD@Z 1007e848     vgui:vgui.dll
 0002:0000084c       __imp_??0Image@vgui@@QAE@XZ 1007e84c     vgui:vgui.dll
 0002:00000850       __imp_?recreateContext@Surface@vgui@@MAE_NXZ 1007e850     vgui:vgui.dll
 0002:00000854       __imp_?createPlat@Surface@vgui@@MAE_NXZ 1007e854     vgui:vgui.dll
 0002:00000858       __imp_?applyChanges@Surface@vgui@@MAEXXZ 1007e858     vgui:vgui.dll
 0002:0000085c       __imp_?popMakeCurrent@Surface@vgui@@MAEXPAVPanel@2@@Z 1007e85c     vgui:vgui.dll
 0002:00000860       __imp_?pushMakeCurrent@Surface@vgui@@MAEXPAVPanel@2@_N@Z 1007e860     vgui:vgui.dll
 0002:00000864       __imp_?swapBuffers@Surface@vgui@@MAEXXZ 1007e864     vgui:vgui.dll
 0002:00000868       __imp_?setCursor@Surface@vgui@@MAEXPAVCursor@2@@Z 1007e868     vgui:vgui.dll
 0002:0000086c       __imp_?enableMouseCapture@Surface@vgui@@MAEX_N@Z 1007e86c     vgui:vgui.dll
 0002:00000870       __imp_?invalidate@Surface@vgui@@MAEXPAVPanel@2@@Z 1007e870     vgui:vgui.dll
 0002:00000874       __imp_?drawTexturedRect@Surface@vgui@@MAEXHHHH@Z 1007e874     vgui:vgui.dll
 0002:00000878       __imp_?drawSetTexture@Surface@vgui@@MAEXH@Z 1007e878     vgui:vgui.dll
 0002:0000087c       __imp_?drawSetTextureRGBA@Surface@vgui@@MAEXHPBDHH@Z 1007e87c     vgui:vgui.dll
 0002:00000880       __imp_?drawPrintText@Surface@vgui@@MAEXPBDH@Z 1007e880     vgui:vgui.dll
 0002:00000884       __imp_?drawSetTextPos@Surface@vgui@@MAEXHH@Z 1007e884     vgui:vgui.dll
 0002:00000888       __imp_?drawSetTextColor@Surface@vgui@@MAEXHHHH@Z 1007e888     vgui:vgui.dll
 0002:0000088c       __imp_?drawSetTextFont@Surface@vgui@@MAEXPAVFont@2@@Z 1007e88c     vgui:vgui.dll
 0002:00000890       __imp_?drawOutlinedRect@Surface@vgui@@MAEXHHHH@Z 1007e890     vgui:vgui.dll
 0002:00000894       __imp_?drawFilledRect@Surface@vgui@@MAEXHHHH@Z 1007e894     vgui:vgui.dll
 0002:00000898       __imp_?drawSetColor@Surface@vgui@@MAEXHHHH@Z 1007e898     vgui:vgui.dll
 0002:0000089c       __imp_?createNewTextureID@Surface@vgui@@MAEHXZ 1007e89c     vgui:vgui.dll
 0002:000008a0       __imp_?isWithin@Surface@vgui@@UAE_NHH@Z 1007e8a0     vgui:vgui.dll
 0002:000008a4       __imp_?hasFocus@Surface@vgui@@UAE_NXZ 1007e8a4     vgui:vgui.dll
 0002:000008a8       __imp_?createPopup@Surface@vgui@@UAEXPAVPanel@2@@Z 1007e8a8     vgui:vgui.dll
 0002:000008ac       __imp_?setAsTopMost@Surface@vgui@@UAEX_N@Z 1007e8ac     vgui:vgui.dll
 0002:000008b0       __imp_?setWindowedMode@Surface@vgui@@UAEXXZ 1007e8b0     vgui:vgui.dll
 0002:000008b4       __imp_?setFullscreenMode@Surface@vgui@@UAE_NHHH@Z 1007e8b4     vgui:vgui.dll
 0002:000008b8       __imp_?setTitle@Surface@vgui@@UAEXPBD@Z 1007e8b8     vgui:vgui.dll
 0002:000008bc       __imp_?getModeInfoCount@Surface@vgui@@UAEHXZ 1007e8bc     vgui:vgui.dll
 0002:000008c0       __imp_??1SurfaceBase@vgui@@IAE@XZ 1007e8c0     vgui:vgui.dll
 0002:000008c4       __imp_?getInstance@App@vgui@@SAPAV12@XZ 1007e8c4     vgui:vgui.dll
 0002:000008c8       __imp_?paintBackground@MenuSeparator@vgui@@MAEXXZ 1007e8c8     vgui:vgui.dll
 0002:000008cc       __imp_?getCursor@BuildGroup@vgui@@MAEPAVCursor@2@PAVPanel@2@@Z 1007e8cc     vgui:vgui.dll
 0002:000008d0       __imp_?keyTyped@BuildGroup@vgui@@MAEXW4KeyCode@2@PAVPanel@2@@Z 1007e8d0     vgui:vgui.dll
 0002:000008d4       __imp_?mouseDoublePressed@BuildGroup@vgui@@MAEXW4MouseCode@2@PAVPanel@2@@Z 1007e8d4     vgui:vgui.dll
 0002:000008d8       __imp_?mouseReleased@BuildGroup@vgui@@MAEXW4MouseCode@2@PAVPanel@2@@Z 1007e8d8     vgui:vgui.dll
 0002:000008dc       __imp_?mousePressed@BuildGroup@vgui@@MAEXW4MouseCode@2@PAVPanel@2@@Z 1007e8dc     vgui:vgui.dll
 0002:000008e0       __imp_?cursorMoved@BuildGroup@vgui@@MAEXHHPAVPanel@2@@Z 1007e8e0     vgui:vgui.dll
 0002:000008e4       __imp_?panelAdded@BuildGroup@vgui@@MAEXPAVPanel@2@PBD@Z 1007e8e4     vgui:vgui.dll
 0002:000008e8       __imp_?fireCurrentPanelChangeSignal@BuildGroup@vgui@@EAEXXZ 1007e8e8     vgui:vgui.dll
 0002:000008ec       __imp_?applySnap@BuildGroup@vgui@@EAEXPAVPanel@2@@Z 1007e8ec     vgui:vgui.dll
 0002:000008f0       __imp_?copyPropertiesToClipboard@BuildGroup@vgui@@UAEXXZ 1007e8f0     vgui:vgui.dll
 0002:000008f4       __imp_?getCurrentPanel@BuildGroup@vgui@@UAEPAVPanel@2@XZ 1007e8f4     vgui:vgui.dll
 0002:000008f8       __imp_?addCurrentPanelChangeSignal@BuildGroup@vgui@@UAEXPAVChangeSignal@2@@Z 1007e8f8     vgui:vgui.dll
 0002:000008fc       __imp_?isEnabled@BuildGroup@vgui@@UAE_NXZ 1007e8fc     vgui:vgui.dll
 0002:00000900       __imp_?setEnabled@BuildGroup@vgui@@UAEX_N@Z 1007e900     vgui:vgui.dll
 0002:00000904       __imp_?readUChar@FileInputStream@vgui@@UAEEAA_N@Z 1007e904     vgui:vgui.dll
 0002:00000908       __imp_?setEnabled@Panel@vgui@@UAEX_N@Z 1007e908     vgui:vgui.dll
 0002:0000090c       __imp_?setFgColor@Panel@vgui@@UAEXW4SchemeColor@Scheme@2@@Z 1007e90c     vgui:vgui.dll
 0002:00000910       __imp_?setBgColor@Panel@vgui@@UAEXVColor@2@@Z 1007e910     vgui:vgui.dll
 0002:00000914       __imp_?setBgColor@Panel@vgui@@UAEXHHHH@Z 1007e914     vgui:vgui.dll
 0002:00000918       __imp_?setBgColor@Panel@vgui@@UAEXW4SchemeColor@Scheme@2@@Z 1007e918     vgui:vgui.dll
 0002:0000091c       __imp_?getFgColor@Panel@vgui@@UAEXAAVColor@2@@Z 1007e91c     vgui:vgui.dll
 0002:00000920       __imp_?getFgColor@Panel@vgui@@UAEXAAH000@Z 1007e920     vgui:vgui.dll
 0002:00000924       __imp_?getBgColor@Panel@vgui@@UAEXAAVColor@2@@Z 1007e924     vgui:vgui.dll
 0002:00000928       __imp_?getBgColor@Panel@vgui@@UAEXAAH000@Z 1007e928     vgui:vgui.dll
 0002:0000092c       __imp_?setAsMouseCapture@Panel@vgui@@UAEX_N@Z 1007e92c     vgui:vgui.dll
 0002:00000930       __imp_?setAsMouseArena@Panel@vgui@@UAEX_N@Z 1007e930     vgui:vgui.dll
 0002:00000934       __imp_?getApp@Panel@vgui@@UAEPAVApp@2@XZ 1007e934     vgui:vgui.dll
 0002:00000938       __imp_?getVirtualSize@Panel@vgui@@UAEXAAH0@Z 1007e938     vgui:vgui.dll
 0002:0000093c       __imp_?setLayoutInfo@Panel@vgui@@UAEXPAVLayoutInfo@2@@Z 1007e93c     vgui:vgui.dll
 0002:00000940       __imp_?getLayoutInfo@Panel@vgui@@UAEPAVLayoutInfo@2@XZ 1007e940     vgui:vgui.dll
 0002:00000944       __imp_?isCursorNone@Panel@vgui@@UAE_NXZ 1007e944     vgui:vgui.dll
 0002:00000948       __imp_?solveTraverse@Panel@vgui@@UAEXXZ 1007e948     vgui:vgui.dll
 0002:0000094c       __imp_?paintTraverse@Panel@vgui@@MAEX_N@Z 1007e94c     vgui:vgui.dll
 0002:00000950       __imp_?paintTraverse@Panel@vgui@@UAEXXZ 1007e950     vgui:vgui.dll
 0002:00000954       __imp_?setSurfaceBaseTraverse@Panel@vgui@@UAEXPAVSurfaceBase@2@@Z 1007e954     vgui:vgui.dll
 0002:00000958       __imp_?performLayout@Panel@vgui@@MAEXXZ 1007e958     vgui:vgui.dll
 0002:0000095c       __imp_?internalPerformLayout@Panel@vgui@@MAEXXZ 1007e95c     vgui:vgui.dll
 0002:00000960       __imp_?drawSetColor@Panel@vgui@@MAEXHHHH@Z 1007e960     vgui:vgui.dll
 0002:00000964       __imp_?drawSetColor@Panel@vgui@@MAEXW4SchemeColor@Scheme@2@@Z 1007e964     vgui:vgui.dll
 0002:00000968       __imp_?drawFilledRect@Panel@vgui@@MAEXHHHH@Z 1007e968     vgui:vgui.dll
 0002:0000096c       __imp_?drawOutlinedRect@Panel@vgui@@MAEXHHHH@Z 1007e96c     vgui:vgui.dll
 0002:00000970       __imp_?drawSetTextFont@Panel@vgui@@MAEXPAVFont@2@@Z 1007e970     vgui:vgui.dll
 0002:00000974       __imp_?drawSetTextFont@Panel@vgui@@MAEXW4SchemeFont@Scheme@2@@Z 1007e974     vgui:vgui.dll
 0002:00000978       __imp_?drawSetTextColor@Panel@vgui@@MAEXHHHH@Z 1007e978     vgui:vgui.dll
 0002:0000097c       __imp_?drawSetTextColor@Panel@vgui@@MAEXW4SchemeColor@Scheme@2@@Z 1007e97c     vgui:vgui.dll
 0002:00000980       __imp_?drawSetTextPos@Panel@vgui@@MAEXHH@Z 1007e980     vgui:vgui.dll
 0002:00000984       __imp_?drawPrintText@Panel@vgui@@MAEXHHPBDH@Z 1007e984     vgui:vgui.dll
 0002:00000988       __imp_?drawPrintText@Panel@vgui@@MAEXPBDH@Z 1007e988     vgui:vgui.dll
 0002:0000098c       __imp_?drawPrintChar@Panel@vgui@@MAEXHHD@Z 1007e98c     vgui:vgui.dll
 0002:00000990       __imp_?drawPrintChar@Panel@vgui@@MAEXD@Z 1007e990     vgui:vgui.dll
 0002:00000994       __imp_?drawSetTextureRGBA@Panel@vgui@@MAEXHPBDHH@Z 1007e994     vgui:vgui.dll
 0002:00000998       __imp_?drawSetTexture@Panel@vgui@@MAEXH@Z 1007e998     vgui:vgui.dll
 0002:0000099c       __imp_?drawTexturedRect@Panel@vgui@@MAEXHHHH@Z 1007e99c     vgui:vgui.dll
 0002:000009a0       __imp_?solve@Panel@vgui@@MAEXXZ 1007e9a0     vgui:vgui.dll
 0002:000009a4       __imp_?paintBackground@Panel@vgui@@MAEXXZ 1007e9a4     vgui:vgui.dll
 0002:000009a8       __imp_?paint@Panel@vgui@@MAEXXZ 1007e9a8     vgui:vgui.dll
 0002:000009ac       __imp_?paintBuildOverlay@Panel@vgui@@MAEXXZ 1007e9ac     vgui:vgui.dll
 0002:000009b0       __imp_?internalCursorMoved@Panel@vgui@@MAEXHH@Z 1007e9b0     vgui:vgui.dll
 0002:000009b4       __imp_?internalCursorEntered@Panel@vgui@@MAEXXZ 1007e9b4     vgui:vgui.dll
 0002:000009b8       __imp_?internalCursorExited@Panel@vgui@@MAEXXZ 1007e9b8     vgui:vgui.dll
 0002:000009bc       __imp_?internalMousePressed@Panel@vgui@@MAEXW4MouseCode@2@@Z 1007e9bc     vgui:vgui.dll
 0002:000009c0       __imp_?internalMouseDoublePressed@Panel@vgui@@MAEXW4MouseCode@2@@Z 1007e9c0     vgui:vgui.dll
 0002:000009c4       __imp_?internalMouseReleased@Panel@vgui@@MAEXW4MouseCode@2@@Z 1007e9c4     vgui:vgui.dll
 0002:000009c8       __imp_?internalMouseWheeled@Panel@vgui@@MAEXH@Z 1007e9c8     vgui:vgui.dll
 0002:000009cc       __imp_?internalKeyPressed@Panel@vgui@@MAEXW4KeyCode@2@@Z 1007e9cc     vgui:vgui.dll
 0002:000009d0       __imp_?internalKeyTyped@Panel@vgui@@MAEXW4KeyCode@2@@Z 1007e9d0     vgui:vgui.dll
 0002:000009d4       __imp_?internalKeyReleased@Panel@vgui@@MAEXW4KeyCode@2@@Z 1007e9d4     vgui:vgui.dll
 0002:000009d8       __imp_?internalKeyFocusTicked@Panel@vgui@@MAEXXZ 1007e9d8     vgui:vgui.dll
 0002:000009dc       __imp_?internalFocusChanged@Panel@vgui@@MAEX_N@Z 1007e9dc     vgui:vgui.dll
 0002:000009e0       __imp_?internalSetCursor@Panel@vgui@@MAEXXZ 1007e9e0     vgui:vgui.dll
 0002:000009e4       __imp_?init@Color@vgui@@EAEXXZ 1007e9e4     vgui:vgui.dll
 0002:000009e8       __imp_?setColor@Color@vgui@@UAEXW4SchemeColor@Scheme@2@@Z 1007e9e8     vgui:vgui.dll
 0002:000009ec       __imp_?setColor@Color@vgui@@UAEXHHHH@Z 1007e9ec     vgui:vgui.dll
 0002:000009f0       __imp_?getColor@Color@vgui@@UAEXAAW4SchemeColor@Scheme@2@@Z 1007e9f0     vgui:vgui.dll
 0002:000009f4       __imp_?getColor@Color@vgui@@UAEXAAH000@Z 1007e9f4     vgui:vgui.dll
 0002:000009f8       __imp_??AColor@vgui@@UAEHH@Z 1007e9f8     vgui:vgui.dll
 0002:000009fc       __imp_?setColor@Scheme@vgui@@UAEXW4SchemeColor@12@HHHH@Z 1007e9fc     vgui:vgui.dll
 0002:00000a00       __imp_?getColor@Scheme@vgui@@UAEXW4SchemeColor@12@AAH111@Z 1007ea00     vgui:vgui.dll
 0002:00000a04       __imp_?setFont@Scheme@vgui@@UAEXW4SchemeFont@12@PAVFont@2@@Z 1007ea04     vgui:vgui.dll
 0002:00000a08       __imp_?getFont@Scheme@vgui@@UAEPAVFont@2@W4SchemeFont@12@@Z 1007ea08     vgui:vgui.dll
 0002:00000a0c       __imp_?setCursor@Scheme@vgui@@UAEXW4SchemeCursor@12@PAVCursor@2@@Z 1007ea0c     vgui:vgui.dll
 0002:00000a10       __imp_?getCursor@Scheme@vgui@@UAEPAVCursor@2@W4SchemeCursor@12@@Z 1007ea10     vgui:vgui.dll
 0002:00000a14       __imp_?isBuildGroupEnabled@Panel@vgui@@UAE_NXZ 1007ea14     vgui:vgui.dll
 0002:00000a18       __imp_?removeAllChildren@Panel@vgui@@UAEXXZ 1007ea18     vgui:vgui.dll
 0002:00000a1c       __imp_?createPropertyPanel@Panel@vgui@@UAEPAV12@XZ 1007ea1c     vgui:vgui.dll
 0002:00000a20       __imp_?repaintParent@Panel@vgui@@UAEXXZ 1007ea20     vgui:vgui.dll
 0002:00000a24       __imp_?getPersistanceText@Panel@vgui@@UAEXPADH@Z 1007ea24     vgui:vgui.dll
 0002:00000a28       __imp_?applyPersistanceText@Panel@vgui@@UAEXPBD@Z 1007ea28     vgui:vgui.dll
 0002:00000a2c       __imp_?hasFullRange@ScrollBar@vgui@@UAE_NXZ 1007ea2c     vgui:vgui.dll
 0002:00000a30       __imp_?setFgColor@Panel@vgui@@UAEXVColor@2@@Z 1007ea30     vgui:vgui.dll
 0002:00000a34       __imp_?setFont@TextPanel@vgui@@UAEXPAVFont@2@@Z 1007ea34     vgui:vgui.dll
 0002:00000a38       \177vgui_NULL_THUNK_DATA   1007ea38     vgui:vgui.dll
 0002:00000a5c       __real@4@00000000000000000000 1007ea5c     ev_hldm.obj
 0002:00000a60       __real@4@40038000000000000000 1007ea60     ev_hldm.obj
 0002:00000a68       __real@8@3fff8000000000000000 1007ea68     ev_hldm.obj
 0002:00000a70       __real@4@3fff8000000000000000 1007ea70     ev_hldm.obj
 0002:00000a74       ??_7Scheme@vgui@@6B@       1007ea74     ev_hldm.obj
 0002:00000a8c       ??_7Color@vgui@@6B@        1007ea8c     ev_hldm.obj
 0002:00000aa4       ??_7Panel@vgui@@6B@        1007eaa4     ev_hldm.obj
 0002:00000ca0       ??_7Label@vgui@@6B@        1007eca0     ev_hldm.obj
 0002:00000ecc       ??_7Image@vgui@@6B@        1007eecc     ev_hldm.obj
 0002:00000f2c       ??_7Border@vgui@@6B@       1007ef2c     ev_hldm.obj
 0002:00000f94       ??_7LineBorder@vgui@@6B@   1007ef94     ev_hldm.obj
 0002:00001000       ??_7ImagePanel@vgui@@6B@   1007f000     ev_hldm.obj
 0002:00001200       ??_7Bitmap@vgui@@6B@       1007f200     ev_hldm.obj
 0002:00001264       ??_7BitmapTGA@vgui@@6B@    1007f264     ev_hldm.obj
 0002:000012cc       ??_7InputSignal@vgui@@6B@  1007f2cc     ev_hldm.obj
 0002:000012f8       ??_7Button@vgui@@6B@       1007f2f8     ev_hldm.obj
 0002:00001558       __real@8@3ffd9999999999999800 1007f558     ev_hldm.obj
 0002:00001560       __real@8@3ff8a3d70a3d70a3d800 1007f560     ev_hldm.obj
 0002:00001568       __real@8@3ff78080808080808000 1007f568     ev_hldm.obj
 0002:00001570       __real@8@3ffaccccccccccccd000 1007f570     ev_hldm.obj
 0002:00001578       __real@8@4000a000000000000000 1007f578     ev_hldm.obj
 0002:00001580       __real@4@4002a000000000000000 1007f580     ev_hldm.obj
 0002:00001588       __real@8@3ffe8000000000000000 1007f588     ev_hldm.obj
 0002:00001590       __real@8@3ff6a3d70a3d70a3d800 1007f590     ev_hldm.obj
 0002:00001598       __real@4@40068000000000000000 1007f598     ev_hldm.obj
 0002:000015a0       __real@8@3ffd8000000000000000 1007f5a0     ev_hldm.obj
 0002:000015a8       __real@4@4003a000000000000000 1007f5a8     ev_hldm.obj
 0002:000015ac       __real@4@40058000000000000000 1007f5ac     ev_hldm.obj
 0002:000015b0       __real@4@c0039000000000000000 1007f5b0     ev_hldm.obj
 0002:000015b8       __real@8@4002a000000000000000 1007f5b8     ev_hldm.obj
 0002:000015c0       __real@8@3ff9ccccccccccccd000 1007f5c0     ev_hldm.obj
 0002:000015c8       __real@4@c000c000000000000000 1007f5c8     ev_hldm.obj
 0002:000015cc       __real@4@3ff78080808080808000 1007f5cc     ev_hldm.obj
 0002:000015d0       __real@8@3ffbccccccccccccd000 1007f5d0     hl_objects.obj
 0002:000015d8       ??_7ScrollBarButton@@6B@   1007f5d8     vgui_scrollbar2.obj
 0002:00001838       ??_7ScrollBar2@vgui@@6B@   1007f838     vgui_scrollbar2.obj
 0002:00001a74       ??_7FooDefaultScrollBarIntChangeSignal@?%C:\Projects\paranoia_coop\code_src\game_shared\vgui_scrollbar2.cpp2035421799@@6B@ 1007fa74     vgui_scrollbar2.obj
 0002:00001a78       ??_7FooDefaultButtonSignal@?%C:\Projects\paranoia_coop\code_src\game_shared\vgui_scrollbar2.cpp2035421799@@6B@ 1007fa78     vgui_scrollbar2.obj
 0002:00001a7c       ??_7Slider2@vgui@@6B@      1007fa7c     vgui_scrollbar2.obj
 0002:00001cbc       ??_7IntChangeSignal@vgui@@6B@ 1007fcbc     vgui_scrollbar2.obj
 0002:00001cc0       ??_7ActionSignal@vgui@@6B@ 1007fcc0     vgui_scrollbar2.obj
 0002:00001cc4       ??_7FooDefaultSliderSignal@?%C:\Projects\paranoia_coop\code_src\game_shared\vgui_slider2.cpp1815711199@@6B@ 1007fcc4     vgui_slider2.obj
 0002:00001cf0       ??_7Cursor@vgui@@6B@       1007fcf0     vgui_slider2.obj
 0002:00001d00       ??_7App@vgui@@6B@          1007fd00     vgui_slider2.obj
 0002:00001ddc       ??_7CVoiceStatus@@6BCDefaultInputSignal@vgui@@@ 1007fddc     voice_status.obj
 0002:00001e08       ??_7CVoiceStatus@@6BCHudBase@@@ 1007fe08     voice_status.obj
 0002:00001e28       ??_7CDefaultInputSignal@vgui@@6B@ 1007fe28     voice_status.obj
 0002:00001e54       ??_7CHudBase@@6B@          1007fe54     voice_status.obj
 0002:00001e70       __real@8@3ffe9999999999999800 1007fe70     voice_status.obj
 0002:00001e78       ??_7TextImage@vgui@@6B@    1007fe78     voice_status.obj
 0002:00001ef8       ??_7CVoiceTweakOKButton@@6B@ 1007fef8     voice_vgui_tweakdlg.obj
 0002:00001efc       __real@4@3ff8a3d70a3d70a3d800 1007fefc     voice_vgui_tweakdlg.obj
 0002:00001f00       __real@4@4005c800000000000000 1007ff00     voice_vgui_tweakdlg.obj
 0002:00001f04       ??_7CVoiceVGUITweakDlg@@6BICheckButton2Handler@vgui@@@ 1007ff04     voice_vgui_tweakdlg.obj
 0002:00001f08       ??_7CVoiceVGUITweakDlg@@6BCMenuPanel@@@ 1007ff08     voice_vgui_tweakdlg.obj
 0002:00002118       ??_7ICheckButton2Handler@vgui@@6B@ 10080118     voice_vgui_tweakdlg.obj
 0002:0000211c       ??_7CMenuPanel@@6B@        1008011c     voice_vgui_tweakdlg.obj
 0002:0000232c       ??_7Frame@vgui@@6B@        1008032c     voice_vgui_tweakdlg.obj
 0002:0000256c       ??_7TextPanel@vgui@@6B@    1008056c     voice_vgui_tweakdlg.obj
 0002:00002778       ??_7InputStream@vgui@@6B@  10080778     voice_vgui_tweakdlg.obj
 0002:00002794       ??_7FileInputStream@vgui@@6B@ 10080794     voice_vgui_tweakdlg.obj
 0002:000027b4       ??_7DesktopIcon@vgui@@6B@  100807b4     voice_vgui_tweakdlg.obj
 0002:000029c0       ??_7MiniApp@vgui@@6B@      100809c0     voice_vgui_tweakdlg.obj
 0002:000029cc       ??_7ScrollPanel@vgui@@6B@  100809cc     voice_vgui_tweakdlg.obj
 0002:00002bf4       ??_7ScrollBar@vgui@@6B@    10080bf4     voice_vgui_tweakdlg.obj
 0002:00002e30       ??_7Slider@vgui@@6B@       10080e30     voice_vgui_tweakdlg.obj
 0002:00003070       ??_7Font@vgui@@6B@         10081070     voice_vgui_tweakdlg.obj
 0002:00003088       __real@4@4002c000000000000000 10081088     ammo.obj
 0002:0000308c       __real@4@4001a000000000000000 1008108c     ammo.obj
 0002:00003090       __real@4@4004b400000000000000 10081090     ammo.obj
 0002:00003094       __real@4@3ff68888888888888800 10081094     ammo.obj
 0002:00003098       __real@4@3ffe8000000000000000 10081098     ammo.obj
 0002:0000309c       __real@4@4006aa00000000000000 1008109c     ammo.obj
 0002:000030a0       __real@4@3ff5ccccccccccccd000 100810a0     ammo.obj
 0002:000030a8       __real@8@4003a000000000000000 100810a8     ammo_secondary.obj
 0002:000030b0       __real@4@4006ff00000000000000 100810b0     ammohistory.obj
 0002:000030b4       __real@4@4005a000000000000000 100810b4     ammohistory.obj
 0002:000030b8       ??_7CHudParticle@@6B@      100810b8     cdll_int.obj
 0002:000030d4       ??_7CHudStatusIcons@@6B@   100810d4     cdll_int.obj
 0002:000030f0       ??_7CHudTextMessage@@6B@   100810f0     cdll_int.obj
 0002:0000310c       ??_7CHudAmmoSecondary@@6B@ 1008110c     cdll_int.obj
 0002:00003128       ??_7CHudMenu@@6B@          10081128     cdll_int.obj
 0002:00003144       ??_7CHudSayText@@6B@       10081144     cdll_int.obj
 0002:00003160       ??_7CHudDeathNotice@@6B@   10081160     cdll_int.obj
 0002:0000317c       ??_7CHudStatusBar@@6B@     1008117c     cdll_int.obj
 0002:00003198       ??_7CHudMessage@@6B@       10081198     cdll_int.obj
 0002:000031b4       ??_7CHudFlashlight@@6B@    100811b4     cdll_int.obj
 0002:000031d0       ??_7CHudTrain@@6B@         100811d0     cdll_int.obj
 0002:000031ec       ??_7CHudBattery@@6B@       100811ec     cdll_int.obj
 0002:00003208       ??_7CHudGeiger@@6B@        10081208     cdll_int.obj
 0002:00003224       ??_7CHudSpectator@@6B@     10081224     cdll_int.obj
 0002:00003240       ??_7CHudHealth@@6B@        10081240     cdll_int.obj
 0002:0000325c       ??_7CHudAmmo@@6B@          1008125c     cdll_int.obj
 0002:00003278       __real@4@40048000000000000000 10081278     death.obj
 0002:0000327c       __real@4@4004a000000000000000 1008127c     entity.obj
 0002:00003280       __real@8@3ffaf5c28f5c28f5c000 10081280     entity.obj
 0002:00003288       __real@4@4003c800000000000000 10081288     entity.obj
 0002:0000328c       __real@4@c0008000000000000000 1008128c     entity.obj
 0002:00003290       __real@4@4000c000000000000000 10081290     entity.obj
 0002:00003298       __real@8@3ffee666666666666800 10081298     entity.obj
 0002:000032a0       __real@8@40018000000000000000 100812a0     entity.obj
 0002:000032a8       __real@8@4003f000000000000000 100812a8     entity.obj
 0002:000032b0       __real@8@40028000000000000000 100812b0     entity.obj
 0002:000032b8       __real@4@40028000000000000000 100812b8     entity.obj
 0002:000032c0       __real@8@3ffeb333333333333000 100812c0     entity.obj
 0002:000032c8       __real@8@4001b000000000000000 100812c8     entity.obj
 0002:000032d0       __real@8@00000000000000000000 100812d0     entity.obj
 0002:000032d8       ??_7CGameStudioModelRenderer@@6B@ 100812d8     GameStudioModelRenderer.obj
 0002:0000333c       __real@4@40058200000000000000 1008133c     gl_debug.obj
 0002:00003340       __real@4@4004c800000000000000 10081340     gl_debug.obj
 0002:00003344       __real@4@bfff8000000000000000 10081344     gl_decals.obj
 0002:00003348       __real@4@4005e600000000000000 10081348     gl_decals.obj
 0002:0000334c       __real@4@3ff8b60b60b60b60b800 1008134c     gl_light_dynamic.obj
 0002:00003350       __real@4@40078000000000000000 10081350     gl_light_dynamic.obj
 0002:00003358       __real@8@3ff88efa351294e9c800 10081358     gl_light_dynamic.obj
 0002:00003360       __real@8@bff8a3d70a3d70a3d800 10081360     gl_light_dynamic.obj
 0002:00003368       __real@4@4005b400000000000000 10081368     gl_light_dynamic.obj
 0002:0000336c       __real@4@c005b400000000000000 1008136c     gl_light_dynamic.obj
 0002:00003370       __real@4@c006ff00000000000000 10081370     gl_light_dynamic.obj
 0002:00003374       __real@4@3fef8000000000000000 10081374     gl_light_dynamic.obj
 0002:00003378       __real@4@3ff78000000000000000 10081378     gl_light_dynamic.obj
 0002:00003380       __real@8@3ff98000000000000000 10081380     gl_light_dynamic.obj
 0002:00003388       __real@8@4006ff00000000000000 10081388     gl_lightmap.obj
 0002:00003390       __real@4@3ff88102040810204000 10081390     gl_lightmap.obj
 0002:00003394       __real@4@3ff8a3d70a0000000000 10081394     gl_model.obj
 0002:00003398       __real@4@3ffcccccccccccccd000 10081398     gl_postprocess.obj
 0002:0000339c       __real@4@3ffa8000000000000000 1008139c     gl_renderer.obj
 0002:000033a0       __real@4@4005fe00000000000000 100813a0     gl_renderer.obj
 0002:000033a4       __real@4@3ffbccccccccccccd000 100813a4     gl_renderer.obj
 0002:000033a8       __real@4@40008000000000000000 100813a8     gl_renderer.obj
 0002:000033ac       __real@4@3ff88000000000000000 100813ac     gl_renderer.obj
 0002:000033b0       __real@4@4006c300000000000000 100813b0     gl_rsurf.obj
 0002:000033b4       __real@4@4006b400000000000000 100813b4     gl_rsurf.obj
 0002:000033b8       __real@4@4006a500000000000000 100813b8     gl_rsurf.obj
 0002:000033bc       __real@4@40069600000000000000 100813bc     gl_rsurf.obj
 0002:000033c0       __real@4@40068700000000000000 100813c0     gl_rsurf.obj
 0002:000033c4       __real@4@c002a000000000000000 100813c4     gl_sky.obj
 0002:000033c8       __real@8@40048000000000000000 100813c8     gl_studiomodel.obj
 0002:000033d0       __real@4@4002d000000000000000 100813d0     gl_studiomodel.obj
 0002:000033d8       __real@8@3ff7ab92a6164c4bb800 100813d8     gl_studiomodel.obj
 0002:000033e0       __real@4@3ffd8000000000000000 100813e0     gl_studiomodel.obj
 0002:000033e8       __real@8@3ff88102040810204000 100813e8     gl_texloader.obj
 0002:000033f0       __real@4@bffcccccccccccccd000 100813f0     glows.obj
 0002:000033f4       __real@4@3ff98000000000000000 100813f4     glows.obj
 0002:000033f8       __real@8@4000d555555555555000 100813f8     grass.obj
 0002:00003400       __real@4@400c8000000000000000 10081400     grass.obj
 0002:00003408       __real@8@3ffdccccccccccccd000 10081408     health.obj
 0002:00003410       __real@8@40078000000000000000 10081410     health.obj
 0002:00003418       ??_7IVoiceStatusHelper@@6B@ 10081418     hud.obj
 0002:0000342c       ??_7CHLVoiceStatusHelper@@6B@ 1008142c     hud.obj
 0002:00003440       ??_7TablePanel@vgui@@6B@   10081440     hud.obj
 0002:00003690       ??_7HeaderPanel@vgui@@6B@  10081690     hud.obj
 0002:000038b0       ??_7TextGrid@vgui@@6B@     100818b0     hud.obj
 0002:00003ac0       __real@8@4012f424000000000000 10081ac0     hud_msg.obj
 0002:00003ac8       __real@4@3ffa8888888888888800 10081ac8     hud_redraw.obj
 0002:00003acc       __real@4@4003f000000000000000 10081acc     hud_redraw.obj
 0002:00003ad0       __real@4@3ff683126e978d4fe000 10081ad0     hud_redraw.obj
 0002:00003ad8       __real@8@3ff98efa351294e9c800 10081ad8     hud_redraw.obj
 0002:00003ae0       __real@4@4007af00000000000000 10081ae0     hud_redraw.obj
 0002:00003ae4       __real@4@40089600000000000000 10081ae4     hud_redraw.obj
 0002:00003ae8       __real@4@400dea60000000000000 10081ae8     hud_redraw.obj
 0002:00003af0       __real@8@4008fa00000000000000 10081af0     hud_servers.obj
 0002:00003af8       __real@8@3ffcccccccccccccd000 10081af8     hud_spectator.obj
 0002:00003b00       __real@4@400b8000000000000000 10081b00     hud_spectator.obj
 0002:00003b04       __real@4@3fffaaaaab0000000000 10081b04     hud_spectator.obj
 0002:00003b08       __real@4@40018000000000000000 10081b08     hud_spectator.obj
 0002:00003b0c       __real@4@4007b400000000000000 10081b0c     in_camera.obj
 0002:00003b10       __real@8@4007b400000000000000 10081b10     in_camera.obj
 0002:00003b18       __real@8@4006b400000000000000 10081b18     in_camera.obj
 0002:00003b20       __real@4@3ffec000000000000000 10081b20     input.obj
 0002:00003b24       __real@4@c004c800000000000000 10081b24     input.obj
 0002:00003b28       __real@4@c006b400000000000000 10081b28     input.obj
 0002:00003b30       __real@8@3ff08000000000000000 10081b30     inputw32.obj
 0002:00003b38       __real@4@400cdac0000000000000 10081b38     inputw32.obj
 0002:00003b40       __real@8@400cdac0000000000000 10081b40     inputw32.obj
 0002:00003b48       __real@8@40079600000000000000 10081b48     inputw32.obj
 0002:00003b50       __real@8@3fffa666666666666800 10081b50     inputw32.obj
 0002:00003b58       __real@8@3ff5a3d70a3d70a3d800 10081b58     inputw32.obj
 0002:00003b60       __real@8@400e8000000000000000 10081b60     inputw32.obj
 0002:00003b68       __real@8@3ff1d1b71758e2196800 10081b68     message.obj
 0002:00003b70       __real@8@3ffc8000000000000000 10081b70     parsemsg.obj
 0002:00003b78       __real@8@3fffb400000000000000 10081b78     parsemsg.obj
 0002:00003b80       __real@8@3ff7b400000000000000 10081b80     parsemsg.obj
 0002:00003b88       __real@8@4006b60b60b60b60b800 10081b88     pm_math.obj
 0002:00003b90       __real@8@c006b400000000000000 10081b90     pm_math.obj
 0002:00003b98       __real@8@3ffda2f9836e4e441800 10081b98     pm_math.obj
 0002:00003ba0       __real@8@4004e52ee0d31e0fc000 10081ba0     pm_math.obj
 0002:00003ba8       __real@4@40078700000000000000 10081ba8     pm_math.obj
 0002:00003bac       __real@4@4006dc00000000000000 10081bac     pm_shared.obj
 0002:00003bb0       __real@8@3ffdb333333333333000 10081bb0     pm_shared.obj
 0002:00003bb8       __real@8@3ffe8cccccccccccd000 10081bb8     pm_shared.obj
 0002:00003bc0       __real@8@bffbccccccccccccd000 10081bc0     pm_shared.obj
 0002:00003bc8       __real@4@40048800000000000000 10081bc8     pm_shared.obj
 0002:00003bcc       __real@4@3ffbcccccd0000000000 10081bcc     pm_shared.obj
 0002:00003bd0       __real@8@3ffeccccccccccccd000 10081bd0     pm_shared.obj
 0002:00003bd8       __real@4@4004f000000000000000 10081bd8     pm_shared.obj
 0002:00003be0       __real@8@4004c800000000000000 10081be0     pm_shared.obj
 0002:00003be8       __real@4@40059000000000000000 10081be8     pm_shared.obj
 0002:00003bec       __real@4@40039000000000000000 10081bec     pm_shared.obj
 0002:00003bf0       __real@8@3fffc000000000000000 10081bf0     pm_shared.obj
 0002:00003bf8       __real@4@c001c000000000000000 10081bf8     pm_shared.obj
 0002:00003bfc       __real@4@4003e000000000000000 10081bfc     pm_shared.obj
 0002:00003c00       __real@8@3ff583126e978d4fe000 10081c00     pm_shared.obj
 0002:00003c08       __real@8@3ffdaa7ef9db22d0e800 10081c08     pm_shared.obj
 0002:00003c10       __real@4@4006c800000000000000 10081c10     pm_shared.obj
 0002:00003c14       __real@4@400c9c40000000000000 10081c14     pm_shared.obj
 0002:00003c18       __real@4@4008e100000000000000 10081c18     pm_shared.obj
 0002:00003c20       __real@8@40008000000000000000 10081c20     pm_shared.obj
 0002:00003c28       __real@8@3ffea666666666666800 10081c28     pm_shared.obj
 0002:00003c30       __real@4@3fffd9999a0000000000 10081c30     pm_shared.obj
 0002:00003c38       __real@8@400f8ca0000000000000 10081c38     pm_shared.obj
 0002:00003c40       __real@8@400faf00000000000000 10081c40     pm_shared.obj
 0002:00003c48       __real@8@3fffccccccccccccd000 10081c48     pm_shared.obj
 0002:00003c50       __real@8@4004b400000000000000 10081c50     pm_shared.obj
 0002:00003c58       __real@8@3ffbcccccd0000000000 10081c58     pm_shared.obj
 0002:00003c60       __real@4@bffbccccccccccccd000 10081c60     pm_shared.obj
 0002:00003c68       __real@8@3ffdd70a3d70a3d70800 10081c68     pm_shared.obj
 0002:00003c70       __real@4@4008af00000000000000 10081c70     pm_shared.obj
 0002:00003c74       __real@4@40079100000000000000 10081c74     pm_shared.obj
 0002:00003c78       __real@4@40089100000000000000 10081c78     pm_shared.obj
 0002:00003c7c       __real@4@c006b300000000000000 10081c7c     pm_shared.obj
 0002:00003c80       __real@4@4006b300000000000000 10081c80     pm_shared.obj
 0002:00003c84       __real@4@c005b200000000000000 10081c84     pm_shared.obj
 0002:00003c88       __real@4@4005b200000000000000 10081c88     pm_shared.obj
 0002:00003c8c       __real@4@40029000000000000000 10081c8c     pm_shared.obj
 0002:00003c90       __real@4@bffc8000000000000000 10081c90     pm_shared.obj
 0002:00003c94       __real@4@400a8000000000000000 10081c94     quake_bsp.obj
 0002:00003c98       __real@8@3ff7b60b60b60b60b800 10081c98     quake_bsp.obj
 0002:00003ca0       __real@8@4000c90fdaa22168c000 10081ca0     quake_bsp.obj
 0002:00003ca8       __real@8@4005b400000000000000 10081ca8     quake_bsp.obj
 0002:00003cb0       __real@8@3ffec000000000000000 10081cb0     quake_bsp.obj
 0002:00003cb8       __real@4@3ff7a3d70a3d70a3d800 10081cb8     rain.obj
 0002:00003cbc       __real@4@3ff591a2b3c4d5e6f800 10081cbc     rain.obj
 0002:00003cc0       __real@8@4006c800000000000000 10081cc0     rain.obj
 0002:00003cc8       __real@8@4008e100000000000000 10081cc8     rain.obj
 0002:00003cd0       __real@4@40049000000000000000 10081cd0     statusbar.obj
 0002:00003cd8       __real@8@3fffc90fdaa22168c000 10081cd8     studio_util.obj
 0002:00003ce0       __real@8@3feb8637bd05af6c6800 10081ce0     studio_util.obj
 0002:00003ce8       ??_7CStudioModelRenderer@@6B@ 10081ce8     StudioModelRenderer.obj
 0002:00003d50       __real@8@3ffdaaaaaaaaaaaaa800 10081d50     StudioModelRenderer.obj
 0002:00003d58       __real@8@3fe08000000000000000 10081d58     StudioModelRenderer.obj
 0002:00003d60       __real@8@3fff8020c49ba5e35000 10081d60     StudioModelRenderer.obj
 0002:00003d68       __real@8@3ff78000000000000000 10081d68     StudioModelRenderer.obj
 0002:00003d70       __real@8@4001a000000000000000 10081d70     StudioModelRenderer.obj
 0002:00003d78       __real@4@3ff7aaaaaaaaaaaaa800 10081d78     StudioModelRenderer.obj
 0002:00003d7c       __real@4@3ff6b60b60b60b60b800 10081d7c     StudioModelRenderer.obj
 0002:00003d80       __real@8@40018800000000000000 10081d80     StudioModelRenderer.obj
 0002:00003d88       __real@4@c005f000000000000000 10081d88     StudioModelRenderer.obj
 0002:00003d8c       __real@4@4005f000000000000000 10081d8c     StudioModelRenderer.obj
 0002:00003d90       __real@8@3ff9a3d70a3d70a3d800 10081d90     tri.obj
 0002:00003d98       __real@4@3ff8ccccccccccccd000 10081d98     tri.obj
 0002:00003d9c       __real@4@4004b800000000000000 10081d9c     tri.obj
 0002:00003da0       ??_7CSmokePuff@@6B@        10081da0     triapiobjects.obj
 0002:00003da4       ??_7CObject@@6B@           10081da4     triapiobjects.obj
 0002:00003da8       ??_7CCheckButton2@vgui@@6BCDefaultInputSignal@1@@ 10081da8     vgui_checkbutton2.obj
 0002:00003dd4       ??_7CCheckButton2@vgui@@6BPanel@1@@ 10081dd4     vgui_checkbutton2.obj
 0002:00003fd0       ??_7CMenuHandler_TextWindow@@6B@ 10081fd0     vgui_ClassMenu.obj
 0002:00003fd4       __real@4@4004a800000000000000 10081fd4     vgui_ClassMenu.obj
 0002:00003fd8       ??_7CTransparentPanel@@6B@ 10081fd8     vgui_ClassMenu.obj
 0002:000041d4       ??_7CHandler_MenuButtonOver@@6B@ 100821d4     vgui_ClassMenu.obj
 0002:00004200       ??_7ClassButton@@6B@       10082200     vgui_ClassMenu.obj
 0002:00004468       __real@4@4005f800000000000000 10082468     vgui_ClassMenu.obj
 0002:0000446c       ??_7CMenuHandler_StringCommandClassSelect@@6B@ 1008246c     vgui_ClassMenu.obj
 0002:00004470       ??_7CMenuHandler_StringCommand@@6B@ 10082470     vgui_ClassMenu.obj
 0002:00004474       __real@4@4003c000000000000000 10082474     vgui_ClassMenu.obj
 0002:00004478       __real@4@4006b000000000000000 10082478     vgui_ClassMenu.obj
 0002:0000447c       __real@4@4007d400000000000000 1008247c     vgui_ClassMenu.obj
 0002:00004480       __real@4@40079c00000000000000 10082480     vgui_ClassMenu.obj
 0002:00004484       ??_7CClassMenuPanel@@6B@   10082484     vgui_ClassMenu.obj
 0002:0000469c       ??_7Handler@?%C:\Projects\paranoia_coop\code_src\cl_dll\vgui_ConsolePanel.cpp1293729146@@6B@ 1008269c     vgui_ConsolePanel.obj
 0002:000046a0       ??_7ConsolePanel@@6B@      100826a0     vgui_ConsolePanel.obj
 0002:000048ac       ??_7TextEntry@vgui@@6BInputSignal@1@@ 100828ac     vgui_ConsolePanel.obj
 0002:000048d8       ??_7TextEntry@vgui@@6BPanel@1@@ 100828d8     vgui_ConsolePanel.obj
 0002:00004b34       ??_7EtchedBorder@vgui@@6B@ 10082b34     vgui_ConsolePanel.obj
 0002:00004b9c       ??_7LoweredBorder@vgui@@6B@ 10082b9c     vgui_ConsolePanel.obj
 0002:00004c04       ??_7FooTablePanel@?%C:\Projects\paranoia_coop\code_src\cl_dll\vgui_ControlConfigPanel.cpp3237314843@@6B@ 10082c04     vgui_ControlConfigPanel.obj
 0002:00004e54       ??_7ControlConfigPanel@@6B@ 10082e54     vgui_ControlConfigPanel.obj
 0002:00005050       ??_7DataInputStream@vgui@@6BInputStream@1@@ 10083050     vgui_ControlConfigPanel.obj
 0002:0000506c       ??_7DataInputStream@vgui@@6B01@@ 1008306c     vgui_ControlConfigPanel.obj
 0002:0000509c       ??_8DataInputStream@vgui@@7B@ 1008309c     vgui_ControlConfigPanel.obj
 0002:000050a4       ??_7CommandButton@@6B@     100830a4     vgui_CustomObjects.obj
 0002:0000530c       ??_7CHandler_CommandButtonHighlight@@6B@ 1008330c     vgui_CustomObjects.obj
 0002:00005338       ??_7CImageLabel@@6B@       10083338     vgui_CustomObjects.obj
 0002:0000556c       ??_7CTFScrollButton@@6B@   1008356c     vgui_CustomObjects.obj
 0002:000057d4       ??_7CTFSlider@@6B@         100837d4     vgui_CustomObjects.obj
 0002:00005a14       ??_7CTFScrollPanel@@6B@    10083a14     vgui_CustomObjects.obj
 0002:00005c3c       ??_7CGammaView@@6B@        10083c3c     vgui_gamma.obj
 0002:00005e38       __real@4@40089b00000000000000 10083e38     vgui_gamma.obj
 0002:00005e3c       __real@4@4007c800000000000000 10083e3c     vgui_gamma.obj
 0002:00005e40       ??_7CGrid@vgui@@6B@        10083e40     vgui_grid.obj
 0002:00006040       ??_7ImageHolder@@6B@       10084040     vgui_hud.obj
 0002:0000623c       ??_7ShadowLabel@@6B@       1008423c     vgui_hud.obj
 0002:00006468       __real@4@4002f000000000000000 10084468     vgui_hud.obj
 0002:0000646c       __real@4@4007aa00000000000000 1008446c     vgui_hud.obj
 0002:00006470       ??_7CHud2@@6B@             10084470     vgui_hud.obj
 0002:0000666c       __real@4@4008a000000000000000 1008466c     vgui_hud.obj
 0002:00006670       __real@4@4007f000000000000000 10084670     vgui_hud.obj
 0002:00006678       __real@8@4000d555555555555800 10084678     vgui_hud.obj
 0002:00006680       __real@4@40058c00000000000000 10084680     vgui_hud.obj
 0002:00006684       __real@4@4001c000000000000000 10084684     vgui_hud.obj
 0002:00006688       ??_7Layout@vgui@@6B@       10084688     vgui_int.obj
 0002:0000668c       ??_7BorderLayout@vgui@@6B@ 1008468c     vgui_int.obj
 0002:00006694       ??_7SurfaceBase@vgui@@6B@  10084694     vgui_int.obj
 0002:0000671c       ??_7CListBox@vgui@@6B@     1008471c     vgui_listbox.obj
 0002:0000691c       ??_7ListBoxSignal@CListBox@vgui@@6B@ 1008491c     vgui_listbox.obj
 0002:00006920       ??_7MemoryInputStream@@6B@ 10084920     vgui_loadtga.obj
 0002:0000693c       __real@4@4006a000000000000000 1008493c     vgui_MOTDWindow.obj
 0002:00006940       __real@4@4004c000000000000000 10084940     vgui_MOTDWindow.obj
 0002:00006944       __real@4@4005e000000000000000 10084944     vgui_MOTDWindow.obj
 0002:00006948       ??_7CMessageWindowPanel@@6B@ 10084948     vgui_MOTDWindow.obj
 0002:00006b58       ??_7StackLayout@vgui@@6B@  10084b58     vgui_MOTDWindow.obj
 0002:00006b5c       ??_7CMySlider@@6B@         10084b5c     vgui_paranoiatext.obj
 0002:00006d9c       ??_7CMyScrollbutton@@6B@   10084d9c     vgui_paranoiatext.obj
 0002:00006ffc       ??_7CMyScrollPanel@@6BCRenderable@@@ 10084ffc     vgui_paranoiatext.obj
 0002:00007000       ??_7CMyScrollPanel@@6BScrollPanel@vgui@@@ 10085000     vgui_paranoiatext.obj
 0002:00007228       ??_7CMyButton@@6BCRenderable@@@ 10085228     vgui_paranoiatext.obj
 0002:0000722c       ??_7CMyButton@@6BButton@vgui@@@ 1008522c     vgui_paranoiatext.obj
 0002:0000748c       ??_7CMainPanel@@6BCRenderable@@@ 1008548c     vgui_paranoiatext.obj
 0002:00007490       ??_7CMainPanel@@6BPanel@vgui@@@ 10085490     vgui_paranoiatext.obj
 0002:0000768c       ??_7CRenderable@@6B@       1008568c     vgui_paranoiatext.obj
 0002:00007690       ??_7CParanoiaTextPanel@@6BActionSignal@vgui@@@ 10085690     vgui_paranoiatext.obj
 0002:00007694       ??_7CParanoiaTextPanel@@6BPanel@vgui@@@ 10085694     vgui_paranoiatext.obj
 0002:00007890       ??_7CRadioIcon@@6B@        10085890     vgui_radio.obj
 0002:00007a8c       ??_7CSchemeManager@@6B@    10085a8c     vgui_SchemeManager.obj
 0002:00007a90       ??_7CConstFont@@6B@        10085a90     vgui_SchemeManager.obj
 0002:00007aa8       ??_7CWidthFont@@6B@        10085aa8     vgui_SchemeManager.obj
 0002:00007ac0       ??_7CMenuHandler_StringCommandWatch@@6B@ 10085ac0     vgui_ScorePanel.obj
 0002:00007ac4       __real@4@4003b000000000000000 10085ac4     vgui_ScorePanel.obj
 0002:00007ac8       ??_7ScorePanel@@6BCDefaultInputSignal@vgui@@@ 10085ac8     vgui_ScorePanel.obj
 0002:00007af4       ??_7ScorePanel@@6BPanel@vgui@@@ 10085af4     vgui_ScorePanel.obj
 0002:00007cf0       ??_7HitTestPanel@ScorePanel@@6B@ 10085cf0     vgui_ScorePanel.obj
 0002:00007eec       ??_7CTextImage2@@6B@       10085eec     vgui_ScorePanel.obj
 0002:00007f4c       ??_7CLabelHeader@@6B@      10085f4c     vgui_ScorePanel.obj
 0002:0000817c       ??_7CancelHandler@?%C:\Projects\paranoia_coop\code_src\cl_dll\vgui_ServerBrowser.cpp197032196@@6B@ 1008617c     vgui_ServerBrowser.obj
 0002:00008180       ??_7StopHandler@?%C:\Projects\paranoia_coop\code_src\cl_dll\vgui_ServerBrowser.cpp197032196@@6B@ 10086180     vgui_ServerBrowser.obj
 0002:00008184       ??_7RefreshHandler@?%C:\Projects\paranoia_coop\code_src\cl_dll\vgui_ServerBrowser.cpp197032196@@6B@ 10086184     vgui_ServerBrowser.obj
 0002:00008188       ??_7ConnectHandler@?%C:\Projects\paranoia_coop\code_src\cl_dll\vgui_ServerBrowser.cpp197032196@@6B@ 10086188     vgui_ServerBrowser.obj
 0002:0000818c       ??_7LabelSortInputHandler@@6B@ 1008618c     vgui_ServerBrowser.obj
 0002:000081b8       ??_7CBrowser_InputSignal@?%C:\Projects\paranoia_coop\code_src\cl_dll\vgui_ServerBrowser.cpp197032196@@6B@ 100861b8     vgui_ServerBrowser.obj
 0002:000081e4       ??_7ServerBrowserTablePanel@?%C:\Projects\paranoia_coop\code_src\cl_dll\vgui_ServerBrowser.cpp197032196@@6B@ 100861e4     vgui_ServerBrowser.obj
 0002:00008434       __real@4@40088e80000000000000 10086434     vgui_ServerBrowser.obj
 0002:00008438       __real@4@4007fa00000000000000 10086438     vgui_ServerBrowser.obj
 0002:0000843c       ??_7CSBLabel@@6B@          1008643c     vgui_ServerBrowser.obj
 0002:00008668       ??_7ServerBrowser@@6B@     10086668     vgui_ServerBrowser.obj
 0002:00008864       ??_7SpectatorPanel@@6B@    10086864     vgui_SpectatorPanel.obj
 0002:00008a64       __real@4@4006f000000000000000 10086a64     vgui_SpectatorPanel.obj
 0002:00008a68       __real@4@40069d00000000000000 10086a68     vgui_SpectatorPanel.obj
 0002:00008a6c       __real@4@4006a400000000000000 10086a6c     vgui_SpectatorPanel.obj
 0002:00008a70       __real@4@40049c00000000000000 10086a70     vgui_SpectatorPanel.obj
 0002:00008a74       __real@4@4005fc00000000000000 10086a74     vgui_SpectatorPanel.obj
 0002:00008a78       ??_7CSpectatorHandler_Command@@6B@ 10086a78     vgui_SpectatorPanel.obj
 0002:00008a7c       ??_7ColorButton@@6B@       10086a7c     vgui_SpectatorPanel.obj
 0002:00008ce4       __real@4@4005c000000000000000 10086ce4     vgui_SpectatorPanel.obj
 0002:00008ce8       __real@4@4002e000000000000000 10086ce8     vgui_SpectatorPanel.obj
 0002:00008cec       ??_7CSubtitle@@6B@         10086cec     vgui_subtitles.obj
 0002:00008ee8       __real@4@4007a500000000000000 10086ee8     vgui_subtitles.obj
 0002:00008eec       __real@4@40079600000000000000 10086eec     vgui_subtitles.obj
 0002:00008ef0       ??_7CSubtitleTextPanel@@6B@ 10086ef0     vgui_subtitles.obj
 0002:000090fc       __real@4@3ff9ccccccccccccd000 100870fc     vgui_subtitles.obj
 0002:00009100       ??_7CTabPanel@@6B@         10087100     vgui_tabpanel.obj
 0002:000092fc       __real@4@4007a000000000000000 100872fc     vgui_tabpanel.obj
 0002:00009308       ??_7CMenuHandler_PopupSubMenuInput@@6B@ 10087308     vgui_TeamFortressViewport.obj
 0002:00009334       ??_7CCommandMenu@@6B@      10087334     vgui_TeamFortressViewport.obj
 0002:00009530       ??_7CScrollingMessage@@6B@ 10087530     vgui_TeamFortressViewport.obj
 0002:0000973c       ??_7CScreenMessage@@6B@    1008773c     vgui_TeamFortressViewport.obj
 0002:00009948       ??_7CViewPortInputHandler@@6B@ 10087948     vgui_TeamFortressViewport.obj
 0002:00009974       ??_7TeamFortressViewport@@6B@ 10087974     vgui_TeamFortressViewport.obj
 0002:00009b70       ??_7Surface@vgui@@6B@      10087b70     vgui_TeamFortressViewport.obj
 0002:00009c00       ??_7CMenuHandler_ToggleCvar@@6B@ 10087c00     vgui_TeamFortressViewport.obj
 0002:00009c04       ??_7SpectButton@@6B@       10087c04     vgui_TeamFortressViewport.obj
 0002:00009e6c       ??_7SpectToggleButton@@6BInputSignal@vgui@@@ 10087e6c     vgui_TeamFortressViewport.obj
 0002:00009e98       ??_7SpectToggleButton@@6BCommandButton@@@ 10087e98     vgui_TeamFortressViewport.obj
 0002:0000a100       ??_7ToggleCommandButton@@6BInputSignal@vgui@@@ 10088100     vgui_TeamFortressViewport.obj
 0002:0000a12c       ??_7ToggleCommandButton@@6BCommandButton@@@ 1008812c     vgui_TeamFortressViewport.obj
 0002:0000a394       ??_7TeamOnlyCommandButton@@6B@ 10088394     vgui_TeamFortressViewport.obj
 0002:0000a5fc       ??_7MapButton@@6B@         100885fc     vgui_TeamFortressViewport.obj
 0002:0000a864       ??_7MenuSeparator@vgui@@6B@ 10088864     vgui_TeamFortressViewport.obj
 0002:0000aa90       ??_7BuildGroup@vgui@@6B@   10088a90     vgui_TeamFortressViewport.obj
 0002:0000aac8       ??_7BuildButton@@6B@       10088ac8     vgui_TeamFortressViewport.obj
 0002:0000ad30       ??_7DetpackButton@@6B@     10088d30     vgui_TeamFortressViewport.obj
 0002:0000af98       ??_7FeignButton@@6B@       10088f98     vgui_TeamFortressViewport.obj
 0002:0000b200       ??_7DisguiseButton@@6B@    10089200     vgui_TeamFortressViewport.obj
 0002:0000b468       ??_7SpectateButton@@6B@    10089468     vgui_TeamFortressViewport.obj
 0002:0000b6d0       ??_7TeamButton@@6B@        100896d0     vgui_TeamFortressViewport.obj
 0002:0000b938       __real@4@4005d000000000000000 10089938     vgui_TeamFortressViewport.obj
 0002:0000b93c       ??_7CPickupMessage@@6B@    1008993c     vgui_TeamFortressViewport.obj
 0002:0000bb48       __real@4@4007b900000000000000 10089b48     vgui_TeamFortressViewport.obj
 0002:0000bb4c       __real@4@4006ea00000000000000 10089b4c     vgui_teammenu.obj
 0002:0000bb50       __real@4@4006b200000000000000 10089b50     vgui_teammenu.obj
 0002:0000bb54       ??_7CTeamMenuPanel@@6B@    10089b54     vgui_teammenu.obj
 0002:0000bd6c       ??_7ShadowTextPanel@@6B@   10089d6c     vgui_tips.obj
 0002:0000bf78       ??_7CTips@@6B@             10089f78     vgui_tips.obj
 0002:0000c178       __real@8@3ffc9999999999999800 1008a178     vgui_tips.obj
 0002:0000c180       __real@4@4001e000000000000000 1008a180     vgui_tips.obj
 0002:0000c188       __real@8@4001d555555555555800 1008a188     vgui_tips.obj
 0002:0000c190       __real@4@c001e000000000000000 1008a190     view.obj
 0002:0000c198       __real@8@bffdaaaaaaaaaaaaa800 1008a198     view.obj
 0002:0000c1a0       __real@8@3ffa8000000000000000 1008a1a0     view.obj
 0002:0000c1a8       __real@4@4003b400000000000000 1008a1a8     view.obj
 0002:0000c1ac       __real@4@4002c800000000000000 1008a1ac     view.obj
 0002:0000c1b0       __real@4@40038800000000000000 1008a1b0     view.obj
 0002:0000c1b4       __real@4@3fffc000000000000000 1008a1b4     view.obj
 0002:0000c1b8       __real@4@4004cd00000000000000 1008a1b8     view.obj
 0002:0000c1bc       __real@4@40049b00000000000000 1008a1bc     view.obj
 0002:0000c1c0       __real@4@3ffee666660000000000 1008a1c0     view.obj
 0002:0000c228       ??_7type_info@@6B@         1008a228     LIBCMT:typinfo.obj
 0002:0000c2a8       __real@8@4015800bf60000000000 1008a2a8     LIBCMT:testfdiv.obj
 0002:0000c2b0       __real@8@4014bffffc0000000000 1008a2b0     LIBCMT:testfdiv.obj
 0002:0000c2b8       ??_C@_0BK@JEGK@IsProcessorFeaturePresent?$AA@ 1008a2b8     LIBCMT:testfdiv.obj
 0002:0000c2d4       ??_C@_08OBID@KERNEL32?$AA@ 1008a2d4     LIBCMT:testfdiv.obj
 0002:0000c2e0       ??_C@_05OFLO@e?$CL000?$AA@ 1008a2e0     LIBCMT:cvt.obj
 0002:0000c2e8       ___lookuptable             1008a2e8     LIBCMT:output.obj
 0002:0000c344       ??_C@_1O@POHA@?$AA?$CI?$AAn?$AAu?$AAl?$AAl?$AA?$CJ?$AA?$AA@ 1008a344     LIBCMT:output.obj
 0002:0000c354       ??_C@_06ONKE@?$CInull?$CJ?$AA@ 1008a354     LIBCMT:output.obj
 0002:0000c390       ??_C@_0BH@PHHF@__GLOBAL_HEAP_SELECTED?$AA@ 1008a390     LIBCMT:heapinit.obj
 0002:0000c3a8       ??_C@_0BF@BBGL@__MSVCRT_HEAP_SELECT?$AA@ 1008a3a8     LIBCMT:heapinit.obj
 0002:0000c3f8       __DEFAULT_CW_in_mem        1008a3f8     LIBCMT:common.obj
 0002:0000c3fa       __pi_by_2_to_61            1008a3fa     LIBCMT:common.obj
 0002:0000c434       ??_C@_07PCLE@LC_TIME?$AA@  1008a434     LIBCMT:setlocal.obj
 0002:0000c43c       ??_C@_0L@NKG@LC_NUMERIC?$AA@ 1008a43c     LIBCMT:setlocal.obj
 0002:0000c448       ??_C@_0M@CBIH@LC_MONETARY?$AA@ 1008a448     LIBCMT:setlocal.obj
 0002:0000c454       ??_C@_08LFGE@LC_CTYPE?$AA@ 1008a454     LIBCMT:setlocal.obj
 0002:0000c460       ??_C@_0L@CFLC@LC_COLLATE?$AA@ 1008a460     LIBCMT:setlocal.obj
 0002:0000c46c       ??_C@_06GCPK@LC_ALL?$AA@   1008a46c     LIBCMT:setlocal.obj
 0002:0000c474       ??_C@_01FAJB@?$DL?$AA@     1008a474     LIBCMT:setlocal.obj
 0002:0000c478       ??_C@_02BGDO@?$DN?$DL?$AA@ 1008a478     LIBCMT:setlocal.obj
 0002:0000c47c       ??_C@_01KPOD@?$DN?$AA@     1008a47c     LIBCMT:setlocal.obj
 0002:0000c480       ??_C@_03DBOJ@_?4?0?$AA@    1008a480     LIBCMT:setlocal.obj
 0002:0000c484       ??_C@_01PJCK@?4?$AA@       1008a484     LIBCMT:setlocal.obj
 0002:0000c488       ??_C@_01NON@_?$AA@         1008a488     LIBCMT:setlocal.obj
 0002:0000c48c       ??_C@_01A@?$AA?$AA@        1008a48c     LIBCMT:a_map.obj
 0002:0000c490       ??_C@_13A@?$AA?$AA?$AA?$AA@ 1008a490     LIBCMT:a_map.obj
 0002:0000c4bc       ??_C@_0P@GGKG@runtime?5error?5?$AA@ 1008a4bc     LIBCMT:crt0msg.obj
 0002:0000c4cc       ??_C@_02PIMC@?$AN?6?$AA@   1008a4cc     LIBCMT:crt0msg.obj
 0002:0000c4d0       ??_C@_0O@DELO@TLOSS?5error?$AN?6?$AA@ 1008a4d0     LIBCMT:crt0msg.obj
 0002:0000c4e0       ??_C@_0N@OMLL@SING?5error?$AN?6?$AA@ 1008a4e0     LIBCMT:crt0msg.obj
 0002:0000c4f0       ??_C@_0P@OJAK@DOMAIN?5error?$AN?6?$AA@ 1008a4f0     LIBCMT:crt0msg.obj
 0002:0000c500       ??_C@_0CF@EANP@R6028?$AN?6?9?5unable?5to?5initialize?5he@ 1008a500     LIBCMT:crt0msg.obj
 0002:0000c528       ??_C@_0DF@ECGN@R6027?$AN?6?9?5not?5enough?5space?5for?5lo@ 1008a528     LIBCMT:crt0msg.obj
 0002:0000c560       ??_C@_0DF@FKAC@R6026?$AN?6?9?5not?5enough?5space?5for?5st@ 1008a560     LIBCMT:crt0msg.obj
 0002:0000c598       ??_C@_0CG@DPMN@R6025?$AN?6?9?5pure?5virtual?5function?5c@ 1008a598     LIBCMT:crt0msg.obj
 0002:0000c5c0       ??_C@_0DF@CKIP@R6024?$AN?6?9?5not?5enough?5space?5for?5_o@ 1008a5c0     LIBCMT:crt0msg.obj
 0002:0000c5f8       ??_C@_0CJ@GGOE@R6019?$AN?6?9?5unable?5to?5open?5console?5@ 1008a5f8     LIBCMT:crt0msg.obj
 0002:0000c624       ??_C@_0CB@LBOB@R6018?$AN?6?9?5unexpected?5heap?5error?$AN?6@ 1008a624     LIBCMT:crt0msg.obj
 0002:0000c648       ??_C@_0CN@FPEG@R6017?$AN?6?9?5unexpected?5multithread?5@ 1008a648     LIBCMT:crt0msg.obj
 0002:0000c678       ??_C@_0CM@OBIC@R6016?$AN?6?9?5not?5enough?5space?5for?5th@ 1008a678     LIBCMT:crt0msg.obj
 0002:0000c6a4       ??_C@_0CB@HPAL@?$AN?6abnormal?5program?5termination?$AN?6@ 1008a6a4     LIBCMT:crt0msg.obj
 0002:0000c6c8       ??_C@_0CM@JOOB@R6009?$AN?6?9?5not?5enough?5space?5for?5en@ 1008a6c8     LIBCMT:crt0msg.obj
 0002:0000c6f4       ??_C@_0CK@OIBL@R6008?$AN?6?9?5not?5enough?5space?5for?5ar@ 1008a6f4     LIBCMT:crt0msg.obj
 0002:0000c720       ??_C@_0CF@LKPB@R6002?$AN?6?9?5floating?5point?5not?5load@ 1008a720     LIBCMT:crt0msg.obj
 0002:0000c748       ??_C@_0CF@JPDF@Microsoft?5Visual?5C?$CL?$CL?5Runtime?5Lib@ 1008a748     LIBCMT:crt0msg.obj
 0002:0000c770       ??_C@_02JJJH@?6?6?$AA@     1008a770     LIBCMT:crt0msg.obj
 0002:0000c774       ??_C@_0BK@DEOK@Runtime?5Error?$CB?6?6Program?3?5?$AA@ 1008a774     LIBCMT:crt0msg.obj
 0002:0000c790       ??_C@_03NAME@?4?4?4?$AA@   1008a790     LIBCMT:crt0msg.obj
 0002:0000c794       ??_C@_0BH@NNCD@?$DMprogram?5name?5unknown?$DO?$AA@ 1008a794     LIBCMT:crt0msg.obj
 0002:0000c7c8       ___dnames                  1008a7c8     LIBCMT:timeset.obj
 0002:0000c7e0       ___mnames                  1008a7e0     LIBCMT:timeset.obj
 0002:0000c808       ??_C@_02JHIA@TZ?$AA@       1008a808     LIBCMT:tzset.obj
 0002:0000c80c       ??_C@_08OBJD@Paraguay?$AA@ 1008a80c     LIBCMT:getqloc.obj
 0002:0000c818       ??_C@_07GLKH@Uruguay?$AA@  1008a818     LIBCMT:getqloc.obj
 0002:0000c820       ??_C@_05FPFC@Chile?$AA@    1008a820     LIBCMT:getqloc.obj
 0002:0000c828       ??_C@_07IIGF@Ecuador?$AA@  1008a828     LIBCMT:getqloc.obj
 0002:0000c830       ??_C@_09PKAL@Argentina?$AA@ 1008a830     LIBCMT:getqloc.obj
 0002:0000c83c       ??_C@_04LKAH@Peru?$AA@     1008a83c     LIBCMT:getqloc.obj
 0002:0000c844       ??_C@_08NEEM@Colombia?$AA@ 1008a844     LIBCMT:getqloc.obj
 0002:0000c850       ??_C@_09ODEB@Venezuela?$AA@ 1008a850     LIBCMT:getqloc.obj
 0002:0000c85c       ??_C@_0BD@CLEL@Dominican?5Republic?$AA@ 1008a85c     LIBCMT:getqloc.obj
 0002:0000c870       ??_C@_0N@MDGL@South?5Africa?$AA@ 1008a870     LIBCMT:getqloc.obj
 0002:0000c880       ??_C@_06NKBG@Panama?$AA@   1008a880     LIBCMT:getqloc.obj
 0002:0000c888       ??_C@_0L@BMHO@Luxembourg?$AA@ 1008a888     LIBCMT:getqloc.obj
 0002:0000c894       ??_C@_0L@IMDK@Costa?5Rica?$AA@ 1008a894     LIBCMT:getqloc.obj
 0002:0000c8a0       ??_C@_0M@BLJF@Switzerland?$AA@ 1008a8a0     LIBCMT:getqloc.obj
 0002:0000c8ac       ??_C@_09KBOL@Guatemala?$AA@ 1008a8ac     LIBCMT:getqloc.obj
 0002:0000c8b8       ??_C@_06JNAK@Canada?$AA@   1008a8b8     LIBCMT:getqloc.obj
 0002:0000c8c0       ??_C@_0BG@OLLP@Spanish?5?9?5Modern?5Sort?$AA@ 1008a8c0     LIBCMT:getqloc.obj
 0002:0000c8d8       ??_C@_09IDKE@Australia?$AA@ 1008a8d8     LIBCMT:getqloc.obj
 0002:0000c8e4       ??_C@_07JJJJ@English?$AA@  1008a8e4     LIBCMT:getqloc.obj
 0002:0000c8ec       ??_C@_07NMDO@Austria?$AA@  1008a8ec     LIBCMT:getqloc.obj
 0002:0000c8f4       ??_C@_06DEFE@German?$AA@   1008a8f4     LIBCMT:getqloc.obj
 0002:0000c8fc       ??_C@_07JAIH@Belgium?$AA@  1008a8fc     LIBCMT:getqloc.obj
 0002:0000c904       ??_C@_06BNLJ@Mexico?$AA@   1008a904     LIBCMT:getqloc.obj
 0002:0000c90c       ??_C@_07JHAG@Spanish?$AA@  1008a90c     LIBCMT:getqloc.obj
 0002:0000c914       ??_C@_06DADE@Basque?$AA@   1008a914     LIBCMT:getqloc.obj
 0002:0000c91c       ??_C@_06ENFP@Sweden?$AA@   1008a91c     LIBCMT:getqloc.obj
 0002:0000c924       ??_C@_07JPMH@Swedish?$AA@  1008a924     LIBCMT:getqloc.obj
 0002:0000c92c       ??_C@_07IEKF@Iceland?$AA@  1008a92c     LIBCMT:getqloc.obj
 0002:0000c934       ??_C@_09KNEA@Icelandic?$AA@ 1008a934     LIBCMT:getqloc.obj
 0002:0000c940       ??_C@_06IJOD@France?$AA@   1008a940     LIBCMT:getqloc.obj
 0002:0000c948       ??_C@_06EINI@French?$AA@   1008a948     LIBCMT:getqloc.obj
 0002:0000c950       ??_C@_07FOOE@Finland?$AA@  1008a950     LIBCMT:getqloc.obj
 0002:0000c958       ??_C@_07OJOM@Finnish?$AA@  1008a958     LIBCMT:getqloc.obj
 0002:0000c960       ??_C@_05FFAC@Spain?$AA@    1008a960     LIBCMT:getqloc.obj
 0002:0000c968       ??_C@_0BL@BIHM@Spanish?5?9?5Traditional?5Sort?$AA@ 1008a968     LIBCMT:getqloc.obj
 0002:0000c984       ??_C@_0O@GLHB@united?9states?$AA@ 1008a984     LIBCMT:getqloc.obj
 0002:0000c994       ??_C@_0P@IIKK@united?9kingdom?$AA@ 1008a994     LIBCMT:getqloc.obj
 0002:0000c9a4       ??_C@_0BC@FHBO@trinidad?5?$CG?5tobago?$AA@ 1008a9a4     LIBCMT:getqloc.obj
 0002:0000c9b8       ??_C@_0M@BDFM@south?9korea?$AA@ 1008a9b8     LIBCMT:getqloc.obj
 0002:0000c9c4       ??_C@_0N@CKFA@south?9africa?$AA@ 1008a9c4     LIBCMT:getqloc.obj
 0002:0000c9d4       ??_C@_0M@HNHN@south?5korea?$AA@ 1008a9d4     LIBCMT:getqloc.obj
 0002:0000c9e0       ??_C@_0N@MKDO@south?5africa?$AA@ 1008a9e0     LIBCMT:getqloc.obj
 0002:0000c9f0       ??_C@_06KFFJ@slovak?$AA@   1008a9f0     LIBCMT:getqloc.obj
 0002:0000c9f8       ??_C@_0M@NMAC@puerto?9rico?$AA@ 1008a9f8     LIBCMT:getqloc.obj
 0002:0000ca04       ??_C@_08EJOH@pr?9china?$AA@ 1008aa04     LIBCMT:getqloc.obj
 0002:0000ca10       ??_C@_08CHMG@pr?5china?$AA@ 1008aa10     LIBCMT:getqloc.obj
 0002:0000ca1c       ??_C@_02OCJK@nz?$AA@       1008aa1c     LIBCMT:getqloc.obj
 0002:0000ca20       ??_C@_0M@MMKA@new?9zealand?$AA@ 1008aa20     LIBCMT:getqloc.obj
 0002:0000ca2c       ??_C@_09MGEH@hong?9kong?$AA@ 1008aa2c     LIBCMT:getqloc.obj
 0002:0000ca38       ??_C@_07CCAK@holland?$AA@  1008aa38     LIBCMT:getqloc.obj
 0002:0000ca40       ??_C@_0O@MEPL@great?5britain?$AA@ 1008aa40     LIBCMT:getqloc.obj
 0002:0000ca50       ??_C@_07LGIB@england?$AA@  1008aa50     LIBCMT:getqloc.obj
 0002:0000ca58       ??_C@_05BMOA@czech?$AA@    1008aa58     LIBCMT:getqloc.obj
 0002:0000ca60       ??_C@_05NMPB@china?$AA@    1008aa60     LIBCMT:getqloc.obj
 0002:0000ca68       ??_C@_07GN@britain?$AA@    1008aa68     LIBCMT:getqloc.obj
 0002:0000ca70       ??_C@_07DLAK@america?$AA@  1008aa70     LIBCMT:getqloc.obj
 0002:0000ca78       ??_C@_03IPEP@usa?$AA@      1008aa78     LIBCMT:getqloc.obj
 0002:0000ca7c       ??_C@_02PILH@us?$AA@       1008aa7c     LIBCMT:getqloc.obj
 0002:0000ca80       ??_C@_02FHP@uk?$AA@        1008aa80     LIBCMT:getqloc.obj
 0002:0000ca84       ??_C@_05DEAI@swiss?$AA@    1008aa84     LIBCMT:getqloc.obj
 0002:0000ca8c       ??_C@_0BA@LIAF@swedish?9finland?$AA@ 1008aa8c     LIBCMT:getqloc.obj
 0002:0000ca9c       ??_C@_0BC@FMEG@spanish?9venezuela?$AA@ 1008aa9c     LIBCMT:getqloc.obj
 0002:0000cab0       ??_C@_0BA@BNMG@spanish?9uruguay?$AA@ 1008aab0     LIBCMT:getqloc.obj
 0002:0000cac0       ??_C@_0BE@BKDJ@spanish?9puerto?5rico?$AA@ 1008aac0     LIBCMT:getqloc.obj
 0002:0000cad4       ??_C@_0N@JIBL@spanish?9peru?$AA@ 1008aad4     LIBCMT:getqloc.obj
 0002:0000cae4       ??_C@_0BB@OGOF@spanish?9paraguay?$AA@ 1008aae4     LIBCMT:getqloc.obj
 0002:0000caf8       ??_C@_0P@LLFA@spanish?9panama?$AA@ 1008aaf8     LIBCMT:getqloc.obj
 0002:0000cb08       ??_C@_0BC@BBJM@spanish?9nicaragua?$AA@ 1008ab08     LIBCMT:getqloc.obj
 0002:0000cb1c       ??_C@_0P@NJBN@spanish?9modern?$AA@ 1008ab1c     LIBCMT:getqloc.obj
 0002:0000cb2c       ??_C@_0BA@NHDN@spanish?9mexican?$AA@ 1008ab2c     LIBCMT:getqloc.obj
 0002:0000cb3c       ??_C@_0BB@JHOJ@spanish?9honduras?$AA@ 1008ab3c     LIBCMT:getqloc.obj
 0002:0000cb50       ??_C@_0BC@BOOM@spanish?9guatemala?$AA@ 1008ab50     LIBCMT:getqloc.obj
 0002:0000cb64       ??_C@_0BE@EELI@spanish?9el?5salvador?$AA@ 1008ab64     LIBCMT:getqloc.obj
 0002:0000cb78       ??_C@_0BA@POAE@spanish?9ecuador?$AA@ 1008ab78     LIBCMT:getqloc.obj
 0002:0000cb88       ??_C@_0BL@LDKN@spanish?9dominican?5republic?$AA@ 1008ab88     LIBCMT:getqloc.obj
 0002:0000cba4       ??_C@_0BD@HPMH@spanish?9costa?5rica?$AA@ 1008aba4     LIBCMT:getqloc.obj
 0002:0000cbb8       ??_C@_0BB@NDDK@spanish?9colombia?$AA@ 1008abb8     LIBCMT:getqloc.obj
 0002:0000cbcc       ??_C@_0O@BJHA@spanish?9chile?$AA@ 1008abcc     LIBCMT:getqloc.obj
 0002:0000cbdc       ??_C@_0BA@OBNG@spanish?9bolivia?$AA@ 1008abdc     LIBCMT:getqloc.obj
 0002:0000cbec       ??_C@_0BC@EFAM@spanish?9argentina?$AA@ 1008abec     LIBCMT:getqloc.obj
 0002:0000cc00       ??_C@_0BF@KMMM@portuguese?9brazilian?$AA@ 1008ac00     LIBCMT:getqloc.obj
 0002:0000cc18       ??_C@_0BC@BAAE@norwegian?9nynorsk?$AA@ 1008ac18     LIBCMT:getqloc.obj
 0002:0000cc2c       ??_C@_0BB@PBHK@norwegian?9bokmal?$AA@ 1008ac2c     LIBCMT:getqloc.obj
 0002:0000cc40       ??_C@_09EHKL@norwegian?$AA@ 1008ac40     LIBCMT:getqloc.obj
 0002:0000cc4c       ??_C@_0O@BEAN@italian?9swiss?$AA@ 1008ac4c     LIBCMT:getqloc.obj
 0002:0000cc5c       ??_C@_0O@OIFK@irish?9english?$AA@ 1008ac5c     LIBCMT:getqloc.obj
 0002:0000cc6c       ??_C@_0N@NBPL@german?9swiss?$AA@ 1008ac6c     LIBCMT:getqloc.obj
 0002:0000cc7c       ??_C@_0BC@ICFJ@german?9luxembourg?$AA@ 1008ac7c     LIBCMT:getqloc.obj
 0002:0000cc90       ??_C@_0BE@GGPC@german?9lichtenstein?$AA@ 1008ac90     LIBCMT:getqloc.obj
 0002:0000cca4       ??_C@_0BA@MKDC@german?9austrian?$AA@ 1008aca4     LIBCMT:getqloc.obj
 0002:0000ccb4       ??_C@_0N@ODNB@french?9swiss?$AA@ 1008acb4     LIBCMT:getqloc.obj
 0002:0000ccc4       ??_C@_0BC@MGCM@french?9luxembourg?$AA@ 1008acc4     LIBCMT:getqloc.obj
 0002:0000ccd8       ??_C@_0BA@NABK@french?9canadian?$AA@ 1008acd8     LIBCMT:getqloc.obj
 0002:0000cce8       ??_C@_0P@CJNO@french?9belgian?$AA@ 1008ace8     LIBCMT:getqloc.obj
 0002:0000ccf8       ??_C@_0M@LJOL@english?9usa?$AA@ 1008acf8     LIBCMT:getqloc.obj
 0002:0000cd04       ??_C@_0L@FMNC@english?9us?$AA@ 1008ad04     LIBCMT:getqloc.obj
 0002:0000cd10       ??_C@_0L@KBBK@english?9uk?$AA@ 1008ad10     LIBCMT:getqloc.obj
 0002:0000cd1c       ??_C@_0BK@NDDE@english?9trinidad?5y?5tobago?$AA@ 1008ad1c     LIBCMT:getqloc.obj
 0002:0000cd38       ??_C@_0BF@LKML@english?9south?5africa?$AA@ 1008ad38     LIBCMT:getqloc.obj
 0002:0000cd50       ??_C@_0L@EGPP@english?9nz?$AA@ 1008ad50     LIBCMT:getqloc.obj
 0002:0000cd5c       ??_C@_0BA@HLH@english?9jamaica?$AA@ 1008ad5c     LIBCMT:getqloc.obj
 0002:0000cd6c       ??_C@_0M@PMJI@english?9ire?$AA@ 1008ad6c     LIBCMT:getqloc.obj
 0002:0000cd78       ??_C@_0BC@HINE@english?9caribbean?$AA@ 1008ad78     LIBCMT:getqloc.obj
 0002:0000cd8c       ??_C@_0M@DCFH@english?9can?$AA@ 1008ad8c     LIBCMT:getqloc.obj
 0002:0000cd98       ??_C@_0P@DGHK@english?9belize?$AA@ 1008ad98     LIBCMT:getqloc.obj
 0002:0000cda8       ??_C@_0M@FLHK@english?9aus?$AA@ 1008ada8     LIBCMT:getqloc.obj
 0002:0000cdb4       ??_C@_0BB@HNCK@english?9american?$AA@ 1008adb4     LIBCMT:getqloc.obj
 0002:0000cdc8       ??_C@_0O@PAMI@dutch?9belgian?$AA@ 1008adc8     LIBCMT:getqloc.obj
 0002:0000cdd8       ??_C@_0BE@FPEJ@chinese?9traditional?$AA@ 1008add8     LIBCMT:getqloc.obj
 0002:0000cdec       ??_C@_0BC@CHFL@chinese?9singapore?$AA@ 1008adec     LIBCMT:getqloc.obj
 0002:0000ce00       ??_C@_0BD@DCMH@chinese?9simplified?$AA@ 1008ae00     LIBCMT:getqloc.obj
 0002:0000ce14       ??_C@_0BB@JMOE@chinese?9hongkong?$AA@ 1008ae14     LIBCMT:getqloc.obj
 0002:0000ce28       ??_C@_07NGFN@chinese?$AA@  1008ae28     LIBCMT:getqloc.obj
 0002:0000ce30       ??_C@_03PCOI@chi?$AA@      1008ae30     LIBCMT:getqloc.obj
 0002:0000ce34       ??_C@_03FIHP@chh?$AA@      1008ae34     LIBCMT:getqloc.obj
 0002:0000ce38       ??_C@_08HFLO@canadian?$AA@ 1008ae38     LIBCMT:getqloc.obj
 0002:0000ce44       ??_C@_07INIJ@belgian?$AA@  1008ae44     LIBCMT:getqloc.obj
 0002:0000ce4c       ??_C@_0L@LCCA@australian?$AA@ 1008ae4c     LIBCMT:getqloc.obj
 0002:0000ce58       ??_C@_0BB@BJIO@american?9english?$AA@ 1008ae58     LIBCMT:getqloc.obj
 0002:0000ce6c       ??_C@_0BB@DAGO@american?5english?$AA@ 1008ae6c     LIBCMT:getqloc.obj
 0002:0000ce80       ??_C@_08HENB@american?$AA@ 1008ae80     LIBCMT:getqloc.obj
 0002:0000ce8c       ??_C@_03DGJE@OCP?$AA@      1008ae8c     LIBCMT:getqloc.obj
 0002:0000ce90       ??_C@_03EKFG@ACP?$AA@      1008ae90     LIBCMT:getqloc.obj
 0002:0000ce94       ??_C@_0BD@NJFP@GetLastActivePopup?$AA@ 1008ae94     LIBCMT:crtmbox.obj
 0002:0000cea8       ??_C@_0BA@GILI@GetActiveWindow?$AA@ 1008aea8     LIBCMT:crtmbox.obj
 0002:0000ceb8       ??_C@_0M@PKCK@MessageBoxA?$AA@ 1008aeb8     LIBCMT:crtmbox.obj
 0002:0000cec4       ??_C@_0L@HKL@user32?4dll?$AA@ 1008aec4     LIBCMT:crtmbox.obj
 0002:0000ced0       ??_C@_06PAPI@1?$CDQNAN?$AA@ 1008aed0     LIBCMT:x10fout.obj
 0002:0000ced8       ??_C@_05BGNL@1?$CDINF?$AA@ 1008aed8     LIBCMT:x10fout.obj
 0002:0000cee0       ??_C@_05EDPF@1?$CDIND?$AA@ 1008aee0     LIBCMT:x10fout.obj
 0002:0000cee8       ??_C@_06LKFM@1?$CDSNAN?$AA@ 1008aee8     LIBCMT:x10fout.obj
 0002:0000cef0       ??_C@_03GAFO@_yn?$AA@      1008aef0     LIBCMT:fpexcept.obj
 0002:0000cef4       ??_C@_03GNLD@_y1?$AA@      1008aef4     LIBCMT:fpexcept.obj
 0002:0000cef8       ??_C@_03MHCE@_y0?$AA@      1008aef8     LIBCMT:fpexcept.obj
 0002:0000cefc       ??_C@_05PAK@frexp?$AA@     1008aefc     LIBCMT:fpexcept.obj
 0002:0000cf04       ??_C@_04JKCH@fmod?$AA@     1008af04     LIBCMT:fpexcept.obj
 0002:0000cf0c       ??_C@_06GGHF@_hypot?$AA@   1008af0c     LIBCMT:fpexcept.obj
 0002:0000cf14       ??_C@_05JNMC@_cabs?$AA@    1008af14     LIBCMT:fpexcept.obj
 0002:0000cf1c       ??_C@_05MEKH@ldexp?$AA@    1008af1c     LIBCMT:fpexcept.obj
 0002:0000cf24       ??_C@_04KAOJ@modf?$AA@     1008af24     LIBCMT:fpexcept.obj
 0002:0000cf2c       ??_C@_04EHAJ@fabs?$AA@     1008af2c     LIBCMT:fpexcept.obj
 0002:0000cf34       ??_C@_05MFBN@floor?$AA@    1008af34     LIBCMT:fpexcept.obj
 0002:0000cf3c       ??_C@_04JJMP@ceil?$AA@     1008af3c     LIBCMT:fpexcept.obj
 0002:0000cf44       ??_C@_03JLPI@tan?$AA@      1008af44     LIBCMT:fpexcept.obj
 0002:0000cf48       ??_C@_03DLFL@cos?$AA@      1008af48     LIBCMT:fpexcept.obj
 0002:0000cf4c       ??_C@_03JAMN@sin?$AA@      1008af4c     LIBCMT:fpexcept.obj
 0002:0000cf50       ??_C@_04LMBE@sqrt?$AA@     1008af50     LIBCMT:fpexcept.obj
 0002:0000cf58       ??_C@_05BFPO@atan2?$AA@    1008af58     LIBCMT:fpexcept.obj
 0002:0000cf60       ??_C@_04EAGN@atan?$AA@     1008af60     LIBCMT:fpexcept.obj
 0002:0000cf68       ??_C@_04OAMO@acos?$AA@     1008af68     LIBCMT:fpexcept.obj
 0002:0000cf70       ??_C@_04ELFI@asin?$AA@     1008af70     LIBCMT:fpexcept.obj
 0002:0000cf78       ??_C@_04LFAD@tanh?$AA@     1008af78     LIBCMT:fpexcept.obj
 0002:0000cf80       ??_C@_04PFKD@cosh?$AA@     1008af80     LIBCMT:fpexcept.obj
 0002:0000cf88       ??_C@_04NPAI@sinh?$AA@     1008af88     LIBCMT:fpexcept.obj
 0002:0000cf90       ??_C@_05IJHH@log10?$AA@    1008af90     LIBCMT:fpexcept.obj
 0002:0000cf98       ??_C@_03BGKD@log?$AA@      1008af98     LIBCMT:fpexcept.obj
 0002:0000cf9c       ??_C@_03EGFG@pow?$AA@      1008af9c     LIBCMT:fpexcept.obj
 0002:0000cfa0       ??_C@_03CDGJ@exp?$AA@      1008afa0     LIBCMT:fpexcept.obj
 0002:0000cfa4       ??_C@_07CJME@H?3mm?3ss?$AA@ 1008afa4     LIBCMT:strftime.obj
 0002:0000cfac       ??_C@_0BE@MHI@dddd?0?5MMMM?5dd?0?5yyyy?$AA@ 1008afac     LIBCMT:strftime.obj
 0002:0000cfc0       ??_C@_06HCAD@M?1d?1yy?$AA@ 1008afc0     LIBCMT:strftime.obj
 0002:0000cfc8       ??_C@_02DBLP@PM?$AA@       1008afc8     LIBCMT:strftime.obj
 0002:0000cfcc       ??_C@_02ENLM@AM?$AA@       1008afcc     LIBCMT:strftime.obj
 0002:0000cfd0       ??_C@_08LIDF@December?$AA@ 1008afd0     LIBCMT:strftime.obj
 0002:0000cfdc       ??_C@_08NJLI@November?$AA@ 1008afdc     LIBCMT:strftime.obj
 0002:0000cfe8       ??_C@_07IAMM@October?$AA@  1008afe8     LIBCMT:strftime.obj
 0002:0000cff0       ??_C@_09MKGD@September?$AA@ 1008aff0     LIBCMT:strftime.obj
 0002:0000cffc       ??_C@_06PADP@August?$AA@   1008affc     LIBCMT:strftime.obj
 0002:0000d004       ??_C@_04PIJO@July?$AA@     1008b004     LIBCMT:strftime.obj
 0002:0000d00c       ??_C@_04ICFP@June?$AA@     1008b00c     LIBCMT:strftime.obj
 0002:0000d014       ??_C@_05JFGC@April?$AA@    1008b014     LIBCMT:strftime.obj
 0002:0000d01c       ??_C@_05FGPD@March?$AA@    1008b01c     LIBCMT:strftime.obj
 0002:0000d024       ??_C@_08PGBA@February?$AA@ 1008b024     LIBCMT:strftime.obj
 0002:0000d030       ??_C@_07BPKJ@January?$AA@  1008b030     LIBCMT:strftime.obj
 0002:0000d038       ??_C@_03PGJO@Dec?$AA@      1008b038     LIBCMT:strftime.obj
 0002:0000d03c       ??_C@_03PDLM@Nov?$AA@      1008b03c     LIBCMT:strftime.obj
 0002:0000d040       ??_C@_03BLHK@Oct?$AA@      1008b040     LIBCMT:strftime.obj
 0002:0000d044       ??_C@_03DPFM@Sep?$AA@      1008b044     LIBCMT:strftime.obj
 0002:0000d048       ??_C@_03CMCH@Aug?$AA@      1008b048     LIBCMT:strftime.obj
 0002:0000d04c       ??_C@_03OBKI@Jul?$AA@      1008b04c     LIBCMT:strftime.obj
 0002:0000d050       ??_C@_03LEIG@Jun?$AA@      1008b050     LIBCMT:strftime.obj
 0002:0000d054       ??_C@_03MGHB@May?$AA@      1008b054     LIBCMT:strftime.obj
 0002:0000d058       ??_C@_03MJJM@Apr?$AA@      1008b058     LIBCMT:strftime.obj
 0002:0000d05c       ??_C@_03GNHA@Mar?$AA@      1008b05c     LIBCMT:strftime.obj
 0002:0000d060       ??_C@_03PICE@Feb?$AA@      1008b060     LIBCMT:strftime.obj
 0002:0000d064       ??_C@_03IEIF@Jan?$AA@      1008b064     LIBCMT:strftime.obj
 0002:0000d068       ??_C@_08FAKH@Saturday?$AA@ 1008b068     LIBCMT:strftime.obj
 0002:0000d074       ??_C@_06ONCK@Friday?$AA@   1008b074     LIBCMT:strftime.obj
 0002:0000d07c       ??_C@_08CCFO@Thursday?$AA@ 1008b07c     LIBCMT:strftime.obj
 0002:0000d088       ??_C@_09PBIN@Wednesday?$AA@ 1008b088     LIBCMT:strftime.obj
 0002:0000d094       ??_C@_07BMBC@Tuesday?$AA@  1008b094     LIBCMT:strftime.obj
 0002:0000d09c       ??_C@_06CHLK@Monday?$AA@   1008b09c     LIBCMT:strftime.obj
 0002:0000d0a4       ??_C@_06OOEM@Sunday?$AA@   1008b0a4     LIBCMT:strftime.obj
 0002:0000d0ac       ??_C@_03MPKK@Sat?$AA@      1008b0ac     LIBCMT:strftime.obj
 0002:0000d0b0       ??_C@_03FINJ@Fri?$AA@      1008b0b0     LIBCMT:strftime.obj
 0002:0000d0b4       ??_C@_03HIKC@Thu?$AA@      1008b0b4     LIBCMT:strftime.obj
 0002:0000d0b8       ??_C@_03HECK@Wed?$AA@      1008b0b8     LIBCMT:strftime.obj
 0002:0000d0bc       ??_C@_03ECCP@Tue?$AA@      1008b0bc     LIBCMT:strftime.obj
 0002:0000d0c0       ??_C@_03PIEP@Mon?$AA@      1008b0c0     LIBCMT:strftime.obj
 0002:0000d0c4       ??_C@_03FHEP@Sun?$AA@      1008b0c4     LIBCMT:strftime.obj
 0002:0000d0c8       ??_C@_03MKGK@a?1p?$AA@     1008b0c8     LIBCMT:strftime.obj
 0002:0000d0cc       ??_C@_05BDJK@am?1pm?$AA@   1008b0cc     LIBCMT:strftime.obj
 0002:0000d128       ??_R1A@?0A@A@type_info@@8  1008b128     LIBCMT:typinfo.obj
 0002:0000d140       ??_R2type_info@@8          1008b140     LIBCMT:typinfo.obj
 0002:0000d148       ??_R3type_info@@8          1008b148     LIBCMT:typinfo.obj
 0002:0000d158       ??_R4type_info@@6B@        1008b158     LIBCMT:typinfo.obj
 0002:0000dec0       __IMPORT_DESCRIPTOR_KERNEL32 1008bec0     kernel32:KERNEL32.dll
 0002:0000ded4       __IMPORT_DESCRIPTOR_USER32 1008bed4     user32:USER32.dll
 0002:0000dee8       __IMPORT_DESCRIPTOR_WINMM  1008bee8     winmm:WINMM.dll
 0002:0000defc       __IMPORT_DESCRIPTOR_vgui   1008befc     vgui:vgui.dll
 0002:0000df10       __IMPORT_DESCRIPTOR_WSOCK32 1008bf10     wsock32:WSOCK32.dll
 0002:0000df24       __NULL_IMPORT_DESCRIPTOR   1008bf24     kernel32:KERNEL32.dll
 0003:00000000       ___xc_a                    1009a000     LIBCMT:crt0init.obj
 0003:000000dc       ___xc_z                    1009a0dc     LIBCMT:crt0init.obj
 0003:000000e0       ___xi_a                    1009a0e0     LIBCMT:crt0init.obj
 0003:000000f4       ___xi_z                    1009a0f4     LIBCMT:crt0init.obj
 0003:000000f8       ___xp_a                    1009a0f8     LIBCMT:crt0init.obj
 0003:00000100       ___xp_z                    1009a100     LIBCMT:crt0init.obj
 0003:00000104       ___xt_a                    1009a104     LIBCMT:crt0init.obj
 0003:0000010c       ___xt_z                    1009a10c     LIBCMT:crt0init.obj
 0003:00000110       ?g_fireAnims1@@3PAHA       1009a110     ev_hldm.obj
 0003:00000120       ?g_fireAnims2@@3PAHA       1009a120     ev_hldm.obj
 0003:00000124       ??_C@_0BE@NADP@player?1pl_step2?4wav?$AA@ 1009a124     ev_hldm.obj
 0003:00000138       ??_C@_0BE@DAFA@player?1pl_step1?4wav?$AA@ 1009a138     ev_hldm.obj
 0003:0000014c       ??_C@_0BI@HLHD@weapons?1bullet_hit2?4wav?$AA@ 1009a14c     ev_hldm.obj
 0003:00000164       ??_C@_0BI@JLBM@weapons?1bullet_hit1?4wav?$AA@ 1009a164     ev_hldm.obj
 0003:0000017c       ??_C@_0BC@NODO@debris?1glass3?4wav?$AA@ 1009a17c     ev_hldm.obj
 0003:00000190       ??_C@_0BC@HOBL@debris?1glass2?4wav?$AA@ 1009a190     ev_hldm.obj
 0003:000001a4       ??_C@_0BC@JOHE@debris?1glass1?4wav?$AA@ 1009a1a4     ev_hldm.obj
 0003:000001b8       ??_C@_0BB@IAOM@debris?1wood3?4wav?$AA@ 1009a1b8     ev_hldm.obj
 0003:000001cc       ??_C@_0BB@CAMJ@debris?1wood2?4wav?$AA@ 1009a1cc     ev_hldm.obj
 0003:000001e0       ??_C@_0BB@MAKG@debris?1wood1?4wav?$AA@ 1009a1e0     ev_hldm.obj
 0003:000001f4       ??_C@_0BF@BKFO@player?1pl_slosh4?4wav?$AA@ 1009a1f4     ev_hldm.obj
 0003:0000020c       ??_C@_0BF@NKIB@player?1pl_slosh2?4wav?$AA@ 1009a20c     ev_hldm.obj
 0003:00000224       ??_C@_0BF@HKKE@player?1pl_slosh3?4wav?$AA@ 1009a224     ev_hldm.obj
 0003:0000023c       ??_C@_0BF@DKOO@player?1pl_slosh1?4wav?$AA@ 1009a23c     ev_hldm.obj
 0003:00000254       ??_C@_0BE@DHAL@player?1pl_tile4?4wav?$AA@ 1009a254     ev_hldm.obj
 0003:00000268       ??_C@_0BE@PHNE@player?1pl_tile2?4wav?$AA@ 1009a268     ev_hldm.obj
 0003:0000027c       ??_C@_0BE@FHPB@player?1pl_tile3?4wav?$AA@ 1009a27c     ev_hldm.obj
 0003:00000290       ??_C@_0BE@BHLL@player?1pl_tile1?4wav?$AA@ 1009a290     ev_hldm.obj
 0003:000002a4       ??_C@_0BF@DEFK@player?1pl_grate4?4wav?$AA@ 1009a2a4     ev_hldm.obj
 0003:000002bc       ??_C@_0BF@BEOK@player?1pl_grate1?4wav?$AA@ 1009a2bc     ev_hldm.obj
 0003:000002d4       ??_C@_0BE@KCPJ@player?1pl_duct1?4wav?$AA@ 1009a2d4     ev_hldm.obj
 0003:000002e8       ??_C@_0BE@MGFL@player?1pl_dirt3?4wav?$AA@ 1009a2e8     ev_hldm.obj
 0003:000002fc       ??_C@_0BE@GGHO@player?1pl_dirt2?4wav?$AA@ 1009a2fc     ev_hldm.obj
 0003:00000310       ??_C@_0BE@IGBB@player?1pl_dirt1?4wav?$AA@ 1009a310     ev_hldm.obj
 0003:00000324       ??_C@_0BF@FBCM@player?1pl_metal2?4wav?$AA@ 1009a324     ev_hldm.obj
 0003:0000033c       ??_C@_0BF@LBED@player?1pl_metal1?4wav?$AA@ 1009a33c     ev_hldm.obj
 0003:00000354       ??_C@_07LNFF@?$HLshot?$CFi?$AA@ 1009a354     ev_hldm.obj
 0003:0000035c       ??_C@_08GIMN@?$HLbproof1?$AA@ 1009a35c     ev_hldm.obj
 0003:00000368       ??_C@_08FFFG@?$HLbreak?$CFi?$AA@ 1009a368     ev_hldm.obj
 0003:00000374       ??_C@_04MMCA@shot?$AA@     1009a374     ev_hldm.obj
 0003:0000037c       ??_C@_08HPMP@r_decals?$AA@ 1009a37c     ev_hldm.obj
 0003:00000388       ??_C@_0BB@OBEK@weapons?1ric5?4wav?$AA@ 1009a388     ev_hldm.obj
 0003:0000039c       ??_C@_0BB@EBGP@weapons?1ric4?4wav?$AA@ 1009a39c     ev_hldm.obj
 0003:000003b0       ??_C@_0BB@CBJF@weapons?1ric3?4wav?$AA@ 1009a3b0     ev_hldm.obj
 0003:000003c4       ??_C@_0BB@IBLA@weapons?1ric2?4wav?$AA@ 1009a3c4     ev_hldm.obj
 0003:000003d8       ??_C@_0BB@GBNP@weapons?1ric1?4wav?$AA@ 1009a3d8     ev_hldm.obj
 0003:000003ec       ??_C@_0BE@OJCM@weapons?1pl_gun3?4wav?$AA@ 1009a3ec     ev_hldm.obj
 0003:00000400       ??_C@_0BB@GKKK@models?1shell?4mdl?$AA@ 1009a400     ev_hldm.obj
 0003:00000414       ??_C@_0BF@BJDN@weapons?1dbarrel1?4wav?$AA@ 1009a414     ev_hldm.obj
 0003:0000042c       ??_C@_0BI@MEKG@models?1shotgunshell?4mdl?$AA@ 1009a42c     ev_hldm.obj
 0003:00000444       ??_C@_0BF@NCAO@weapons?1spas12?91?4wav?$AA@ 1009a444     ev_hldm.obj
 0003:0000045c       ??_C@_0BF@DCGB@weapons?1spas12?92?4wav?$AA@ 1009a45c     ev_hldm.obj
 0003:00000474       ??_C@_0BI@PLEI@models?1spas12_shell?4mdl?$AA@ 1009a474     ev_hldm.obj
 0003:0000048c       ??_C@_0BG@NKIB@weapons?1357_shot1?4wav?$AA@ 1009a48c     ev_hldm.obj
 0003:000004a4       ??_C@_0BG@DKOO@weapons?1357_shot2?4wav?$AA@ 1009a4a4     ev_hldm.obj
 0003:000004bc       ??_C@_0BK@OKCJ@ambience?1pulsemachine?4wav?$AA@ 1009a4bc     ev_hldm.obj
 0003:000004d8       ??_C@_0BE@BPBK@events?1gaussspin?4sc?$AA@ 1009a4d8     ev_hldm.obj
 0003:000004ec       ??_C@_0BD@LMIF@weapons?1gauss2?4wav?$AA@ 1009a4ec     ev_hldm.obj
 0003:00000500       ??_C@_0BE@LLFP@sprites?1hotglow?4spr?$AA@ 1009a500     ev_hldm.obj
 0003:00000514       ??_C@_0BC@PKLD@sprites?1smoke?4spr?$AA@ 1009a514     ev_hldm.obj
 0003:00000528       ??_C@_0BH@LHCM@weapons?1cbar_miss1?4wav?$AA@ 1009a528     ev_hldm.obj
 0003:00000540       ??_C@_0BJ@JNCP@models?1crossbow_bolt?4mdl?$AA@ 1009a540     ev_hldm.obj
 0003:0000055c       ??_C@_0BG@DAIM@weapons?1xbow_hit1?4wav?$AA@ 1009a55c     ev_hldm.obj
 0003:00000574       ??_C@_0BJ@BHDC@weapons?1xbow_hitbod1?4wav?$AA@ 1009a574     ev_hldm.obj
 0003:00000590       ??_C@_0BJ@PHFN@weapons?1xbow_hitbod2?4wav?$AA@ 1009a590     ev_hldm.obj
 0003:000005ac       ??_C@_0BJ@PDEH@weapons?1xbow_reload1?4wav?$AA@ 1009a5ac     ev_hldm.obj
 0003:000005c8       ??_C@_0BH@EOBH@weapons?1xbow_fire1?4wav?$AA@ 1009a5c8     ev_hldm.obj
 0003:000005e0       ??_C@_0BG@BCAJ@weapons?1glauncher?4wav?$AA@ 1009a5e0     ev_hldm.obj
 0003:000005f8       ??_C@_0BI@BOJG@weapons?1rocketfire1?4wav?$AA@ 1009a5f8     ev_hldm.obj
 0003:00000610       ??_C@_0BD@DIAC@sprites?1xbeam1?4spr?$AA@ 1009a610     ev_hldm.obj
 0003:00000624       ??_C@_0BG@IGDL@weapons?1egon_run3?4wav?$AA@ 1009a624     ev_hldm.obj
 0003:0000063c       ??_C@_0BJ@OAJA@weapons?1egon_windup2?4wav?$AA@ 1009a63c     ev_hldm.obj
 0003:00000658       ??_C@_0BG@FKJN@weapons?1egon_off1?4wav?$AA@ 1009a658     ev_hldm.obj
 0003:00000670       ??_C@_0BE@NPBM@agrunt?1ag_fire1?4wav?$AA@ 1009a670     ev_hldm.obj
 0003:00000684       ??_C@_0BE@DPHD@agrunt?1ag_fire2?4wav?$AA@ 1009a684     ev_hldm.obj
 0003:00000698       ??_C@_0BE@JPFG@agrunt?1ag_fire3?4wav?$AA@ 1009a698     ev_hldm.obj
 0003:000006ac       ??_C@_0BC@GFHD@plats?1ttrain7?4wav?$AA@ 1009a6ac     ev_hldm.obj
 0003:000006c0       ??_C@_0BC@MFFG@plats?1ttrain6?4wav?$AA@ 1009a6c0     ev_hldm.obj
 0003:000006d4       ??_C@_0BC@IFBM@plats?1ttrain4?4wav?$AA@ 1009a6d4     ev_hldm.obj
 0003:000006e8       ??_C@_0BC@OFOG@plats?1ttrain3?4wav?$AA@ 1009a6e8     ev_hldm.obj
 0003:000006fc       ??_C@_0BC@EFMD@plats?1ttrain2?4wav?$AA@ 1009a6fc     ev_hldm.obj
 0003:00000710       ??_C@_0BC@KFKM@plats?1ttrain1?4wav?$AA@ 1009a710     ev_hldm.obj
 0003:00000724       ??_C@_0BG@PKED@weapons?1aks_fire1?4wav?$AA@ 1009a724     ev_hldm.obj
 0003:0000073c       ??_C@_0BG@BKCM@weapons?1aks_fire2?4wav?$AA@ 1009a73c     ev_hldm.obj
 0003:00000754       ??_C@_0BG@LKAJ@weapons?1aks_fire3?4wav?$AA@ 1009a754     ev_hldm.obj
 0003:0000076c       ??_C@_0BF@JKBG@models?1aks_shell?4mdl?$AA@ 1009a76c     ev_hldm.obj
 0003:00000784       ??_C@_0BF@KAON@weapons?1aps_fire?4wav?$AA@ 1009a784     ev_hldm.obj
 0003:0000079c       ??_C@_0BF@JNNF@models?1aps_shell?4mdl?$AA@ 1009a79c     ev_hldm.obj
 0003:000007b4       ??_C@_0BG@IHDA@weapons?1val_fire1?4wav?$AA@ 1009a7b4     ev_hldm.obj
 0003:000007cc       ??_C@_0BG@GHFP@weapons?1val_fire2?4wav?$AA@ 1009a7cc     ev_hldm.obj
 0003:000007e4       ??_C@_0BG@MHHK@weapons?1val_fire3?4wav?$AA@ 1009a7e4     ev_hldm.obj
 0003:000007fc       ??_C@_0BF@OHGF@models?1val_shell?4mdl?$AA@ 1009a7fc     ev_hldm.obj
 0003:00000814       ??_C@_0BG@OEGK@weapons?1rpk_fire1?4wav?$AA@ 1009a814     ev_hldm.obj
 0003:0000082c       ??_C@_0BG@EAF@weapons?1rpk_fire2?4wav?$AA@ 1009a82c     ev_hldm.obj
 0003:00000844       ??_C@_0BG@KECA@weapons?1rpk_fire3?4wav?$AA@ 1009a844     ev_hldm.obj
 0003:0000085c       ??_C@_0BF@IEDP@models?1rpk_shell?4mdl?$AA@ 1009a85c     ev_hldm.obj
 0003:00000874       ??_C@_0BB@DFDG@weapons?1hks1?4wav?$AA@ 1009a874     ev_hldm.obj
 0003:00000888       ??_C@_0BB@NFFJ@weapons?1hks2?4wav?$AA@ 1009a888     ev_hldm.obj
 0003:0000089c       ??_C@_0BH@OIFN@weapons?1glauncher2?4wav?$AA@ 1009a89c     ev_hldm.obj
 0003:000008b4       ??_C@_0BF@IPNN@models?1mp5_shell?4mdl?$AA@ 1009a8b4     ev_hldm.obj
 0003:000008cc       ??_C@_0BH@GEOG@weapons?1ak74_fire1?4wav?$AA@ 1009a8cc     ev_hldm.obj
 0003:000008e4       ??_C@_0BH@IEIJ@weapons?1ak74_fire2?4wav?$AA@ 1009a8e4     ev_hldm.obj
 0003:000008fc       ??_C@_0BG@DKLK@models?1ak74_shell?4mdl?$AA@ 1009a8fc     ev_hldm.obj
 0003:00000914       ??_C@_0BI@BLID@weapons?1groza_fire1?4wav?$AA@ 1009a914     ev_hldm.obj
 0003:0000092c       ??_C@_0BI@PLOM@weapons?1groza_fire2?4wav?$AA@ 1009a92c     ev_hldm.obj
 0003:00000944       ??_C@_0BI@FLMJ@weapons?1groza_fire3?4wav?$AA@ 1009a944     ev_hldm.obj
 0003:0000095c       ??_C@_0BH@EEOB@models?1groza_shell?4mdl?$AA@ 1009a95c     ev_hldm.obj
 0003:00000974       ??_C@_0BH@KOBE@weapons?1glock_fire?4wav?$AA@ 1009a974     ev_hldm.obj
 0003:0000098c       ??_C@_0BH@NPOM@models?1glock_shell?4mdl?$AA@ 1009a98c     ev_hldm.obj
 0003:000009a4       ??_C@_0BE@OKPI@events?1smokepuff?4sc?$AA@ 1009a9a4     hl_events.obj
 0003:000009b8       ??_C@_0BA@OJLM@events?1groza?4sc?$AA@ 1009a9b8     hl_events.obj
 0003:000009c8       ??_C@_0P@DAJK@events?1ak74?4sc?$AA@ 1009a9c8     hl_events.obj
 0003:000009d8       ??_C@_0O@DPBO@events?1rpk?4sc?$AA@ 1009a9d8     hl_events.obj
 0003:000009e8       ??_C@_0O@DBFA@events?1val?4sc?$AA@ 1009a9e8     hl_events.obj
 0003:000009f8       ??_C@_0O@KEEN@events?1aps?4sc?$AA@ 1009a9f8     hl_events.obj
 0003:00000a08       ??_C@_0O@EHFN@events?1aks?4sc?$AA@ 1009aa08     hl_events.obj
 0003:00000a18       ??_C@_0BE@MMHN@events?1snarkfire?4sc?$AA@ 1009aa18     hl_events.obj
 0003:00000a2c       ??_C@_0BD@NEPM@events?1tripfire?4sc?$AA@ 1009aa2c     hl_events.obj
 0003:00000a40       ??_C@_0BF@IIL@events?1firehornet?4sc?$AA@ 1009aa40     hl_events.obj
 0003:00000a58       ??_C@_0BE@IJOI@events?1egon_stop?4sc?$AA@ 1009aa58     hl_events.obj
 0003:00000a6c       ??_C@_0BE@GKG@events?1egon_fire?4sc?$AA@ 1009aa6c     hl_events.obj
 0003:00000a80       ??_C@_0O@IAMG@events?1rpg?4sc?$AA@ 1009aa80     hl_events.obj
 0003:00000a90       ??_C@_0BE@HBO@events?1crossbow2?4sc?$AA@ 1009aa90     hl_events.obj
 0003:00000aa4       ??_C@_0BE@GIOI@events?1crossbow1?4sc?$AA@ 1009aaa4     hl_events.obj
 0003:00000ab8       ??_C@_0BC@GLKO@events?1crowbar?4sc?$AA@ 1009aab8     hl_events.obj
 0003:00000acc       ??_C@_0BA@FBPD@events?1train?4sc?$AA@ 1009aacc     hl_events.obj
 0003:00000adc       ??_C@_0BA@BBJB@events?1gauss?4sc?$AA@ 1009aadc     hl_events.obj
 0003:00000aec       ??_C@_0BB@CAOG@events?1python?4sc?$AA@ 1009aaec     hl_events.obj
 0003:00000b00       ??_C@_0O@NEKF@events?1mp5?4sc?$AA@ 1009ab00     hl_events.obj
 0003:00000b10       ??_C@_0BD@IGAN@events?1shotgun2?4sc?$AA@ 1009ab10     hl_events.obj
 0003:00000b24       ??_C@_0BD@OJPL@events?1shotgun1?4sc?$AA@ 1009ab24     hl_events.obj
 0003:00000b38       ??_C@_0BB@GCKA@events?1glock2?4sc?$AA@ 1009ab38     hl_events.obj
 0003:00000b4c       ??_C@_0BB@NFG@events?1glock1?4sc?$AA@ 1009ab4c     hl_events.obj
 0003:00000b60       ??_C@_0BA@PKLD@CreateInterface?$AA@ 1009ab60     interface.obj
 0003:00000b70       ??_C@_0BJ@MDN@gfx?1vgui?1320_arrowrt?4tga?$AA@ 1009ab70     vgui_scrollbar2.obj
 0003:00000b8c       ??_C@_0BJ@IGPO@gfx?1vgui?1320_arrowlt?4tga?$AA@ 1009ab8c     vgui_scrollbar2.obj
 0003:00000ba8       ??_C@_0BH@FEO@gfx?1vgui?1arrowdown?4tga?$AA@ 1009aba8     vgui_scrollbar2.obj
 0003:00000bc0       ??_C@_0BF@CGBN@gfx?1vgui?1arrowup?4tga?$AA@ 1009abc0     vgui_scrollbar2.obj
 0003:00000bd8       ?g_pBanMgrFilename@@3PBDB  1009abd8     voice_banmgr.obj
 0003:00000bdc       ??_C@_0N@LNO@voice_ban?4dt?$AA@ 1009abdc     voice_banmgr.obj
 0003:00000bec       ??_C@_02JKAF@rb?$AA@       1009abec     voice_banmgr.obj
 0003:00000bf0       ??_C@_05LELA@?$CFs?1?$CFs?$AA@ 1009abf0     voice_banmgr.obj
 0003:00000bf8       ??_C@_02NGAF@wb?$AA@       1009abf8     voice_banmgr.obj
 0003:00000bfc       ??_C@_0DK@GGHL@Ban?5?$CFd?3?5?$CF2x?$CF2x?$CF2x?$CF2x?$CF2x?$CF2x?$CF2x?$CF2x@ 1009abfc     voice_status.obj
 0003:00000c38       ??_C@_0CA@FBEE@?9?9?9?9?9?9?9?9?9?9?9?9?9?9?9?9?9?9?9?9?9?9?9?9?9?9?9?9?9?9?6?$AA@ 1009ac38     voice_status.obj
 0003:00000c58       ??_C@_0CA@PCLP@?9?9?9?9?9?9?9?5BANNED?5PLAYERS?5?9?9?9?9?9?9?9?6?$AA@ 1009ac58     voice_status.obj
 0003:00000c78       ??_C@_08BBBH@ReqState?$AA@ 1009ac78     voice_status.obj
 0003:00000c84       ??_C@_09MHFC@VoiceMask?$AA@ 1009ac84     voice_status.obj
 0003:00000c90       ??_C@_0BB@BDNP@voice_showbanned?$AA@ 1009ac90     voice_status.obj
 0003:00000ca4       ??_C@_0BC@KOJK@voice_clientdebug?$AA@ 1009aca4     voice_status.obj
 0003:00000cb8       ??_C@_01PLJA@0?$AA@        1009acb8     voice_status.obj
 0003:00000cbc       ??_C@_0BA@OCKO@voice_modenable?$AA@ 1009acbc     voice_status.obj
 0003:00000ccc       ??_C@_01FBAH@1?$AA@        1009accc     voice_status.obj
 0003:00000cd0       ??_C@_0BG@NFOD@sprites?1voiceicon?4spr?$AA@ 1009acd0     voice_status.obj
 0003:00000ce8       ??_C@_0BH@DOLI@scripts?1voicemodel?4txt?$AA@ 1009ace8     voice_status.obj
 0003:00000d00       ??_C@_0BO@HNBJ@gfx?1vgui?1640_voiceblocked?4tga?$AA@ 1009ad00     voice_status.obj
 0003:00000d20       ??_C@_0BM@MPAA@gfx?1vgui?1icntlk_squelch?4tga?$AA@ 1009ad20     voice_status.obj
 0003:00000d3c       ??_C@_0BK@BMBE@gfx?1vgui?1640_speaker4?4tga?$AA@ 1009ad3c     voice_status.obj
 0003:00000d58       ??_C@_0BK@HMOO@gfx?1vgui?1640_speaker3?4tga?$AA@ 1009ad58     voice_status.obj
 0003:00000d74       ??_C@_0BK@NMML@gfx?1vgui?1640_speaker2?4tga?$AA@ 1009ad74     voice_status.obj
 0003:00000d90       ??_C@_0BK@DMKE@gfx?1vgui?1640_speaker1?4tga?$AA@ 1009ad90     voice_status.obj
 0003:00000dac       ??_C@_0BG@JPFP@gfx?1vgui?1speaker4?4tga?$AA@ 1009adac     voice_status.obj
 0003:00000dc4       ??_C@_0BH@NOBJ@gfx?1vgui?1icntlk_sv?4tga?$AA@ 1009adc4     voice_status.obj
 0003:00000ddc       ??_C@_0BH@CDMM@gfx?1vgui?1icntlk_pl?4tga?$AA@ 1009addc     voice_status.obj
 0003:00000df4       ??_C@_05CFGN@?$CFs?5?5?5?$AA@ 1009adf4     voice_status.obj
 0003:00000dfc       ??_C@_0BC@FLDL@voice_modenable?51?$AA@ 1009adfc     voice_status.obj
 0003:00000e10       ??_C@_0DI@PLOA@CVoiceStatus?3?3UpdateSpeakerStatu@ 1009ae10     voice_status.obj
 0003:00000e48       ??_C@_0CM@JIKJ@CVoiceStatus?3?3UpdateServerState?3@ 1009ae48     voice_status.obj
 0003:00000e74       ??_C@_03NBGP@?5?$CFx?$AA@  1009ae74     voice_status.obj
 0003:00000e78       ??_C@_04CCOP@vban?$AA@     1009ae78     voice_status.obj
 0003:00000e80       ??_C@_0CP@OFKI@CVoiceStatus?3?3UpdateServerState?3@ 1009ae80     voice_status.obj
 0003:00000eb0       ??_C@_0O@CNJA@VModEnable?5?$CFd?$AA@ 1009aeb0     voice_status.obj
 0003:00000ec0       ??_C@_0DD@PPM@CVoiceStatus?3?3UpdateServerState?3@ 1009aec0     voice_status.obj
 0003:00000ef4       ??_C@_0CH@EBGF@?5?5?5?5?9?5m_ServerBannedPlayers?$FL?$CFd?$FN?5@ 1009aef4     voice_status.obj
 0003:00000f1c       ??_C@_0CC@ILLI@?5?5?5?5?9?5m_AudiblePlayers?$FL?$CFd?$FN?5?$DN?5?$CFlu@ 1009af1c     voice_status.obj
 0003:00000f40       ??_C@_0CC@KOIE@CVoiceStatus?3?3HandleVoiceMaskMsg@ 1009af40     voice_status.obj
 0003:00000f64       ??_C@_0CB@LPCN@CVoiceStatus?3?3HandleReqStateMsg?6@ 1009af64     voice_status.obj
 0003:00000f88       ??_C@_0EC@GGDA@CVoiceStatus?3?3SetPlayerBlockedSt@ 1009af88     voice_status.obj
 0003:00000fcc       ??_C@_0CM@BFAD@CVoiceStatus?3?3SetPlayerBlockedSt@ 1009afcc     voice_status.obj
 0003:00000ff8       ??_C@_0CM@COPM@CVoiceStatus?3?3SetPlayerBlockedSt@ 1009aff8     voice_status.obj
 0003:00001024       ??_C@_0BC@NNNO@?$CDVoice_Properties?$AA@ 1009b024     voice_vgui_tweakdlg.obj
 0003:00001038       ??_C@_08KKAM@?$CDMenu_OK?$AA@ 1009b038     voice_vgui_tweakdlg.obj
 0003:00001044       ??_C@_0BJ@OKOP@Enable?5Voice?5In?5This?5Mod?$AA@ 1009b044     voice_vgui_tweakdlg.obj
 0003:00001060       ??_C@_0BF@JLGH@gfx?1vgui?1checked?4tga?$AA@ 1009b060     voice_vgui_tweakdlg.obj
 0003:00001078       ??_C@_0BH@GPOC@gfx?1vgui?1unchecked?4tga?$AA@ 1009b078     voice_vgui_tweakdlg.obj
 0003:00001090       ??_C@_0BA@HDMO@?$CDSpeaker_Volume?$AA@ 1009b090     voice_vgui_tweakdlg.obj
 0003:000010a0       ??_C@_0M@JDLM@?$CDMic_Volume?$AA@ 1009b0a0     voice_vgui_tweakdlg.obj
 0003:000010ac       ??_C@_0BC@PBKM@voice_modenable?50?$AA@ 1009b0ac     voice_vgui_tweakdlg.obj
 0003:000010c0       ??_C@_05IBFI@ammo2?$AA@    1009b0c0     ammo.obj
 0003:000010c8       ??_C@_04OGMN@ammo?$AA@     1009b0c8     ammo.obj
 0003:000010d0       ??_C@_08PBPO@weapon_s?$AA@ 1009b0d0     ammo.obj
 0003:000010dc       ??_C@_06IGCP@noammo?$AA@   1009b0dc     ammo.obj
 0003:000010e4       ??_C@_06IJLN@weapon?$AA@   1009b0e4     ammo.obj
 0003:000010ec       ??_C@_0N@CCNA@zoom_autoaim?$AA@ 1009b0ec     ammo.obj
 0003:000010fc       ??_C@_04CKNM@zoom?$AA@     1009b0fc     ammo.obj
 0003:00001104       ??_C@_07FHIC@autoaim?$AA@  1009b104     ammo.obj
 0003:0000110c       ??_C@_0P@DMKA@sprites?1?$CFs?4spr?$AA@ 1009b10c     ammo.obj
 0003:0000111c       ??_C@_09KOO@crosshair?$AA@ 1009b11c     ammo.obj
 0003:00001128       ??_C@_0P@MIOH@sprites?1?$CFs?4txt?$AA@ 1009b128     ammo.obj
 0003:00001138       ??_C@_0P@HMPC@hud_fastswitch?$AA@ 1009b138     ammo.obj
 0003:00001148       ??_C@_0BF@OEEI@hud_drawhistory_time?$AA@ 1009b148     ammo.obj
 0003:00001160       ??_C@_01PLFL@5?$AA@        1009b160     ammo.obj
 0003:00001164       ??_C@_07JFFH@invprev?$AA@  1009b164     ammo.obj
 0003:0000116c       ??_C@_07GMNC@invnext?$AA@  1009b16c     ammo.obj
 0003:00001174       ??_C@_0N@EEJF@cancelselect?$AA@ 1009b174     ammo.obj
 0003:00001184       ??_C@_06GGMJ@slot10?$AA@   1009b184     ammo.obj
 0003:0000118c       ??_C@_05NDL@slot9?$AA@     1009b18c     ammo.obj
 0003:00001194       ??_C@_05KHKM@slot8?$AA@    1009b194     ammo.obj
 0003:0000119c       ??_C@_05KGPB@slot7?$AA@    1009b19c     ammo.obj
 0003:000011a4       ??_C@_05MGG@slot6?$AA@     1009b1a4     ammo.obj
 0003:000011ac       ??_C@_05PDNP@slot5?$AA@    1009b1ac     ammo.obj
 0003:000011b4       ??_C@_05FJEI@slot4?$AA@    1009b1b4     ammo.obj
 0003:000011bc       ??_C@_05MKN@slot3?$AA@     1009b1bc     ammo.obj
 0003:000011c4       ??_C@_05KGDK@slot2?$AA@    1009b1c4     ammo.obj
 0003:000011cc       ??_C@_05FJID@slot1?$AA@    1009b1cc     ammo.obj
 0003:000011d4       ??_C@_05HDEE@AmmoX?$AA@    1009b1d4     ammo.obj
 0003:000011dc       ??_C@_0L@HFOM@HideWeapon?$AA@ 1009b1dc     ammo.obj
 0003:000011e8       ??_C@_0L@KPIL@ItemPickup?$AA@ 1009b1e8     ammo.obj
 0003:000011f4       ??_C@_0L@MCHE@WeapPickup?$AA@ 1009b1f4     ammo.obj
 0003:00001200       ??_C@_0L@DJEN@AmmoPickup?$AA@ 1009b200     ammo.obj
 0003:0000120c       ??_C@_0L@KAL@WeaponList?$AA@ 1009b20c     ammo.obj
 0003:00001218       ??_C@_09MOMN@CurWeapon?$AA@ 1009b218     ammo.obj
 0003:00001224       ??_C@_0DD@BFEH@Error?3?5unknown?5token?5?$CFs?5in?5file?5@ 1009b224     ammo.obj
 0003:00001258       ??_C@_0L@JEOE@RenderMode?$AA@ 1009b258     ammo.obj
 0003:00001264       ??_C@_05PDDA@Speed?$AA@    1009b264     ammo.obj
 0003:0000126c       ??_C@_08MJGN@MaxAlpha?$AA@ 1009b26c     ammo.obj
 0003:00001278       ??_C@_08JKAC@MinAlpha?$AA@ 1009b278     ammo.obj
 0003:00001284       ??_C@_05IINE@Scale?$AA@    1009b284     ammo.obj
 0003:0000128c       ??_C@_06KIPJ@SpaceY?$AA@   1009b28c     ammo.obj
 0003:00001294       ??_C@_06CGO@SpaceX?$AA@    1009b294     ammo.obj
 0003:0000129c       ??_C@_04HDJN@OfsY?$AA@     1009b29c     ammo.obj
 0003:000012a4       ??_C@_04NJAK@OfsX?$AA@     1009b2a4     ammo.obj
 0003:000012ac       ??_C@_0M@BHEJ@NumberSizeY?$AA@ 1009b2ac     ammo.obj
 0003:000012b8       ??_C@_0M@LNNO@NumberSizeX?$AA@ 1009b2b8     ammo.obj
 0003:000012c4       ??_C@_05JIO@SizeY?$AA@     1009b2c4     ammo.obj
 0003:000012cc       ??_C@_05KDBJ@SizeX?$AA@    1009b2cc     ammo.obj
 0003:000012d4       ??_C@_0DH@HFEH@Error?3?5couldn?8t?5load?5menu_settin@ 1009b2d4     ammo.obj
 0003:0000130c       ??_C@_0BC@HGMP@menu_settings?4txt?$AA@ 1009b30c     ammo.obj
 0003:00001320       ??_C@_0L@BAOB@machinegun?$AA@ 1009b320     ammo.obj
 0003:0000132c       ??_C@_09FIEC@selection?$AA@ 1009b32c     ammo.obj
 0003:00001338       ??_C@_07PKCI@bucket1?$AA@  1009b338     ammo.obj
 0003:00001340       ??_C@_0BG@MCNG@common?1wpn_select?4wav?$AA@ 1009b340     ammo.obj
 0003:00001358       ??_C@_0BF@DDKC@common?1wpn_hudon?4wav?$AA@ 1009b358     ammo.obj
 0003:00001370       ??_C@_0BK@MLCN@common?1wpn_moveselect?4wav?$AA@ 1009b370     ammo.obj
 0003:0000138c       ??_C@_03CIHI@?$CB?$CFs?$AA@ 1009b38c     ammo.obj
 0003:00001390       ??_C@_0M@DJAM@handgrenade?$AA@ 1009b390     ammo.obj
 0003:0000139c       ??_C@_0N@CMCN@Hand?5Grenade?$AA@ 1009b39c     ammo.obj
 0003:000013ac       ??_C@_06BGAE@escape?$AA@   1009b3ac     ammo.obj
 0003:000013b4       ??_C@_0BG@BNOJ@common?1wpn_hudoff?4wav?$AA@ 1009b3b4     ammo.obj
 0003:000013cc       ??_C@_0BE@LLGO@sprites?1?$CFd_logo?4spr?$AA@ 1009b3cc     ammo.obj
 0003:000013e0       ??_C@_0M@IGHO@SecAmmoIcon?$AA@ 1009b3e0     ammo_secondary.obj
 0003:000013ec       ??_C@_0L@EJOA@SecAmmoVal?$AA@ 1009b3ec     ammo_secondary.obj
 0003:000013f8       ?HISTORY_DRAW_TIME@@3HA    1009b3f8     ammohistory.obj
 0003:000013fc       ??_C@_07EFDJ@Battery?$AA@  1009b3fc     battery.obj
 0003:00001404       ??_C@_09IOFL@suit_full?$AA@ 1009b404     battery.obj
 0003:00001410       ??_C@_0L@EEFH@suit_empty?$AA@ 1009b410     battery.obj
 0003:00001420       ?g_ColorBlue@@3PAMA        1009b420     death.obj
 0003:0000142c       ?g_ColorRed@@3PAMA         1009b42c     death.obj
 0003:00001438       ?g_ColorGreen@@3PAMA       1009b438     death.obj
 0003:00001444       ?g_ColorYellow@@3PAMA      1009b444     death.obj
 0003:00001450       ?g_ColorGrey@@3PAMA        1009b450     death.obj
 0003:0000145c       ??_C@_0BF@IOKB@hud_deathnotice_time?$AA@ 1009b45c     death.obj
 0003:00001474       ??_C@_01EOC@6?$AA@         1009b474     death.obj
 0003:00001478       ??_C@_08FJPD@DeathMsg?$AA@ 1009b478     death.obj
 0003:00001484       ??_C@_07ILBB@d_skull?$AA@  1009b484     death.obj
 0003:0000148c       ??_C@_0N@NGKH@d_tau?5cannon?$AA@ 1009b48c     death.obj
 0003:0000149c       ??_C@_05MFIA@gauss?$AA@    1009b49c     death.obj
 0003:000014a4       ??_C@_0M@PHFJ@d_gluon?5gun?$AA@ 1009b4a4     death.obj
 0003:000014b0       ??_C@_04MANP@egon?$AA@     1009b4b0     death.obj
 0003:000014b8       ??_C@_06BMFM@?5with?5?$AA@ 1009b4b8     death.obj
 0003:000014c0       ??_C@_08PGGB@?5killed?5?$AA@ 1009b4c0     death.obj
 0003:000014cc       ??_C@_0BG@CIED@?5killed?5his?5teammate?5?$AA@ 1009b4cc     death.obj
 0003:000014e4       ??_C@_0N@JOCK@?5killed?5self?$AA@ 1009b4e4     death.obj
 0003:000014f4       ??_C@_05EHC@?5died?$AA@    1009b4f4     death.obj
 0003:000014fc       ??_C@_07HEBF@d_world?$AA@  1009b4fc     death.obj
 0003:00001504       ??_C@_01BJG@?6?$AA@        1009b504     death.obj
 0003:00001508       ??_C@_0L@NBPB@?5killed?5a?5?$AA@ 1009b508     death.obj
 0003:00001514       ??_C@_0L@LPCL@d_teammate?$AA@ 1009b514     death.obj
 0003:00001520       ??_C@_02CILA@d_?$AA@       1009b520     death.obj
 0003:00001524       ??_C@_0CF@JEKB@Unknown?5demo?5buffer?5type?0?5skippi@ 1009b524     demo.obj
 0003:0000154c       ?g_iAlive@@3HA             1009b54c     entity.obj
 0003:00001550       ??_C@_0CK@BGDK@Cant?5load?5model?5for?5light?5testin@ 1009b550     entity.obj
 0003:0000157c       ??_C@_0DC@BOFH@Cant?5get?5local?5player?5?$CIwow?0?5how?5@ 1009b57c     entity.obj
 0003:000015b0       ??_C@_0P@EHLO@models?1can?4mdl?$AA@ 1009b5b0     entity.obj
 0003:000015c0       ??_C@_0BG@DEPH@sprites?1wsplash_x?4spr?$AA@ 1009b5c0     entity.obj
 0003:000015d8       ?except_info@@3PAUexception_codes_s@@A 1009b5d8     exception.obj
 0003:000016c8       ??_C@_0BP@OEFK@The?5thread?5used?5up?5its?5stack?4?5?$AA@ 1009b6c8     exception.obj
 0003:000016e8       ??_C@_0P@CNKP@STACK?5OVERFLOW?$AA@ 1009b6e8     exception.obj
 0003:000016f8       ??_C@_0GF@DNAN@A?5trace?5trap?5or?5other?5single?9ins@ 1009b6f8     exception.obj
 0003:00001760       ??_C@_0M@GHIF@SINGLE?5STEP?$AA@ 1009b760     exception.obj
 0003:0000176c       ??_C@_0GI@MOKP@The?5thread?5tried?5to?5execute?5an?5i@ 1009b76c     exception.obj
 0003:000017d4       ??_C@_0BB@IKCC@PRIV?5INSTRUCTION?$AA@ 1009b7d4     exception.obj
 0003:000017e8       ??_C@_0FD@FNOC@The?5thread?5tried?5to?5continue?5exe@ 1009b7e8     exception.obj
 0003:0000183c       ??_C@_0BJ@DPOK@NONCONTINUABLE?5EXCEPTION?$AA@ 1009b83c     exception.obj
 0003:00001858       ??_C@_0KM@NEDB@An?5exception?5handler?5returned?5an@ 1009b858     exception.obj
 0003:00001904       ??_C@_0BE@EKFI@INVALID?5DISPOSITION?$AA@ 1009b904     exception.obj
 0003:00001918       ??_C@_0GC@DAMP@The?5result?5of?5an?5integer?5operati@ 1009b918     exception.obj
 0003:0000197c       ??_C@_0N@ICOB@INT?5OVERFLOW?$AA@ 1009b97c     exception.obj
 0003:0000198c       ??_C@_0EM@EPKF@The?5thread?5tried?5to?5divide?5an?5in@ 1009b98c     exception.obj
 0003:000019d8       ??_C@_0BD@PKKN@INT?5DIVIDE?5BY?5ZERO?$AA@ 1009b9d8     exception.obj
 0003:000019ec       ??_C@_0NH@DHMK@The?5thread?5tried?5to?5access?5a?5pag@ 1009b9ec     exception.obj
 0003:00001ac4       ??_C@_0O@MGAN@IN?5PAGE?5ERROR?$AA@ 1009bac4     exception.obj
 0003:00001ad4       ??_C@_0DF@DBFA@The?5thread?5tried?5to?5execute?5an?5i@ 1009bad4     exception.obj
 0003:00001b0c       ??_C@_0BE@JIEC@ILLEGAL?5INSTRUCTION?$AA@ 1009bb0c     exception.obj
 0003:00001b20       ??_C@_0GK@BHGM@The?5exponent?5of?5a?5floating?9point@ 1009bb20     exception.obj
 0003:00001b8c       ??_C@_0O@MOGH@FLT?5UNDERFLOW?$AA@ 1009bb8c     exception.obj
 0003:00001b9c       ??_C@_0FC@GIFK@The?5stack?5overflowed?5or?5underflo@ 1009bb9c     exception.obj
 0003:00001bf0       ??_C@_0BA@JI@FLT?5STACK?5CHECK?$AA@ 1009bbf0     exception.obj
 0003:00001c00       ??_C@_0GN@JLHO@The?5exponent?5of?5a?5floating?9point@ 1009bc00     exception.obj
 0003:00001c70       ??_C@_0N@DJDP@FLT?5OVERFLOW?$AA@ 1009bc70     exception.obj
 0003:00001c80       ??_C@_0FD@KNPF@This?5exception?5represents?5any?5fl@ 1009bc80     exception.obj
 0003:00001cd4       ??_C@_0BG@JKKB@FLT?5INVALID?5OPERATION?$AA@ 1009bcd4     exception.obj
 0003:00001cec       ??_C@_0FP@PCMA@The?5result?5of?5a?5floating?9point?5o@ 1009bcec     exception.obj
 0003:00001d4c       ??_C@_0BD@GKCF@FLT?5INEXACT?5RESULT?$AA@ 1009bd4c     exception.obj
 0003:00001d60       ??_C@_0FI@DGHM@The?5thread?5tried?5to?5divide?5a?5flo@ 1009bd60     exception.obj
 0003:00001db8       ??_C@_0BD@NEID@FLT?5DIVIDE?5BY?5ZERO?$AA@ 1009bdb8     exception.obj
 0003:00001dcc       ??_C@_0JL@NDIP@One?5of?5the?5operands?5in?5a?5floatin@ 1009bdcc     exception.obj
 0003:00001e68       ??_C@_0BF@OOPG@FLT?5DENORMAL?5OPERAND?$AA@ 1009be68     exception.obj
 0003:00001e80       ??_C@_0NH@PFBE@The?5thread?5tried?5to?5read?5or?5writ@ 1009be80     exception.obj
 0003:00001f58       ??_C@_0BG@GKC@DATATYPE?5MISALIGNMENT?$AA@ 1009bf58     exception.obj
 0003:00001f70       ??_C@_0BO@DNCK@A?5breakpoint?5was?5encountered?4?$AA@ 1009bf70     exception.obj
 0003:00001f90       ??_C@_0L@EIGK@BREAKPOINT?$AA@ 1009bf90     exception.obj
 0003:00001f9c       ??_C@_0HI@BEGF@The?5thread?5tried?5to?5access?5an?5ar@ 1009bf9c     exception.obj
 0003:00002014       ??_C@_0BG@NCMN@ARRAY?5BOUNDS?5EXCEEDED?$AA@ 1009c014     exception.obj
 0003:0000202c       ??_C@_0GP@KLLF@The?5thread?5tried?5to?5read?5from?5or@ 1009c02c     exception.obj
 0003:0000209c       ??_C@_0BB@GDCO@ACCESS?5VIOLATION?$AA@ 1009c09c     exception.obj
 0003:000020b0       ??_C@_0CC@KOON@GetCurrentDirectory?5failed?5?$CI?$CFd?$CJ?$CB@ 1009c0b0     exception.obj
 0003:000020d4       ??_C@_0CN@JJBE@Could?5not?5load?5functions?5from?5Cr@ 1009c0d4     exception.obj
 0003:00002104       ??_C@_0BE@OJLN@CrashRpt?5installed?6?$AA@ 1009c104     exception.obj
 0003:00002118       ??_C@_0O@IGEC@Game?5log?5file?$AA@ 1009c118     exception.obj
 0003:00002128       ??_C@_0BE@FGHJ@?$CFs?1paranoia_log?4txt?$AA@ 1009c128     exception.obj
 0003:0000213c       ??_C@_07GFEM@AddFile?$AA@  1009c13c     exception.obj
 0003:00002144       ??_C@_07COFC@Install?$AA@  1009c144     exception.obj
 0003:0000214c       ??_C@_0BO@HGNN@Could?5not?5load?5CrashRpt?4dll?$CB?6?$AA@ 1009c14c     exception.obj
 0003:0000216c       ??_C@_0N@GDMH@CrashRpt?4dll?$AA@ 1009c16c     exception.obj
 0003:0000217c       ??_C@_0M@NHPM@?$CFs?1cl_dlls?1?$AA@ 1009c17c     exception.obj
 0003:00002188       ??_C@_0L@ENNB@?9noexhandl?$AA@ 1009c188     exception.obj
 0003:00002194       ??_C@_0BL@FADJ@Free?5CrashRpt?4dll?5library?6?$AA@ 1009c194     exception.obj
 0003:000021b0       ??_C@_03OHFJ@n?1a?$AA@     1009c1b0     exception.obj
 0003:000021b4       ??_C@_0BC@OIDF@Unknown?5exception?$AA@ 1009c1b4     exception.obj
 0003:000021c8       ??_C@_0BD@CCJ@Handler?5installed?6?$AA@ 1009c1c8     exception.obj
 0003:000021dc       ??_C@_0BN@BHAJ@Saved?5previous?5filter?5at?5?$CFp?6?$AA@ 1009c1dc     exception.obj
 0003:000021fc       ??_C@_0CB@FGIB@Installing?5exception?5handler?4?4?4?6@ 1009c1fc     exception.obj
 0003:00002220       ??_C@_0DN@PNNA@?$DN?$DN?$DN?$DN?$DN?$DN?$DN?$DN?$DN?$DN?$DN?$DN?$DN?$DN?$DN?$DN?$DN?$DN?$DN?$DN?$DN?$DN?$DN?$DN?$DN?$DN?$DN?$DN?$DN?$DN?$DN?$DN@ 1009c220     exception.obj
 0003:00002260       ??_C@_0BL@DEDI@Unable?5to?5load?5psapi?4dll?$CB?6?$AA@ 1009c260     exception.obj
 0003:0000227c       ??_C@_0CI@BEAF@Can?8t?5import?5functions?5from?5psap@ 1009c27c     exception.obj
 0003:000022a4       ??_C@_0BM@ILKB@EnumProcessModules?5failed?$CB?6?$AA@ 1009c2a4     exception.obj
 0003:000022c0       ??_C@_0BK@GMH@Too?5many?5modules?5loaded?$CB?6?$AA@ 1009c2c0     exception.obj
 0003:000022dc       ??_C@_08PHFD@?$DMerror?$DO?6?$AA@ 1009c2dc     exception.obj
 0003:000022e8       ??_C@_0CC@PPCE@Base?5address?3?5?$CFp?0?5Image?5size?3?5?$CFp@ 1009c2e8     exception.obj
 0003:0000230c       ??_C@_0L@GBCD@?$DMerror?$DO?5?3?5?$AA@ 1009c30c     exception.obj
 0003:00002318       ??_C@_05NHMF@?$CFs?5?3?5?$AA@ 1009c318     exception.obj
 0003:00002320       ??_C@_0BF@EDNP@GetModuleInformation?$AA@ 1009c320     exception.obj
 0003:00002338       ??_C@_0BD@NMHD@EnumProcessModules?$AA@ 1009c338     exception.obj
 0003:0000234c       ??_C@_09JBAA@psapi?4dll?$AA@ 1009c34c     exception.obj
 0003:00002358       ??_C@_0BD@FMJD@?6Modules?5listing?3?6?$AA@ 1009c358     exception.obj
 0003:0000236c       ??_C@_0BB@GKFB@Description?3?5?$CFs?6?$AA@ 1009c36c     exception.obj
 0003:00002380       ??_C@_0EA@MHAG@Info?3?5the?5thread?5attempted?5to?5re@ 1009c380     exception.obj
 0003:000023c0       ??_C@_0ED@IIMN@Info?3?5the?5thread?5attempted?5to?5wr@ 1009c3c0     exception.obj
 0003:00002404       ??_C@_0N@BBAI@Address?3?5?$CFp?6?$AA@ 1009c404     exception.obj
 0003:00002414       ??_C@_0BJ@NBLB@Exception?5code?3?5?$CFs?5?$CI?$CFp?$CJ?6?$AA@ 1009c414     exception.obj
 0003:00002430       ??_C@_0DN@BLMM@?6?$DN?$DN?$DN?$DN?$DN?$DN?$DN?$DN?$DN?$DN?$DN?$DN?$DN?$DN?5?$CB?$CB?$CB?5Unhandled?5Ex@ 1009c430     exception.obj
 0003:00002470       ??_C@_03BJGB@ok?6?$AA@     1009c470     exception.obj
 0003:00002474       ??_C@_0BO@NCGD@Removing?5exception?5handler?4?4?4?$AA@ 1009c474     exception.obj
 0003:00002494       ??_C@_08MMIN@FlashBat?$AA@ 1009c494     flashlight.obj
 0003:000024a0       ??_C@_0L@PAOI@Flashlight?$AA@ 1009c4a0     flashlight.obj
 0003:000024ac       ??_C@_0L@PLNL@flash_beam?$AA@ 1009c4ac     flashlight.obj
 0003:000024b8       ??_C@_0L@BMDK@flash_full?$AA@ 1009c4b8     flashlight.obj
 0003:000024c4       ??_C@_0M@LNMF@flash_empty?$AA@ 1009c4c4     flashlight.obj
 0003:000024d0       ?studio@@3Ur_studio_interface_s@@A 1009c4d0     GameStudioModelRenderer.obj
 0003:000024dc       ??_C@_06BNLF@Geiger?$AA@   1009c4dc     geiger.obj
 0003:000024e4       ??_C@_0BE@GIDB@player?1geiger?$CFd?4wav?$AA@ 1009c4e4     geiger.obj
 0003:000024f8       ??_C@_0BD@MHIJ@error?5writting?5?$CFs?6?$AA@ 1009c4f8     gl_debug.obj
 0003:0000250c       ??_C@_0BG@DJAI@written?5?$CFs?5?$CI?$CFd?5x?5?$CFd?$CJ?6?$AA@ 1009c50c     gl_debug.obj
 0003:00002524       ??_C@_0BB@PPPK@?$CFs?1dumped?1?$CFs?4tga?$AA@ 1009c524     gl_debug.obj
 0003:00002538       ??_C@_0BI@JNJI@leaf?5info?5dump?5created?6?$AA@ 1009c538     gl_debug.obj
 0003:00002550       ??_C@_0CB@KNBB@?$CFd?5references?5total?0?5?$CFd?5average?6@ 1009c550     gl_debug.obj
 0003:00002574       ??_C@_08BBML@?$CFd?5refs?6?$AA@ 1009c574     gl_debug.obj
 0003:00002580       ??_C@_0BI@EFJL@?6?6?$CFd?5surfaces?5in?5world?6?$AA@ 1009c580     gl_debug.obj
 0003:00002598       ??_C@_0CD@BCDF@?$CFd?5marksurfaces?5total?0?5?$CFd?5averag@ 1009c598     gl_debug.obj
 0003:000025bc       ??_C@_0L@PKEF@?$CFd?5msurfs?6?$AA@ 1009c5bc     gl_debug.obj
 0003:000025c8       ??_C@_09KLHM@?$CFd?5leafs?6?$AA@ 1009c5c8     gl_debug.obj
 0003:000025d4       ??_C@_0CK@DFEM@ERROR?3?5couldnt?5open?5file?5?$CFs?5for?5@ 1009c5d4     gl_debug.obj
 0003:00002600       ??_C@_02IAAH@wt?$AA@       1009c600     gl_debug.obj
 0003:00002604       ??_C@_0P@FNGD@?$CFs?1drawlog?4txt?$AA@ 1009c604     gl_debug.obj
 0003:00002614       ??_C@_07CAJA@WTF?$DP?$DP?$DP?6?$AA@ 1009c614     gl_debug.obj
 0003:0000261c       ??_C@_0CL@MNON@leveldump?5created?5?$CI?$CFd?5textures?0?5@ 1009c61c     gl_debug.obj
 0003:00002648       ??_C@_0CB@MCDA@warning?3?5bad?5texture?5id?5for?5?$CFs?$CB?6@ 1009c648     gl_debug.obj
 0003:0000266c       ??_C@_09EFDG@ACHTUNG?$CB?6?$AA@ 1009c66c     gl_debug.obj
 0003:00002678       ??_C@_0BI@FBBA@?$CFs?1dumped?1leveldump?4lev?$AA@ 1009c678     gl_debug.obj
 0003:00002690       ??_C@_0BK@EKBG@base?5light?3?5?$HL?$CFd?0?5?$CFd?0?5?$CFd?$HN?6?$AA@ 1009c690     gl_debug.obj
 0003:000026ac       ??_C@_0BJ@MNOL@add?5light?3?5?$HL?$CFd?0?5?$CFd?0?5?$CFd?$HN?6?$AA@ 1009c6ac     gl_debug.obj
 0003:000026c8       ??_C@_0BJ@IN@light?5vector?5length?3?5?$CFf?6?$AA@ 1009c6c8     gl_debug.obj
 0003:000026e4       ??_C@_0BL@EGKM@Missing?5decal?5texture?5?$CFs?$CB?6?$AA@ 1009c6e4     gl_decals.obj
 0003:00002700       ??_C@_0BC@NDGD@gfx?1decals?1?$CFs?4tga?$AA@ 1009c700     gl_decals.obj
 0003:00002714       ??_C@_0CO@HCBF@Too?5many?5entries?5in?5decal?5info?5f@ 1009c714     gl_decals.obj
 0003:00002744       ??_C@_0BJ@GDBC@?$CFd?5decal?5groups?5created?6?$AA@ 1009c744     gl_decals.obj
 0003:00002760       ??_C@_0CE@LHBC@warning?3?5got?5empty?5decal?5group?3?5@ 1009c760     gl_decals.obj
 0003:00002784       ??_C@_0DH@KJLG@?$CFs?5?9?5got?5too?5large?5token?5when?5pa@ 1009c784     gl_decals.obj
 0003:000027bc       ??_C@_0DB@NLGJ@Too?5many?5decals?5in?5group?5?$CI?$CFd?5max@ 1009c7bc     gl_decals.obj
 0003:000027f0       ??_C@_0CN@GIAH@Cannot?5open?5file?5?$CCgfx?1decals?1dec@ 1009c7f0     gl_decals.obj
 0003:00002820       ??_C@_0BJ@HAGM@gfx?1decals?1decalinfo?4txt?$AA@ 1009c820     gl_decals.obj
 0003:0000283c       ??_C@_0BE@JLNC@?6?$DO?$DO?5Loading?5decals?6?$AA@ 1009c83c     gl_decals.obj
 0003:00002850       ??_C@_0CL@KHKF@Warning?3?5too?5many?5static?5decals?5@ 1009c850     gl_decals.obj
 0003:0000287c       ??_C@_0BL@KBJJ@Too?5many?5decals?5in?5cache?$CB?6?$AA@ 1009c87c     gl_decals.obj
 0003:00002898       ??_C@_0CA@OJFJ@usage?3?5pastedecal?5?$DMdecal?5name?$DO?6?$AA@ 1009c898     gl_decals.obj
 0003:000028b8       ??_C@_0M@HGAC@customdecal?$AA@ 1009c8b8     gl_decals.obj
 0003:000028c4       ??_C@_0P@LFCG@gl_decalstatus?$AA@ 1009c8c4     gl_decals.obj
 0003:000028d4       ??_C@_0BA@BHJC@gl_customdecals?$AA@ 1009c8d4     gl_decals.obj
 0003:000028e4       ??_C@_0M@KJPO@decalsclear?$AA@ 1009c8e4     gl_decals.obj
 0003:000028f0       ??_C@_0L@BAMC@pastedecal?$AA@ 1009c8f0     gl_decals.obj
 0003:000028fc       ??_C@_0CJ@DPOO@?$CFd?5static?5decals?5in?5memory?0?5?$CFd?5r@ 1009c8fc     gl_decals.obj
 0003:00002928       ??_C@_0CC@COOP@?$CFd?5decals?5in?5memory?0?5?$CFd?5rendered@ 1009c928     gl_decals.obj
 0003:0000294c       ??_C@_0DJ@LCJD@WARNING?3?5no?5alpha?5buffer?0?5spotli@ 1009c94c     gl_light_dynamic.obj
 0003:00002988       ??_C@_0DK@PFMM@WARNING?3?5no?5alpha?5buffer?0?5pointl@ 1009c988     gl_light_dynamic.obj
 0003:000029c4       ??_C@_0CH@DANC@Created?5spotlight?5attenuation?5te@ 1009c9c4     gl_light_dynamic.obj
 0003:000029ec       ??_C@_0CA@INLC@Created?53D?5attenuation?5texture?6?$AA@ 1009c9ec     gl_light_dynamic.obj
 0003:00002a0c       ??_C@_0DO@FOLC@Error?3?5Failed?5to?5allocate?5memory@ 1009ca0c     gl_light_dynamic.obj
 0003:00002a4c       ??_C@_0CA@DMGA@Created?52d?5attenuation?5texture?6?$AA@ 1009ca4c     gl_light_dynamic.obj
 0003:00002a6c       ??_C@_0CA@BIAP@Created?51d?5attenuation?5texture?6?$AA@ 1009ca6c     gl_light_dynamic.obj
 0003:00002a8c       ??_C@_0BB@PNDC@Marking?5faces?4?4?4?$AA@ 1009ca8c     gl_lightmap.obj
 0003:00002aa0       ??_C@_0CA@PFLP@Loaded?5?$CFd?5additional?5lightmaps?6?$AA@ 1009caa0     gl_lightmap.obj
 0003:00002ac0       ??_C@_0CE@NIKC@Loaded?5?$CFd?5x?53?5additional?5lightma@ 1009cac0     gl_lightmap.obj
 0003:00002ae4       ??_C@_0BM@LCMP@ERROR?3?5no?5lightmaps?5usage?$CB?6?$AA@ 1009cae4     gl_lightmap.obj
 0003:00002b00       ??_C@_0EI@BLOM@WARNING?$CB?5surface?5?$CFd?5uses?5lightma@ 1009cb00     gl_lightmap.obj
 0003:00002b48       ??_C@_09DLKG@bump?3?5?$CFd?6?$AA@ 1009cb48     gl_lightmap.obj
 0003:00002b54       ??_C@_0CH@CLGP@gamma?3?5?$CFf?6brightness?3?5?$CFf?6contras@ 1009cb54     gl_lightmap.obj
 0003:00002b7c       ??_C@_0CJ@FDFB@?6?$DO?$DO?5Loading?5additional?5lightmaps@ 1009cb7c     gl_lightmap.obj
 0003:00002ba8       ??_C@_0DP@HALI@ERROR?3?5UpdateLightmaps?5called?5wh@ 1009cba8     gl_lightmap.obj
 0003:00002be8       ??_C@_0CE@HNM@R_GetSpriteFrame?3?5no?5such?5frame?5@ 1009cbe8     gl_model.obj
 0003:00002c0c       ??_C@_0CM@NANM@Grayscale?3?5created?5?$CFdx?$CFd?5rectang@ 1009cc0c     gl_postprocess.obj
 0003:00002c38       ??_C@_0CH@ICJF@Grayscale?3?5created?5256x256?52D?5te@ 1009cc38     gl_postprocess.obj
 0003:00002c60       ??_C@_0CE@CMOC@Grayscale?3?5created?5weights?5textu@ 1009cc60     gl_postprocess.obj
 0003:00002c84       ??_C@_0N@PEGJ@gl_grayscale?$AA@ 1009cc84     gl_postprocess.obj
 0003:00002c94       ??_C@_0P@IFGA@gl_posteffects?$AA@ 1009cc94     gl_postprocess.obj
 0003:00002ca4       ?reloaded@@3HA             1009cca4     gl_renderer.obj
 0003:00002ca8       ??_C@_0BP@KBBH@Created?5normalization?5cubemap?6?$AA@ 1009cca8     gl_renderer.obj
 0003:00002cc8       ??_C@_0BM@LLHL@Created?5default?5normal?5map?6?$AA@ 1009ccc8     gl_renderer.obj
 0003:00002ce4       ??_C@_0DN@JMPE@Paranoia?5custom?5renderer?5is?5not?5@ 1009cce4     gl_renderer.obj
 0003:00002d24       ??_C@_0O@CMDG@gl_clipplanes?$AA@ 1009cd24     gl_renderer.obj
 0003:00002d34       ??_C@_0BK@IHM@Warning?3?5no?5stencilbits?$CB?6?$AA@ 1009cd34     gl_renderer.obj
 0003:00002d50       ??_C@_0CI@OFFC@No?5lightdata?0?5custom?5renderer?5di@ 1009cd50     gl_renderer.obj
 0003:00002d78       ??_C@_0DL@LOHA@No?5paranoia?5hacked?5opengl32?4dll?0@ 1009cd78     gl_renderer.obj
 0003:00002db4       ??_C@_0M@IPEA@gl_renderer?$AA@ 1009cdb4     gl_renderer.obj
 0003:00002dc0       ??_C@_0BD@PFCG@Killing?5sky?5faces?6?$AA@ 1009cdc0     gl_renderer.obj
 0003:00002dd4       ??_C@_0BM@EAKI@gl_ztrick?51?5is?5not?5allowed?6?$AA@ 1009cdd4     gl_renderer.obj
 0003:00002df0       ??_C@_09HJPP@gl_ztrick?$AA@ 1009cdf0     gl_renderer.obj
 0003:00002dfc       ??_C@_0DC@KHJB@ERROR?3?5UpdateEntityList?5?9?5cant?5g@ 1009cdfc     gl_renderer.obj
 0003:00002e30       ??_C@_0BE@JDMG@gfx?1spotlight?$CFd?4tga?$AA@ 1009ce30     gl_renderer.obj
 0003:00002e44       ??_C@_08FDFB@mydlight?$AA@ 1009ce44     gl_renderer.obj
 0003:00002e50       ??_C@_08GECM@dumpleaf?$AA@ 1009ce50     gl_renderer.obj
 0003:00002e5c       ??_C@_09BBGJ@makelight?$AA@ 1009ce5c     gl_renderer.obj
 0003:00002e68       ??_C@_09NFFE@dumplevel?$AA@ 1009ce68     gl_renderer.obj
 0003:00002e74       ??_C@_0N@HDED@dumptextures?$AA@ 1009ce74     gl_renderer.obj
 0003:00002e84       ??_C@_0N@NEAO@gl_showplane?$AA@ 1009ce84     gl_renderer.obj
 0003:00002e94       ??_C@_0N@HBJL@gl_brushents?$AA@ 1009ce94     gl_renderer.obj
 0003:00002ea4       ??_C@_0L@COLD@gl_lambert?$AA@ 1009cea4     gl_renderer.obj
 0003:00002eb0       ??_C@_01KOLO@2?$AA@        1009ceb0     gl_renderer.obj
 0003:00002eb4       ??_C@_0BB@BGEC@gl_modelrenderer?$AA@ 1009ceb4     gl_renderer.obj
 0003:00002ec8       ??_C@_0M@NBKE@gl_blurtest?$AA@ 1009cec8     gl_renderer.obj
 0003:00002ed4       ??_C@_0O@EAMP@gl_twopassdyn?$AA@ 1009ced4     gl_renderer.obj
 0003:00002ee4       ??_C@_0BD@LPBG@gl_twopassspecular?$AA@ 1009cee4     gl_renderer.obj
 0003:00002ef8       ??_C@_0M@PELO@gl_contrast?$AA@ 1009cef8     gl_renderer.obj
 0003:00002f04       ??_C@_0O@GHLP@gl_brightness?$AA@ 1009cf04     gl_renderer.obj
 0003:00002f14       ??_C@_08BIPA@gl_gamma?$AA@ 1009cf14     gl_renderer.obj
 0003:00002f20       ??_C@_0BA@IIBB@gl_highspecular?$AA@ 1009cf20     gl_renderer.obj
 0003:00002f30       ??_C@_0N@PKEB@gl_noshaders?$AA@ 1009cf30     gl_renderer.obj
 0003:00002f40       ??_C@_0L@FHNP@gl_nocombs?$AA@ 1009cf40     gl_renderer.obj
 0003:00002f4c       ??_C@_0BA@FMLJ@gl_dynlight_ent?$AA@ 1009cf4c     gl_renderer.obj
 0003:00002f5c       ??_C@_0M@BJBN@gl_dynlight?$AA@ 1009cf5c     gl_renderer.obj
 0003:00002f68       ??_C@_0M@JLMP@gl_specular?$AA@ 1009cf68     gl_renderer.obj
 0003:00002f74       ??_C@_0L@LGLP@bump_debug?$AA@ 1009cf74     gl_renderer.obj
 0003:00002f80       ??_C@_09IMCA@bump_vecs?$AA@ 1009cf80     gl_renderer.obj
 0003:00002f8c       ??_C@_0N@LEML@gl_detailtex?$AA@ 1009cf8c     gl_renderer.obj
 0003:00002f9c       ??_C@_07GDKA@gl_bump?$AA@  1009cf9c     gl_renderer.obj
 0003:0000323c       ?specular_fp_id@@3IA       1009d23c     gl_rsurf.obj
 0003:0000359c       ?specular_high_fp_id@@3IA  1009d59c     gl_rsurf.obj
 0003:000035a0       ??_C@_0BL@NKHI@Deleting?5faces?5extra?5data?6?$AA@ 1009d5a0     gl_rsurf.obj
 0003:000035bc       ??_C@_0BH@OJKN@Deleting?5vertex?5array?6?$AA@ 1009d5bc     gl_rsurf.obj
 0003:000035d4       ??_C@_03FLLE@Ok?6?$AA@     1009d5d4     gl_rsurf.obj
 0003:000035d8       ??_C@_0BA@POOG@Clearing?5VBO?4?4?4?$AA@ 1009d5d8     gl_rsurf.obj
 0003:000035e8       ??_C@_0DI@MJGH@Error?3?5glGenBuffersARB?5failed?5to@ 1009d5e8     gl_rsurf.obj
 0003:00003620       ??_C@_0DF@HDEL@Error?3?5glBufferDataARB?5failed?5to@ 1009d620     gl_rsurf.obj
 0003:00003658       ??_C@_0BN@KOFO@Created?5VBO?5for?5world?5polys?6?$AA@ 1009d658     gl_rsurf.obj
 0003:00003678       ??_C@_0CG@FDKN@Created?5Vertex?5Array?5for?5world?5p@ 1009d678     gl_rsurf.obj
 0003:000036a0       ??_C@_0CD@PIKH@?$CFd?5vertexes?5in?5all?5world?5polygon@ 1009d6a0     gl_rsurf.obj
 0003:000036c4       ??_C@_0BL@JEKN@?$CFd?5world?5polygons?5visible?6?$AA@ 1009d6c4     gl_rsurf.obj
 0003:000036e0       ??_C@_0BH@ECFB@GenerateVertexArray?$CI?$CJ?6?$AA@ 1009d6e0     gl_rsurf.obj
 0003:000036f8       ??_C@_0CD@CEKN@R_TextureAnimation?3?5infinite?5cyc@ 1009d6f8     gl_rsurf.obj
 0003:0000371c       ??_C@_0CB@EOJF@R_TextureAnimation?3?5broken?5cycle@ 1009d71c     gl_rsurf.obj
 0003:00003740       ??_C@_0BO@HIDE@?9?9?9?9?9?9?9?9?9?9?9?9?6?$CFs?6?9?9?9?9?9?9?9?9?9?9?9?9?6?$AA@ 1009d740     gl_rsurf.obj
 0003:00003760       ??_C@_0DL@LHFL@Failed?5to?5load?5fragment?5program?4@ 1009d760     gl_rsurf.obj
 0003:0000379c       ??_C@_0BO@FCEK@Simple?5specular?5uses?5mode?5?$CFd?6?$AA@ 1009d79c     gl_rsurf.obj
 0003:000037bc       ??_C@_0BJ@HBIK@ERROR?3?5specular?5failed?$CB?6?$AA@ 1009d7bc     gl_rsurf.obj
 0003:000037d8       ??_C@_0DG@ICOP@Failed?5to?5load?5low?5quality?5specu@ 1009d7d8     gl_rsurf.obj
 0003:00003810       ??_C@_0DK@DDKA@Low?5quality?5specular?5fragment?5pr@ 1009d810     gl_rsurf.obj
 0003:0000384c       ??_C@_0EI@NKLM@WARNING?3?5Alpha?5buffer?5is?5not?5pre@ 1009d84c     gl_rsurf.obj
 0003:00003894       ??_C@_0DK@KFDD@High?5quality?5specular?5is?5not?5sup@ 1009d894     gl_rsurf.obj
 0003:000038d0       ??_C@_0DL@PGP@High?5quality?5specular?5fragment?5p@ 1009d8d0     gl_rsurf.obj
 0003:0000390c       ??_C@_0CD@JOFP@?$CFd?5wpoly?5has?5high?5quality?5specul@ 1009d90c     gl_rsurf.obj
 0003:00003930       ??_C@_0CC@PDEO@?$CFd?5wpoly?5has?5low?5quality?5specula@ 1009d930     gl_rsurf.obj
 0003:00003954       ??_C@_0BA@IOLI@?$CFd?5wpoly?5normal?$AA@ 1009d954     gl_rsurf.obj
 0003:00003964       ??_C@_0BA@BGIC@?$CFd?5wpoly?5bumped?$AA@ 1009d964     gl_rsurf.obj
 0003:00003974       ??_C@_0P@GIAJ@?$CFd?5wpoly?5total?$AA@ 1009d974     gl_rsurf.obj
 0003:0000399c       ??_C@_02HJLH@dn?$AA@       1009d99c     gl_sky.obj
 0003:000039a0       ??_C@_02HAO@up?$AA@        1009d9a0     gl_sky.obj
 0003:000039a4       ??_C@_02PMAE@ft?$AA@       1009d9a4     gl_sky.obj
 0003:000039a8       ??_C@_02MMAH@rt?$AA@       1009d9a8     gl_sky.obj
 0003:000039ac       ??_C@_02OID@bk?$AA@        1009d9ac     gl_sky.obj
 0003:000039b0       ??_C@_02JIFL@lf?$AA@       1009d9b0     gl_sky.obj
 0003:000039b4       ??_C@_0BM@JFBE@too?5many?5skybox?5entites?$CB?$CB?$CB?6?$AA@ 1009d9b4     gl_sky.obj
 0003:000039d0       ??_C@_0CD@LILJ@?$CI?5default?5skyangles?5is?50?5?990?590?5@ 1009d9d0     gl_sky.obj
 0003:000039f4       ??_C@_0CH@GIPF@usage?3?5skyangles?5?$DMpitch?$DO?5?$DMyaw?$DO?5?$DM@ 1009d9f4     gl_sky.obj
 0003:00003a1c       ??_C@_0BO@COPI@?5?5sky?5uses?5direct?5light?5hack?6?$AA@ 1009da1c     gl_sky.obj
 0003:00003a3c       ??_C@_0BP@GFAH@?5?5sky?5uses?5ambient?5light?5hack?6?$AA@ 1009da3c     gl_sky.obj
 0003:00003a5c       ??_C@_0BH@KGDL@Got?53d?9sky?5sky?5marker?6?$AA@ 1009da5c     gl_sky.obj
 0003:00003a74       ??_C@_0CE@IMHI@Got?53d?9sky?5world?5marker?5?$CIspeed?5?$CF@ 1009da74     gl_sky.obj
 0003:00003a98       ??_C@_09KKGG@skymark_w?$AA@ 1009da98     gl_sky.obj
 0003:00003aa4       ??_C@_0M@DMD@skymark_sky?$AA@ 1009daa4     gl_sky.obj
 0003:00003ab0       ??_C@_0N@BKMA@gl_customsky?$AA@ 1009dab0     gl_sky.obj
 0003:00003ac0       ??_C@_09OGML@skyangles?$AA@ 1009dac0     gl_sky.obj
 0003:00003acc       ??_C@_0CE@FIIE@Use?5gl_customsky?51?5to?5reenable?5s@ 1009dacc     gl_sky.obj
 0003:00003af0       ??_C@_0CC@1Sky?5error?3?5cant?5load?5sky?5face?5?$CFs@ 1009daf0     gl_sky.obj
 0003:00003b14       ??_C@_0BC@DGHB@Loaded?5skybox?5?$CFs?6?$AA@ 1009db14     gl_sky.obj
 0003:00003b28       ??_C@_0BB@HJIG@gfx?1env?1?$CFs?$CFs?4tga?$AA@ 1009db28     gl_sky.obj
 0003:00003b3c       ??_C@_0CG@FPNI@Sky?5error?3?5cant?5get?5sv_skyname?5v@ 1009db3c     gl_sky.obj
 0003:00003b64       ??_C@_0L@EFJO@sv_skyname?$AA@ 1009db64     gl_sky.obj
 0003:00003b70       ??_C@_0BJ@EMOM@sky?5base?5texturenum?5set?6?$AA@ 1009db70     gl_sky.obj
 0003:00003b8c       ?alpha@@3MA                1009db8c     gl_studiomodel.obj
 0003:00003b90       ??_C@_0BO@NDKA@Mod_Extradata?3?5failed?5for?5?$CFs?6?$AA@ 1009db90     gl_studiomodel.obj
 0003:00003bb0       ??_C@_0BM@GNKB@Mod_ForName?3?5failed?5for?5?$CFs?6?$AA@ 1009dbb0     gl_studiomodel.obj
 0003:00003bcc       ??_C@_05LFLF@T?4mdl?$AA@   1009dbcc     gl_studiomodel.obj
 0003:00003bd4       ??_C@_0BI@FCOL@models?1v_headshield?4mdl?$AA@ 1009dbd4     gl_studiomodel.obj
 0003:00003bec       ??_C@_0CB@FNDJ@SetupModel?3?5no?5such?5bodypart?5?$CFd?6@ 1009dbec     gl_studiomodel.obj
 0003:00003c10       ??_C@_0O@IJCA@sv_skycolor_b?$AA@ 1009dc10     gl_studiomodel.obj
 0003:00003c20       ??_C@_0O@IJOL@sv_skycolor_g?$AA@ 1009dc20     gl_studiomodel.obj
 0003:00003c30       ??_C@_0O@CAFA@sv_skycolor_r?$AA@ 1009dc30     gl_studiomodel.obj
 0003:00003c40       ?current_ext_texture_id@@3HA 1009dc40     gl_texloader.obj
 0003:00003c44       ??_C@_0FO@OENF@Error?3?5texture?5?$CFs?5uses?5unsupport@ 1009dc44     gl_texloader.obj
 0003:00003ca4       ??_C@_0EF@PIDK@Error?3?5texture?5?$CFs?3?5sizes?5?$CFd?5x?5?$CFd@ 1009dca4     gl_texloader.obj
 0003:00003cec       ??_C@_0BH@IMAN@Loaded?5texture?5?$CFs?0?5?$CFs?6?$AA@ 1009dcec     gl_texloader.obj
 0003:00003d04       ??_C@_07KMOM@no?5mips?$AA@ 1009dd04     gl_texloader.obj
 0003:00003d0c       ??_C@_0P@INLL@generated?5mips?$AA@ 1009dd0c     gl_texloader.obj
 0003:00003d1c       ??_C@_0BA@BEFL@normalized?5mips?$AA@ 1009dd1c     gl_texloader.obj
 0003:00003d2c       ??_C@_0BB@PEEE@bad?5mipmaps?5mode?$AA@ 1009dd2c     gl_texloader.obj
 0003:00003d40       ??_C@_0DK@LHKB@Error?3?5texture?5?$CFs?5?$CI?$CFd?5x?5?$CFd?$CJ?5does@ 1009dd40     gl_texloader.obj
 0003:00003d7c       ??_C@_0DA@CGAK@Error?3?5texture?5?$CFs?5has?5bad?5dimens@ 1009dd7c     gl_texloader.obj
 0003:00003dac       ??_C@_0CH@EOKD@CreateTexture?5failed?5to?5load?5fil@ 1009ddac     gl_texloader.obj
 0003:00003dd4       ??_C@_0DE@KDK@CreateTexture?5error?3?5glmanager?5i@ 1009ddd4     gl_texloader.obj
 0003:00003e08       ??_C@_0BI@FKHN@Loaded?5DSDT?5texture?5?$CFs?6?$AA@ 1009de08     gl_texloader.obj
 0003:00003e20       ??_C@_0CN@EEH@Create_DSDT_Texture?5failed?5to?5lo@ 1009de20     gl_texloader.obj
 0003:00003e50       ??_C@_0DK@CHDF@Create_DSDT_Texture?5error?3?5glman@ 1009de50     gl_texloader.obj
 0003:00003e8c       ??_C@_0CN@CKF@Too?5many?5entries?5in?5detail?5textu@ 1009de8c     gl_texloader.obj
 0003:00003ebc       ??_C@_0BF@FNFG@?$CIentry?5?$CFd?3?5?$CFs?5?9?5?$CFs?$CJ?6?$AA@ 1009debc     gl_texloader.obj
 0003:00003ed4       ??_C@_0DD@OIAL@Error?5in?5detail?5textures?5file?5?$CFs@ 1009ded4     gl_texloader.obj
 0003:00003f08       ??_C@_0BM@FJJA@No?5detail?5textures?5file?5?$CFs?6?$AA@ 1009df08     gl_texloader.obj
 0003:00003f24       ??_C@_0M@NFJO@_detail?4txt?$AA@ 1009df24     gl_texloader.obj
 0003:00003f30       ??_C@_0DK@FMNA@ERROR?3?5ParseDetailTextureDataFil@ 1009df30     gl_texloader.obj
 0003:00003f6c       ??_C@_0BN@DCPO@?6?$DO?$DO?5loading?5detail?5textures?6?$AA@ 1009df6c     gl_texloader.obj
 0003:00003f8c       ??_C@_0BK@OFEM@Loaded?5detail?5texture?5?$CFs?6?$AA@ 1009df8c     gl_texloader.obj
 0003:00003fa8       ??_C@_0BO@FHPL@Detail?5texture?5?$CFs?5not?5found?$CB?6?$AA@ 1009dfa8     gl_texloader.obj
 0003:00003fc8       ??_C@_0L@HJLF@gfx?1?$CFs?4tga?$AA@ 1009dfc8     gl_texloader.obj
 0003:00003fd4       ??_C@_0CJ@NOHH@Finished?5creating?5ext?5data?5for?5t@ 1009dfd4     gl_texloader.obj
 0003:00004000       ??_C@_0BM@BECN@gfx?1bumpmaps?1?$CFs_glosshi?4tga?$AA@ 1009e000     gl_texloader.obj
 0003:0000401c       ??_C@_0BK@HIOI@gfx?1bumpmaps?1?$CFs_gloss?4tga?$AA@ 1009e01c     gl_texloader.obj
 0003:00004038       ??_C@_0BE@ICIB@gfx?1bumpmaps?1?$CFs?4tga?$AA@ 1009e038     gl_texloader.obj
 0003:0000404c       ??_C@_0BM@CNMD@Loaded?5texture?5data?5for?5?$CFs?6?$AA@ 1009e04c     gl_texloader.obj
 0003:00004068       ??_C@_0CE@GPOI@?6?$DO?$DO?5Creating?5ext?5data?5for?5textur@ 1009e068     gl_texloader.obj
 0003:0000408c       ??_C@_0CJ@BGMG@Sorting?5textures?5by?5detail?5textu@ 1009e08c     gl_texloader.obj
 0003:000040b8       ??_C@_0DP@GCCB@Error?3?5LoadCacheTexture?5failed?3?5@ 1009e0b8     gl_texloader.obj
 0003:000040f8       ??_C@_0BM@IBMH@VidInit?3?5Direct3D?5renderer?6?$AA@ 1009e0f8     glmanager.obj
 0003:00004114       ??_C@_0CA@LP@GL?5manager?3?5Direct?53D?5renderer?6?$AA@ 1009e114     glmanager.obj
 0003:00004134       ??_C@_0CC@JHHE@?$HM?5Rectangle?5textures?5support?3?5?$CFs@ 1009e134     glmanager.obj
 0003:00004158       ??_C@_0BD@LPMM@?$HM?5VBO?5support?3?5?$CFs?6?$AA@ 1009e158     glmanager.obj
 0003:0000416c       ??_C@_0BL@JJEM@?$HM?53D?5textures?5support?3?5?$CFs?6?$AA@ 1009e16c     glmanager.obj
 0003:00004188       ??_C@_0BI@PKBA@?$HM?5Cubemaps?5support?3?5?$CFs?6?$AA@ 1009e188     glmanager.obj
 0003:000041a0       ??_C@_0DE@KEGG@?$HM?5ARB?5fragment?5programs?5support?3@ 1009e1a0     glmanager.obj
 0003:000041d4       ??_C@_0CK@PJIL@?$HM?5NV?5register?5combiners?5support?3@ 1009e1d4     glmanager.obj
 0003:00004200       ??_C@_0CE@NDE@?$HM?5Diffuse?5bump?9mapping?5support?3?5@ 1009e200     glmanager.obj
 0003:00004224       ??_C@_0CG@CFLA@?$HM?5Multitexturing?5support?3?5?$CFs?5?$CI?$CFd@ 1009e224     glmanager.obj
 0003:0000424c       ??_C@_02ELCB@no?$AA@       1009e24c     glmanager.obj
 0003:00004250       ??_C@_03LGKI@yes?$AA@      1009e250     glmanager.obj
 0003:00004254       ??_C@_0BI@MJPG@?$HM?5Max?5texture?5size?3?5?$CFd?6?$AA@ 1009e254     glmanager.obj
 0003:0000426c       ??_C@_0CD@OAFG@Paranoia?5opengl?5hacks?5version?3?5?$CF@ 1009e26c     glmanager.obj
 0003:00004290       ??_C@_0BC@PPEB@PARANOIA_HACKS_V1?$AA@ 1009e290     glmanager.obj
 0003:000042a4       ??_C@_0BP@ENBH@VidInit?3?5OpenGL?5renderer?5?$CI?$CFs?$CJ?6?$AA@ 1009e2a4     glmanager.obj
 0003:000042c4       ??_C@_0BN@FHCB@GL?5manager?3?5opengl?5renderer?6?$AA@ 1009e2c4     glmanager.obj
 0003:000042e4       ??_C@_0BM@FCPO@GL?5manager?3?5loaded?5library?6?$AA@ 1009e2e4     glmanager.obj
 0003:00004300       ??_C@_0CL@BFPK@VidInit?3?5opengl32?4dll?5loaded?5suc@ 1009e300     glmanager.obj
 0003:0000432c       ??_C@_0DA@IBHI@VidInit?3?5Error?5loading?5opengl32?4@ 1009e32c     glmanager.obj
 0003:0000435c       ??_C@_0DC@IECL@GL?5manager?3?5Error?5loading?5opengl@ 1009e35c     glmanager.obj
 0003:00004390       ??_C@_0CK@EBNM@VidInit?5ERROR?3?5Cannot?5load?5openg@ 1009e390     glmanager.obj
 0003:000043bc       ??_C@_0CG@NAC@GL?5manager?3?5Cannot?5load?5opengl32@ 1009e3bc     glmanager.obj
 0003:000043e4       ??_C@_0N@BPDE@opengl32?4dll?$AA@ 1009e3e4     glmanager.obj
 0003:000043f4       ??_C@_0BM@NGGB@VidInit?3?5Software?5renderer?6?$AA@ 1009e3f4     glmanager.obj
 0003:00004410       ??_C@_0BP@LGEJ@GL?5manager?3?5Software?5renderer?6?$AA@ 1009e410     glmanager.obj
 0003:00004430       ??_C@_0DO@NEGK@VidInit?3?5skipping?5loading?5of?5ope@ 1009e430     glmanager.obj
 0003:00004470       ??_C@_0BO@HJBM@GL?5manager?3?5disabled?5by?5user?6?$AA@ 1009e470     glmanager.obj
 0003:00004490       ??_C@_07ELDB@?9noglfx?$AA@ 1009e490     glmanager.obj
 0003:00004498       ??_C@_0BM@OFEM@GL?5manager?3?5already?5loaded?6?$AA@ 1009e498     glmanager.obj
 0003:000044b4       ??_C@_0BD@INOC@GL?5manager?3?5reset?6?$AA@ 1009e4b4     glmanager.obj
 0003:000044c8       ??_C@_0BG@BCGA@GL?5manager?3?5shutdown?6?$AA@ 1009e4c8     glmanager.obj
 0003:000044e0       ??_C@_0BJ@PFJH@Stencil?5buffer?5bits?3?5?$CFd?6?$AA@ 1009e4e0     glmanager.obj
 0003:000044fc       ??_C@_0BH@OKIP@Depth?5buffer?5bits?3?5?$CFd?6?$AA@ 1009e4fc     glmanager.obj
 0003:00004514       ??_C@_0CI@EOML@Accum?5buffer?5RGBA?5bits?3?5?$CFd?0?5?$CFd?0?5@ 1009e514     glmanager.obj
 0003:0000453c       ??_C@_0CI@LIHO@Color?5buffer?5RGBA?5bits?3?5?$CFd?0?5?$CFd?0?5@ 1009e53c     glmanager.obj
 0003:00004564       ??_C@_0BA@PCBE@GL_VERSION?3?5?$CFs?6?$AA@ 1009e564     glmanager.obj
 0003:00004574       ??_C@_0P@KDAA@GL_VENDOR?3?5?$CFs?6?$AA@ 1009e574     glmanager.obj
 0003:00004584       ??_C@_0BB@KKEK@GL_RENDERER?3?5?$CFs?6?$AA@ 1009e584     glmanager.obj
 0003:00004598       ??_C@_0BC@HKHL@wglGetProcAddress?$AA@ 1009e598     glmanager.obj
 0003:000045ac       ??_C@_0L@INIC@glViewport?$AA@ 1009e5ac     glmanager.obj
 0003:000045b8       ??_C@_0BA@OGPO@glVertexPointer?$AA@ 1009e5b8     glmanager.obj
 0003:000045c8       ??_C@_0M@PAAJ@glVertex3fv?$AA@ 1009e5c8     glmanager.obj
 0003:000045d4       ??_C@_0L@CLBF@glVertex3f?$AA@ 1009e5d4     glmanager.obj
 0003:000045e0       ??_C@_0N@NKAJ@glTranslatef?$AA@ 1009e5e0     glmanager.obj
 0003:000045f0       ??_C@_0N@IPCH@glTranslated?$AA@ 1009e5f0     glmanager.obj
 0003:00004600       ??_C@_0BA@CLDA@glTexParameterf?$AA@ 1009e600     glmanager.obj
 0003:00004610       ??_C@_0BA@CKGN@glTexParameteri?$AA@ 1009e610     glmanager.obj
 0003:00004620       ??_C@_0N@IAMC@glTexImage2D?$AA@ 1009e620     glmanager.obj
 0003:00004630       ??_C@_0N@LLDN@glTexImage1D?$AA@ 1009e630     glmanager.obj
 0003:00004640       ??_C@_09NLNM@glTexGeni?$AA@ 1009e640     glmanager.obj
 0003:0000464c       ??_C@_0L@DDPI@glTexGenfv?$AA@ 1009e64c     glmanager.obj
 0003:00004658       ??_C@_09CIAL@glTexEnvi?$AA@ 1009e658     glmanager.obj
 0003:00004664       ??_C@_09CJFG@glTexEnvf?$AA@ 1009e664     glmanager.obj
 0003:00004670       ??_C@_0L@IHAL@glTexEnvfv?$AA@ 1009e670     glmanager.obj
 0003:0000467c       ??_C@_0BC@EKAK@glTexCoordPointer?$AA@ 1009e67c     glmanager.obj
 0003:00004690       ??_C@_0N@PDBC@glTexCoord2f?$AA@ 1009e690     glmanager.obj
 0003:000046a0       ??_C@_0O@IKEL@glStencilMask?$AA@ 1009e6a0     glmanager.obj
 0003:000046b0       ??_C@_0M@LODB@glStencilOp?$AA@ 1009e6b0     glmanager.obj
 0003:000046bc       ??_C@_0O@GBFI@glStencilFunc?$AA@ 1009e6bc     glmanager.obj
 0003:000046cc       ??_C@_0N@LIFO@glShadeModel?$AA@ 1009e6cc     glmanager.obj
 0003:000046dc       ??_C@_08NBED@glScalef?$AA@ 1009e6dc     glmanager.obj
 0003:000046e8       ??_C@_09LCHL@glRotatef?$AA@ 1009e6e8     glmanager.obj
 0003:000046f4       ??_C@_0N@BMFB@glReadBuffer?$AA@ 1009e6f4     glmanager.obj
 0003:00004704       ??_C@_0M@LACG@glPopMatrix?$AA@ 1009e704     glmanager.obj
 0003:00004710       ??_C@_0N@KEGE@glPushMatrix?$AA@ 1009e710     glmanager.obj
 0003:00004720       ??_C@_0BA@BALB@glPolygonOffset?$AA@ 1009e720     glmanager.obj
 0003:00004730       ??_C@_0O@EKDI@glPixelStorei?$AA@ 1009e730     glmanager.obj
 0003:00004740       ??_C@_0N@NFOG@glPushAttrib?$AA@ 1009e740     glmanager.obj
 0003:00004750       ??_C@_0M@MBKE@glPopAttrib?$AA@ 1009e750     glmanager.obj
 0003:0000475c       ??_C@_07ICOP@glOrtho?$AA@  1009e75c     glmanager.obj
 0003:00004764       ??_C@_0O@NKPG@glMultMatrixd?$AA@ 1009e764     glmanager.obj
 0003:00004774       ??_C@_0N@JNJF@glMatrixMode?$AA@ 1009e774     glmanager.obj
 0003:00004784       ??_C@_0O@KDCF@glLoadMatrixf?$AA@ 1009e784     glmanager.obj
 0003:00004794       ??_C@_0P@MLMG@glLoadIdentity?$AA@ 1009e794     glmanager.obj
 0003:000047a4       ??_C@_0M@GNEM@glIsEnabled?$AA@ 1009e7a4     glmanager.obj
 0003:000047b0       ??_C@_0L@INBB@glGetError?$AA@ 1009e7b0     glmanager.obj
 0003:000047bc       ??_C@_0M@EJHF@glGetString?$AA@ 1009e7bc     glmanager.obj
 0003:000047c8       ??_C@_0BJ@DLL@glGetTexLevelParameteriv?$AA@ 1009e7c8     glmanager.obj
 0003:000047e4       ??_C@_0O@HGPI@glGetTexImage?$AA@ 1009e7e4     glmanager.obj
 0003:000047f4       ??_C@_0O@JDNI@glGetTexEnviv?$AA@ 1009e7f4     glmanager.obj
 0003:00004804       ??_C@_0O@PMHI@glGetIntegerv?$AA@ 1009e804     glmanager.obj
 0003:00004814       ??_C@_0M@HNHJ@glGetFloatv?$AA@ 1009e814     glmanager.obj
 0003:00004820       ??_C@_0N@LJNO@glGetDoublev?$AA@ 1009e820     glmanager.obj
 0003:00004830       ??_C@_09KLFM@glFrustum?$AA@ 1009e830     glmanager.obj
 0003:0000483c       ??_C@_05FDNN@glEnd?$AA@    1009e83c     glmanager.obj
 0003:00004844       ??_C@_0BE@JJFB@glEnableClientState?$AA@ 1009e844     glmanager.obj
 0003:00004858       ??_C@_08PHJO@glEnable?$AA@ 1009e858     glmanager.obj
 0003:00004864       ??_C@_0N@DBGG@glDrawBuffer?$AA@ 1009e864     glmanager.obj
 0003:00004874       ??_C@_0N@LOLE@glDrawArrays?$AA@ 1009e874     glmanager.obj
 0003:00004884       ??_C@_0BF@HABO@glDisableClientState?$AA@ 1009e884     glmanager.obj
 0003:0000489c       ??_C@_09DADM@glDisable?$AA@ 1009e89c     glmanager.obj
 0003:000048a8       ??_C@_0M@FDIH@glDepthFunc?$AA@ 1009e8a8     glmanager.obj
 0003:000048b4       ??_C@_0N@OLL@glDepthRange?$AA@ 1009e8b4     glmanager.obj
 0003:000048c4       ??_C@_0M@LIJE@glDepthMask?$AA@ 1009e8c4     glmanager.obj
 0003:000048d0       ??_C@_0L@LIEG@glCullFace?$AA@ 1009e8d0     glmanager.obj
 0003:000048dc       ??_C@_0BE@NHIK@glCopyTexSubImage2D?$AA@ 1009e8dc     glmanager.obj
 0003:000048f0       ??_C@_0BB@EGJO@glCopyTexImage2D?$AA@ 1009e8f0     glmanager.obj
 0003:00004904       ??_C@_0M@LDC@glColorMask?$AA@ 1009e904     glmanager.obj
 0003:00004910       ??_C@_0L@EOB@glColor4ub?$AA@ 1009e910     glmanager.obj
 0003:0000491c       ??_C@_09LJGG@glColor4f?$AA@ 1009e91c     glmanager.obj
 0003:00004928       ??_C@_09NIDD@glColor3f?$AA@ 1009e928     glmanager.obj
 0003:00004934       ??_C@_0M@KLCG@glClipPlane?$AA@ 1009e934     glmanager.obj
 0003:00004940       ??_C@_0N@IALK@glClearColor?$AA@ 1009e940     glmanager.obj
 0003:00004950       ??_C@_07IOIM@glClear?$AA@  1009e950     glmanager.obj
 0003:00004958       ??_C@_0M@PHAI@glBlendFunc?$AA@ 1009e958     glmanager.obj
 0003:00004964       ??_C@_0O@NAMD@glBindTexture?$AA@ 1009e964     glmanager.obj
 0003:00004974       ??_C@_07GHIG@glBegin?$AA@  1009e974     glmanager.obj
 0003:0000497c       ??_C@_0M@JBDJ@glAlphaFunc?$AA@ 1009e97c     glmanager.obj
 0003:00004988       ??_C@_0BP@GMGL@Error?5loading?5opengl?5function?5?$AA@ 1009e988     glmanager.obj
 0003:000049a8       ??_C@_07GKLB@glAccum?$AA@  1009e9a8     glmanager.obj
 0003:000049b0       ??_C@_0BG@GEBK@glMultiTexCoord3fvARB?$AA@ 1009e9b0     glmanager.obj
 0003:000049c8       ??_C@_0BF@HBBL@glMultiTexCoord2fARB?$AA@ 1009e9c8     glmanager.obj
 0003:000049e0       ??_C@_0BF@JBHE@glMultiTexCoord1fARB?$AA@ 1009e9e0     glmanager.obj
 0003:000049f8       ??_C@_0BJ@NIEC@glClientActiveTextureARB?$AA@ 1009e9f8     glmanager.obj
 0003:00004a14       ??_C@_0CJ@DDLG@Error?5loading?5extension?5opengl?5f@ 1009ea14     glmanager.obj
 0003:00004a40       ??_C@_0BD@IJD@glActiveTextureARB?$AA@ 1009ea40     glmanager.obj
 0003:00004a54       ??_C@_0BE@EHGK@GL_ARB_multitexture?$AA@ 1009ea54     glmanager.obj
 0003:00004a68       ??_C@_0BH@BMKE@glFinalCombinerInputNV?$AA@ 1009ea68     glmanager.obj
 0003:00004a80       ??_C@_0BD@JOPG@glCombinerOutputNV?$AA@ 1009ea80     glmanager.obj
 0003:00004a94       ??_C@_0BC@CCPE@glCombinerInputNV?$AA@ 1009ea94     glmanager.obj
 0003:00004aa8       ??_C@_0BI@LIPL@glCombinerParameterfvNV?$AA@ 1009eaa8     glmanager.obj
 0003:00004ac0       ??_C@_0BH@OAAF@glCombinerParameteriNV?$AA@ 1009eac0     glmanager.obj
 0003:00004ad8       ??_C@_0BJ@ILPO@GL_NV_register_combiners?$AA@ 1009ead8     glmanager.obj
 0003:00004af4       ??_C@_0BF@ELGK@ARB_texture_env_dot3?$AA@ 1009eaf4     glmanager.obj
 0003:00004b0c       ??_C@_0BI@OLMF@ARB_texture_env_combine?$AA@ 1009eb0c     glmanager.obj
 0003:00004b24       ??_C@_0BC@PNDB@glGetProgramivARB?$AA@ 1009eb24     glmanager.obj
 0003:00004b38       ??_C@_0BD@LANC@glProgramStringARB?$AA@ 1009eb38     glmanager.obj
 0003:00004b4c       ??_C@_0BB@PKHI@glBindProgramARB?$AA@ 1009eb4c     glmanager.obj
 0003:00004b60       ??_C@_0BB@KFAE@glGenProgramsARB?$AA@ 1009eb60     glmanager.obj
 0003:00004b74       ??_C@_0BI@FHFF@GL_ARB_fragment_program?$AA@ 1009eb74     glmanager.obj
 0003:00004b8c       ??_C@_0BA@CJID@glLoadProgramNV?$AA@ 1009eb8c     glmanager.obj
 0003:00004b9c       ??_C@_0BA@OICO@glBindProgramNV?$AA@ 1009eb9c     glmanager.obj
 0003:00004bac       ??_C@_0BA@JEDH@glGenProgramsNV?$AA@ 1009ebac     glmanager.obj
 0003:00004bbc       ??_C@_0BH@EMBN@GL_NV_fragment_program?$AA@ 1009ebbc     glmanager.obj
 0003:00004bd4       ??_C@_0BI@BMEH@GL_ARB_texture_cube_map?$AA@ 1009ebd4     glmanager.obj
 0003:00004bec       ??_C@_0BA@LIMG@glTexImage3DEXT?$AA@ 1009ebec     glmanager.obj
 0003:00004bfc       ??_C@_0BB@JKDM@GL_EXT_texture3D?$AA@ 1009ebfc     glmanager.obj
 0003:00004c10       ??_C@_0BK@DFCD@glGetBufferParameterivARB?$AA@ 1009ec10     glmanager.obj
 0003:00004c2c       ??_C@_0BD@NMOF@glDeleteBuffersARB?$AA@ 1009ec2c     glmanager.obj
 0003:00004c40       ??_C@_0BA@HHJE@glBufferDataARB?$AA@ 1009ec40     glmanager.obj
 0003:00004c50       ??_C@_0BA@KOEM@glGenBuffersARB?$AA@ 1009ec50     glmanager.obj
 0003:00004c60       ??_C@_0BA@DLFE@glBindBufferARB?$AA@ 1009ec60     glmanager.obj
 0003:00004c70       ??_C@_0BM@HCAG@GL_ARB_vertex_buffer_object?$AA@ 1009ec70     glmanager.obj
 0003:00004c8c       ??_C@_0BJ@JIBP@GL_EXT_texture_rectangle?$AA@ 1009ec8c     glmanager.obj
 0003:00004ca8       ??_C@_0BJ@KEDP@GL_ARB_texture_rectangle?$AA@ 1009eca8     glmanager.obj
 0003:00004cc4       ??_C@_0BI@MNCE@GL_NV_texture_rectangle?$AA@ 1009ecc4     glmanager.obj
 0003:00004cdc       ??_C@_0BG@CDDE@NO?5SPRITE?5white?4spr?$CB?6?$AA@ 1009ecdc     glows.obj
 0003:00004cf4       ??_C@_0BC@GDBJ@sprites?1white?4spr?$AA@ 1009ecf4     glows.obj
 0003:00004d08       ??_C@_0DB@OKFD@GlowFilterEntities?5error?3?5sprite@ 1009ed08     glows.obj
 0003:00004d3c       ??_C@_0O@PBNI@gl_glowsdebug?$AA@ 1009ed3c     glows.obj
 0003:00004d4c       ??_C@_0P@NLAL@gl_glowstraces?$AA@ 1009ed4c     glows.obj
 0003:00004d5c       ??_C@_08CIKB@gl_glows?$AA@ 1009ed5c     glows.obj
 0003:00004d68       ??_C@_0DM@GNJJ@Warning?3?5new?5grass?5type?5ignored?5@ 1009ed68     grass.obj
 0003:00004da4       ??_C@_0DJ@JHMC@Warning?3?5new?5grass?5type?5ignored?5@ 1009eda4     grass.obj
 0003:00004de0       ??_C@_0DO@MOMC@Warning?3?5new?5grass?5type?5ignored?5@ 1009ede0     grass.obj
 0003:00004e20       ??_C@_0DI@KAIJ@Warning?3?5new?5grass?5type?5ignored?5@ 1009ee20     grass.obj
 0003:00004e58       ??_C@_0DN@HMNO@Warning?3?5new?5grass?5type?5ignored?5@ 1009ee58     grass.obj
 0003:00004e98       ??_C@_0DM@OHMJ@Warning?3?5new?5grass?5type?5ignored?5@ 1009ee98     grass.obj
 0003:00004ed4       ??_C@_09FBNN@GrassInfo?$AA@ 1009eed4     grass.obj
 0003:00004ee0       ?giDmgFlags@@3PAHA         1009eee0     health.obj
 0003:00004f10       ??_C@_06ILDP@Damage?$AA@   1009ef10     health.obj
 0003:00004f18       ??_C@_06MACP@Health?$AA@   1009ef18     health.obj
 0003:00004f20       ??_C@_05GKDA@cross?$AA@    1009ef20     health.obj
 0003:00004f28       ??_C@_07IKAO@dmg_bio?$AA@  1009ef28     health.obj
 0003:00004f30       ??_C@_0BE@LLHN@sprites?1?$CFd_pain?4spr?$AA@ 1009ef30     health.obj
 0003:00004f44       ??_C@_0BM@GCIH@END?5Initializing?5variables?6?$AA@ 1009ef44     hud.obj
 0003:00004f60       ??_C@_0M@EJMI@fmod_volume?$AA@ 1009ef60     hud.obj
 0003:00004f6c       ??_C@_03NNMA@1?40?$AA@     1009ef6c     hud.obj
 0003:00004f70       ??_C@_05LNCG@cl_lw?$AA@    1009ef70     hud.obj
 0003:00004f78       ??_C@_08OOEF@hud_draw?$AA@ 1009ef78     hud.obj
 0003:00004f84       ??_C@_0BB@MDCH@hud_capturemouse?$AA@ 1009ef84     hud.obj
 0003:00004f98       ??_C@_0M@LGII@cl_raininfo?$AA@ 1009ef98     hud.obj
 0003:00004fa4       ??_C@_0BH@GLOE@zoom_sensitivity_ratio?$AA@ 1009efa4     hud.obj
 0003:00004fbc       ??_C@_03IIOO@1?42?$AA@     1009efbc     hud.obj
 0003:00004fc0       ??_C@_07KGIO@stopmp3?$AA@  1009efc0     hud.obj
 0003:00004fc8       ??_C@_07KJDH@PlayMP3?$AA@  1009efc8     hud.obj
 0003:00004fd0       ??_C@_0P@HAKO@hud_takesshots?$AA@ 1009efd0     hud.obj
 0003:00004fe0       ??_C@_0BC@NDKN@hud_classautokill?$AA@ 1009efe0     hud.obj
 0003:00004ff4       ??_C@_0N@PBNH@cl_zoomspeed?$AA@ 1009eff4     hud.obj
 0003:00005004       ??_C@_03HFMC@100?$AA@      1009f004     hud.obj
 0003:00005008       ??_C@_08PMKA@VGUIMenu?$AA@ 1009f008     hud.obj
 0003:00005014       ??_C@_09MDMJ@AllowSpec?$AA@ 1009f014     hud.obj
 0003:00005020       ??_C@_09KHFB@Spectator?$AA@ 1009f020     hud.obj
 0003:0000502c       ??_C@_08DBKP@TeamInfo?$AA@ 1009f02c     hud.obj
 0003:00005038       ??_C@_09GODL@TeamScore?$AA@ 1009f038     hud.obj
 0003:00005044       ??_C@_09HCEC@ScoreInfo?$AA@ 1009f044     hud.obj
 0003:00005050       ??_C@_0L@PMLK@ServerName?$AA@ 1009f050     hud.obj
 0003:0000505c       ??_C@_08DIOF@RandomPC?$AA@ 1009f05c     hud.obj
 0003:00005068       ??_C@_07NAFI@BuildSt?$AA@  1009f068     hud.obj
 0003:00005070       ??_C@_04PAEL@MOTD?$AA@     1009f070     hud.obj
 0003:00005078       ??_C@_07KJIL@Detpack?$AA@  1009f078     hud.obj
 0003:00005080       ??_C@_05MAMC@Feign?$AA@    1009f080     hud.obj
 0003:00005088       ??_C@_09POID@TeamNames?$AA@ 1009f088     hud.obj
 0003:00005094       ??_C@_08PFGL@ValClass?$AA@ 1009f094     hud.obj
 0003:000050a0       ??_C@_0O@HIEL@togglebrowser?$AA@ 1009f0a0     hud.obj
 0003:000050b0       ??_C@_07LCAN@special?$AA@  1009f0b0     hud.obj
 0003:000050b8       ??_C@_0BG@GAJE@ForceCloseCommandMenu?$AA@ 1009f0b8     hud.obj
 0003:000050d0       ??_C@_0N@LLLM@?9commandmenu?$AA@ 1009f0d0     hud.obj
 0003:000050e0       ??_C@_0N@NHMD@?$CLcommandmenu?$AA@ 1009f0e0     hud.obj
 0003:000050f0       ??_C@_08COBI@RainData?$AA@ 1009f0f0     hud.obj
 0003:000050fc       ??_C@_0L@JIKE@TextWindow?$AA@ 1009f0fc     hud.obj
 0003:00005108       ??_C@_08NNPN@SpecTank?$AA@ 1009f108     hud.obj
 0003:00005114       ??_C@_07ODAP@GasMask?$AA@  1009f114     hud.obj
 0003:0000511c       ??_C@_06JMND@SetSky?$AA@   1009f11c     hud.obj
 0003:00005124       ??_C@_08HENO@AddShine?$AA@ 1009f124     hud.obj
 0003:00005130       ??_C@_0M@PEDE@KeyedDLight?$AA@ 1009f130     hud.obj
 0003:0000513c       ??_C@_06PPOF@SetFog?$AA@   1009f13c     hud.obj
 0003:00005144       ??_C@_08NEGD@HUDColor?$AA@ 1009f144     hud.obj
 0003:00005150       ??_C@_07GBJB@Concuss?$AA@  1009f150     hud.obj
 0003:00005158       ??_C@_06HLLA@SetFOV?$AA@   1009f158     hud.obj
 0003:00005160       ??_C@_08JBCB@ViewMode?$AA@ 1009f160     hud.obj
 0003:0000516c       ??_C@_07PHEM@InitHUD?$AA@  1009f16c     hud.obj
 0003:00005174       ??_C@_08MAFF@GameMode?$AA@ 1009f174     hud.obj
 0003:00005180       ??_C@_08EHIO@ResetHUD?$AA@ 1009f180     hud.obj
 0003:0000518c       ??_C@_04OKCJ@Logo?$AA@     1009f18c     hud.obj
 0003:00005194       ??_C@_0BI@HFIH@Initializing?5variables?6?$AA@ 1009f194     hud.obj
 0003:000051ac       ??_C@_0BI@DBIK@End?5Initializing?5video?6?$AA@ 1009f1ac     hud.obj
 0003:000051c4       ??_C@_08OJEB@number_0?$AA@ 1009f1c4     hud.obj
 0003:000051d0       ??_C@_0BA@KOLH@sprites?1hud?4txt?$AA@ 1009f1d0     hud.obj
 0003:000051e0       ??_C@_0BF@OICE@?6Initializing?5video?6?$AA@ 1009f1e0     hud.obj
 0003:000051f8       ??_C@_0M@IJBH@dmg_concuss?$AA@ 1009f1f8     hud_msg.obj
 0003:00005204       ?grgLogoFrame@@3PAHA       1009f204     hud_redraw.obj
 0003:000052e4       ??_C@_09FKM@snapshot?6?$AA@ 1009f2e4     hud_redraw.obj
 0003:000052f0       ??_C@_0BC@BILH@Using?5Head?5Shield?$AA@ 1009f2f0     hud_redraw.obj
 0003:00005304       ??_C@_0P@OOPL@Using?5Gas?5Mask?$AA@ 1009f304     hud_redraw.obj
 0003:00005314       ??_C@_02MECO@?$CFd?$AA@    1009f314     hud_redraw.obj
 0003:00005318       ??_C@_0CE@EOCA@Accumulation?5buffer?5is?5not?5prese@ 1009f318     hud_redraw.obj
 0003:0000533c       ??_C@_0BM@FNDP@GL?5effects?5are?5not?5allowed?6?$AA@ 1009f33c     hud_redraw.obj
 0003:00005358       ??_C@_09JAOA@got?5list?6?$AA@ 1009f358     hud_servers.obj
 0003:00005364       ??_C@_04LBKD@ping?$AA@     1009f364     hud_servers.obj
 0003:0000536c       ??_C@_07ONJG@address?$AA@  1009f36c     hud_servers.obj
 0003:00005374       ??_C@_02JAFN@?$CFi?$AA@    1009f374     hud_servers.obj
 0003:00005378       ??_C@_0M@LJKE@ping?5?$DN?$DN?5?$CFs?6?$AA@ 1009f378     hud_servers.obj
 0003:00005384       ??_C@_04LOLD@?$CF?42f?$AA@ 1009f384     hud_servers.obj
 0003:0000538c       ??_C@_09LDE@rules?5?$CFs?6?$AA@ 1009f38c     hud_servers.obj
 0003:00005398       ??_C@_0M@PDMO@players?5?$CFs?6?$AA@ 1009f398     hud_servers.obj
 0003:000053a4       ??_C@_08NNNB@hostname?$AA@ 1009f3a4     hud_servers.obj
 0003:000053b0       ??_C@_05CHHA@?$CFs?3?$CFi?$AA@ 1009f3b0     hud_servers.obj
 0003:000053b8       ??_C@_01PKAG@?3?$AA@       1009f3b8     hud_servers.obj
 0003:000053bc       ??_C@_02DILL@?$CFs?$AA@    1009f3bc     hud_servers.obj
 0003:000053c0       ??_C@_01KCD@?$HN?$AA@      1009f3c0     hud_servers.obj
 0003:000053c4       ??_C@_01PFFB@?$HL?$AA@     1009f3c4     hud_servers.obj
 0003:000053c8       ??_C@_06PJCF@Master?$AA@   1009f3c8     hud_servers.obj
 0003:000053d0       ??_C@_05HIFK@?9comm?$AA@   1009f3d0     hud_servers.obj
 0003:000053d8       ??_C@_0M@EKPE@woncomm?4lst?$AA@ 1009f3d8     hud_servers.obj
 0003:000053e4       ??_C@_0BH@PPFB@half?9life?4east?4won?4net?$AA@ 1009f3e4     hud_servers.obj
 0003:000053fc       ??_C@_0DG@MEPP@SendRequest?3?5?5Unable?5to?5read?5mas@ 1009f3fc     hud_servers.obj
 0003:00005434       ??_C@_0CO@LFHB@usage?3?5?5spec_mode?5?$DMMain?5Mode?$DO?5?$FL?$DM@ 1009f434     hud_spectator.obj
 0003:00005464       ??_C@_0BM@HCKM@drc_spray?5?$CF?42f?5?$CF?42f?5?$CF?42f?5?$CFi?$AA@ 1009f464     hud_spectator.obj
 0003:00005480       ??_C@_02JBML@?$CFc?$AA@    1009f480     hud_spectator.obj
 0003:00005484       ??_C@_0BA@CBAF@?$CDSpec_Help_Text?$AA@ 1009f484     hud_spectator.obj
 0003:00005494       ??_C@_0BJ@GNFK@usage?3?5?5spec_menu?5?$DM0?$HM1?$DO?6?$AA@ 1009f494     hud_spectator.obj
 0003:000054b0       ??_C@_0DD@LPOG@ERROR?$CB?5Couldn?8t?5register?5all?5spe@ 1009f4b0     hud_spectator.obj
 0003:000054e4       ??_C@_08INBB@spec_pip?$AA@ 1009f4e4     hud_spectator.obj
 0003:000054f0       ??_C@_0BC@NNFD@spec_autodirector?$AA@ 1009f4f0     hud_spectator.obj
 0003:00005504       ??_C@_0BA@DEND@spec_drawstatus?$AA@ 1009f504     hud_spectator.obj
 0003:00005514       ??_C@_0O@LCFB@spec_drawcone?$AA@ 1009f514     hud_spectator.obj
 0003:00005524       ??_C@_0P@KHIG@spec_drawnames?$AA@ 1009f524     hud_spectator.obj
 0003:00005534       ??_C@_0N@JFM@togglescores?$AA@ 1009f534     hud_spectator.obj
 0003:00005544       ??_C@_09IEFA@spec_menu?$AA@ 1009f544     hud_spectator.obj
 0003:00005550       ??_C@_09BJNE@spec_help?$AA@ 1009f550     hud_spectator.obj
 0003:0000555c       ??_C@_0L@BMLF@spec_decal?$AA@ 1009f55c     hud_spectator.obj
 0003:00005568       ??_C@_09IBLJ@spec_mode?$AA@ 1009f568     hud_spectator.obj
 0003:00005574       ??_C@_0DB@BDME@UTIL_FindEntityInMap?3?5closing?5br@ 1009f574     hud_spectator.obj
 0003:000055a8       ??_C@_0DB@KLMF@UTIL_FindEntityInMap?3?5EOF?5withou@ 1009f5a8     hud_spectator.obj
 0003:000055dc       ??_C@_0CC@LFBJ@UTIL_FindEntityInMap?3?5expected?5?$HL@ 1009f5dc     hud_spectator.obj
 0003:00005600       ??_C@_06NOHF@origin?$AA@   1009f600     hud_spectator.obj
 0003:00005608       ??_C@_06MFB@angles?$AA@    1009f608     hud_spectator.obj
 0003:00005610       ??_C@_05LIJM@angle?$AA@    1009f610     hud_spectator.obj
 0003:00005618       ??_C@_09JDJH@classname?$AA@ 1009f618     hud_spectator.obj
 0003:00005624       ??_C@_0BB@HJAP@info_player_coop?$AA@ 1009f624     hud_spectator.obj
 0003:00005638       ??_C@_0BH@MKJP@info_player_deathmatch?$AA@ 1009f638     hud_spectator.obj
 0003:00005650       ??_C@_0BC@MCPA@info_player_start?$AA@ 1009f650     hud_spectator.obj
 0003:00005664       ??_C@_0P@LDLO@trigger_camera?$AA@ 1009f664     hud_spectator.obj
 0003:00005674       ??_C@_0BH@CBNI@sprites?1crosshairs?4spr?$AA@ 1009f674     hud_spectator.obj
 0003:0000568c       ??_C@_0BD@IDOK@sprites?1camera?4spr?$AA@ 1009f68c     hud_spectator.obj
 0003:000056a0       ??_C@_0BG@MFBM@sprites?1laserbeam?4spr?$AA@ 1009f6a0     hud_spectator.obj
 0003:000056b8       ??_C@_0BB@KBPC@sprites?1tile?4spr?$AA@ 1009f6b8     hud_spectator.obj
 0003:000056cc       ??_C@_0BI@KIPC@sprites?1iplayerdead?4spr?$AA@ 1009f6cc     hud_spectator.obj
 0003:000056e4       ??_C@_0BH@NGFH@sprites?1iplayerred?4spr?$AA@ 1009f6e4     hud_spectator.obj
 0003:000056fc       ??_C@_0BI@OOIK@sprites?1iplayerblue?4spr?$AA@ 1009f6fc     hud_spectator.obj
 0003:00005714       ??_C@_0BE@CBOF@sprites?1iplayer?4spr?$AA@ 1009f714     hud_spectator.obj
 0003:00005728       ??_C@_0DF@KJLL@CHudSpectator?3?3DirectorMessage?3?5@ 1009f728     hud_spectator.obj
 0003:00005760       ??_C@_0M@DCHN@HUD_MESSAGE?$AA@ 1009f760     hud_spectator.obj
 0003:0000576c       ??_C@_0BG@OCOM@No?5observer?5targets?4?6?$AA@ 1009f76c     hud_spectator.obj
 0003:00005784       ??_C@_0O@JGHH@follownext?5?$CFi?$AA@ 1009f784     hud_spectator.obj
 0003:00005794       ??_C@_0BJ@LGBD@Invalid?5spectator?5mode?4?6?$AA@ 1009f794     hud_spectator.obj
 0003:000057b0       ??_C@_04BDKH@?$CFc?$CFs?$AA@ 1009f7b0     hud_spectator.obj
 0003:000057b8       ??_C@_0N@OEIM@?$CDSpec_Mode?$CFd?$AA@ 1009f7b8     hud_spectator.obj
 0003:000057c8       ??_C@_0CN@IBI@Error?5parsing?5overview?5file?5?$CFs?4?5@ 1009f7c8     hud_spectator.obj
 0003:000057f8       ??_C@_0DF@EJOJ@Error?5parsing?5overview?5file?5?$CFs?4?5@ 1009f7f8     hud_spectator.obj
 0003:00005830       ??_C@_0CP@FBDL@Error?5parsing?5overview?5file?5?$CFs?4?5@ 1009f830     hud_spectator.obj
 0003:00005860       ??_C@_06OKPG@height?$AA@   1009f860     hud_spectator.obj
 0003:00005868       ??_C@_05LEJM@image?$AA@    1009f868     hud_spectator.obj
 0003:00005870       ??_C@_05ELOL@layer?$AA@    1009f870     hud_spectator.obj
 0003:00005878       ??_C@_05HAJP@inset?$AA@    1009f878     hud_spectator.obj
 0003:00005880       ??_C@_07MOKO@rotated?$AA@  1009f880     hud_spectator.obj
 0003:00005888       ??_C@_06JFAO@global?$AA@   1009f888     hud_spectator.obj
 0003:00005890       ??_C@_0DP@BMGE@Couldn?8t?5open?5file?5?$CFs?4?5Using?5def@ 1009f890     hud_spectator.obj
 0003:000058d0       ??_C@_0BB@DAON@overviews?1?$CFs?4txt?$AA@ 1009f8d0     hud_spectator.obj
 0003:000058e4       ??_C@_0N@GNN@ignoremsg?5?$CFi?$AA@ 1009f8e4     hud_spectator.obj
 0003:000058f4       ??_C@_0M@NIDJ@cam_command?$AA@ 1009f8f4     in_camera.obj
 0003:00005900       ??_C@_0O@HDLK@c_mindistance?$AA@ 1009f900     in_camera.obj
 0003:00005910       ??_C@_04BPED@30?40?$AA@    1009f910     in_camera.obj
 0003:00005918       ??_C@_0O@KEJK@c_maxdistance?$AA@ 1009f918     in_camera.obj
 0003:00005928       ??_C@_05DGAA@200?40?$AA@   1009f928     in_camera.obj
 0003:00005930       ??_C@_08HEEL@c_minyaw?$AA@ 1009f930     in_camera.obj
 0003:0000593c       ??_C@_06HJPA@?9135?40?$AA@ 1009f93c     in_camera.obj
 0003:00005944       ??_C@_08PPKM@c_maxyaw?$AA@ 1009f944     in_camera.obj
 0003:00005950       ??_C@_05KDNF@135?40?$AA@   1009f950     in_camera.obj
 0003:00005958       ??_C@_0L@MCGD@c_minpitch?$AA@ 1009f958     in_camera.obj
 0003:00005964       ??_C@_03IPNG@0?40?$AA@     1009f964     in_camera.obj
 0003:00005968       ??_C@_0L@JBAM@c_maxpitch?$AA@ 1009f968     in_camera.obj
 0003:00005974       ??_C@_04HPHH@90?40?$AA@    1009f974     in_camera.obj
 0003:0000597c       ??_C@_0M@CHG@cam_contain?$AA@ 1009f97c     in_camera.obj
 0003:00005988       ??_C@_0O@KDID@cam_idealdist?$AA@ 1009f988     in_camera.obj
 0003:00005998       ??_C@_02JJMI@64?$AA@       1009f998     in_camera.obj
 0003:0000599c       ??_C@_0P@OFGG@cam_idealpitch?$AA@ 1009f99c     in_camera.obj
 0003:000059ac       ??_C@_0N@DLGI@cam_idealyaw?$AA@ 1009f9ac     in_camera.obj
 0003:000059bc       ??_C@_02OHJF@90?$AA@       1009f9bc     in_camera.obj
 0003:000059c0       ??_C@_0L@CHNG@cam_snapto?$AA@ 1009f9c0     in_camera.obj
 0003:000059cc       ??_C@_06HAON@snapto?$AA@   1009f9cc     in_camera.obj
 0003:000059d4       ??_C@_0N@CHNA@?9camdistance?$AA@ 1009f9d4     in_camera.obj
 0003:000059e4       ??_C@_0N@ELKP@?$CLcamdistance?$AA@ 1009f9e4     in_camera.obj
 0003:000059f4       ??_C@_0O@KPOF@?9cammousemove?$AA@ 1009f9f4     in_camera.obj
 0003:00005a04       ??_C@_0O@EIIJ@?$CLcammousemove?$AA@ 1009fa04     in_camera.obj
 0003:00005a14       ??_C@_0M@NCDD@firstperson?$AA@ 1009fa14     in_camera.obj
 0003:00005a20       ??_C@_0M@PBHN@thirdperson?$AA@ 1009fa20     in_camera.obj
 0003:00005a2c       ??_C@_07NNFI@?9camout?$AA@ 1009fa2c     in_camera.obj
 0003:00005a34       ??_C@_07DKCF@?$CLcamout?$AA@ 1009fa34     in_camera.obj
 0003:00005a3c       ??_C@_06CBEE@?9camin?$AA@  1009fa3c     in_camera.obj
 0003:00005a44       ??_C@_06FMIE@?$CLcamin?$AA@ 1009fa44     in_camera.obj
 0003:00005a4c       ??_C@_0N@LFE@?9camyawright?$AA@ 1009fa4c     in_camera.obj
 0003:00005a5c       ??_C@_0N@GHCL@?$CLcamyawright?$AA@ 1009fa5c     in_camera.obj
 0003:00005a6c       ??_C@_0M@GBBA@?9camyawleft?$AA@ 1009fa6c     in_camera.obj
 0003:00005a78       ??_C@_0M@BODA@?$CLcamyawleft?$AA@ 1009fa78     in_camera.obj
 0003:00005a84       ??_C@_0O@FMN@?9campitchdown?$AA@ 1009fa84     in_camera.obj
 0003:00005a94       ??_C@_0O@OCKB@?$CLcampitchdown?$AA@ 1009fa94     in_camera.obj
 0003:00005aa4       ??_C@_0M@NHJL@?9campitchup?$AA@ 1009faa4     in_camera.obj
 0003:00005ab0       ??_C@_0M@KILL@?$CLcampitchup?$AA@ 1009fab0     in_camera.obj
 0003:00005abc       ??_C@_08IHLG@in_jlook?$AA@ 1009fabc     input.obj
 0003:00005ac8       ??_C@_08OHEM@in_mlook?$AA@ 1009fac8     input.obj
 0003:00005ad4       ??_C@_08DLKC@in_graph?$AA@ 1009fad4     input.obj
 0003:00005ae0       ??_C@_0CO@OOGM@Three?5keys?5down?5for?5a?5button?5?8?$CFc@ 1009fae0     input.obj
 0003:00005b10       ??_C@_06MLIH@m_side?$AA@   1009fb10     input.obj
 0003:00005b18       ??_C@_03NLGO@0?48?$AA@     1009fb18     input.obj
 0003:00005b1c       ??_C@_09NFLM@m_forward?$AA@ 1009fb1c     input.obj
 0003:00005b28       ??_C@_05LLLA@m_yaw?$AA@    1009fb28     input.obj
 0003:00005b30       ??_C@_07FHKJ@m_pitch?$AA@  1009fb30     input.obj
 0003:00005b38       ??_C@_05GGO@0?4022?$AA@    1009fb38     input.obj
 0003:00005b40       ??_C@_0O@IMI@cl_vsmoothing?$AA@ 1009fb40     input.obj
 0003:00005b50       ??_C@_04IFNE@0?405?$AA@    1009fb50     input.obj
 0003:00005b58       ??_C@_0N@LIOC@cl_pitchdown?$AA@ 1009fb58     input.obj
 0003:00005b68       ??_C@_0L@FMOC@cl_pitchup?$AA@ 1009fb68     input.obj
 0003:00005b74       ??_C@_02PBA@89?$AA@        1009fb74     input.obj
 0003:00005b78       ??_C@_0BA@HCFJ@cl_movespeedkey?$AA@ 1009fb78     input.obj
 0003:00005b88       ??_C@_03HAGP@0?43?$AA@     1009fb88     input.obj
 0003:00005b8c       ??_C@_0N@DLCL@cl_sidespeed?$AA@ 1009fb8c     input.obj
 0003:00005b9c       ??_C@_0N@IFLM@cl_backspeed?$AA@ 1009fb9c     input.obj
 0003:00005bac       ??_C@_0BA@GNDE@cl_forwardspeed?$AA@ 1009fbac     input.obj
 0003:00005bbc       ??_C@_03GPIO@400?$AA@      1009fbbc     input.obj
 0003:00005bc0       ??_C@_0L@BDND@cl_upspeed?$AA@ 1009fbc0     input.obj
 0003:00005bcc       ??_C@_03PMLK@320?$AA@      1009fbcc     input.obj
 0003:00005bd0       ??_C@_0O@IBII@cl_pitchspeed?$AA@ 1009fbd0     input.obj
 0003:00005be0       ??_C@_03KOGH@225?$AA@      1009fbe0     input.obj
 0003:00005be4       ??_C@_0M@CKBA@cl_yawspeed?$AA@ 1009fbe4     input.obj
 0003:00005bf0       ??_C@_03JFFD@210?$AA@      1009fbf0     input.obj
 0003:00005bf4       ??_C@_0BB@MHNK@cl_anglespeedkey?$AA@ 1009fbf4     input.obj
 0003:00005c08       ??_C@_04KHAF@0?467?$AA@    1009fc08     input.obj
 0003:00005c10       ??_C@_0L@MEDB@lookspring?$AA@ 1009fc10     input.obj
 0003:00005c1c       ??_C@_0L@DEGL@lookstrafe?$AA@ 1009fc1c     input.obj
 0003:00005c28       ??_C@_06JOJM@?9break?$AA@  1009fc28     input.obj
 0003:00005c30       ??_C@_06ODFM@?$CLbreak?$AA@ 1009fc30     input.obj
 0003:00005c38       ??_C@_06HFMM@?9graph?$AA@  1009fc38     input.obj
 0003:00005c40       ??_C@_06IAM@?$CLgraph?$AA@ 1009fc40     input.obj
 0003:00005c48       ??_C@_0M@CDNF@?9showscores?$AA@ 1009fc48     input.obj
 0003:00005c54       ??_C@_0M@FMPF@?$CLshowscores?$AA@ 1009fc54     input.obj
 0003:00005c60       ??_C@_06ICJL@?9score?$AA@  1009fc60     input.obj
 0003:00005c68       ??_C@_06PPFL@?$CLscore?$AA@ 1009fc68     input.obj
 0003:00005c70       ??_C@_05PPMG@?9alt1?$AA@   1009fc70     input.obj
 0003:00005c78       ??_C@_05DPBJ@?$CLalt1?$AA@ 1009fc78     input.obj
 0003:00005c80       ??_C@_07COEO@?9reload?$AA@ 1009fc80     input.obj
 0003:00005c88       ??_C@_07MJDD@?$CLreload?$AA@ 1009fc88     input.obj
 0003:00005c90       ??_C@_05KKMP@?9duck?$AA@   1009fc90     input.obj
 0003:00005c98       ??_C@_05GKBA@?$CLduck?$AA@ 1009fc98     input.obj
 0003:00005ca0       ??_C@_06MJNI@?9jlook?$AA@  1009fca0     input.obj
 0003:00005ca8       ??_C@_06LEBI@?$CLjlook?$AA@ 1009fca8     input.obj
 0003:00005cb0       ??_C@_06KJCC@?9mlook?$AA@  1009fcb0     input.obj
 0003:00005cb8       ??_C@_06NEOC@?$CLmlook?$AA@ 1009fcb8     input.obj
 0003:00005cc0       ??_C@_06GJPN@?9klook?$AA@  1009fcc0     input.obj
 0003:00005cc8       ??_C@_06BEDN@?$CLklook?$AA@ 1009fcc8     input.obj
 0003:00005cd0       ??_C@_07ENEF@impulse?$AA@  1009fcd0     input.obj
 0003:00005cd8       ??_C@_05JPGJ@?9jump?$AA@   1009fcd8     input.obj
 0003:00005ce0       ??_C@_05FPLG@?$CLjump?$AA@ 1009fce0     input.obj
 0003:00005ce8       ??_C@_04BFNL@?9use?$AA@    1009fce8     input.obj
 0003:00005cf0       ??_C@_04MKDH@?$CLuse?$AA@  1009fcf0     input.obj
 0003:00005cf8       ??_C@_08JPPJ@?9attack2?$AA@ 1009fcf8     input.obj
 0003:00005d04       ??_C@_08CPBO@?$CLattack2?$AA@ 1009fd04     input.obj
 0003:00005d10       ??_C@_07EHKH@?9attack?$AA@ 1009fd10     input.obj
 0003:00005d18       ??_C@_07KANK@?$CLattack?$AA@ 1009fd18     input.obj
 0003:00005d20       ??_C@_06CNLP@?9speed?$AA@  1009fd20     input.obj
 0003:00005d28       ??_C@_06FAHP@?$CLspeed?$AA@ 1009fd28     input.obj
 0003:00005d30       ??_C@_0L@BMPO@?9moveright?$AA@ 1009fd30     input.obj
 0003:00005d3c       ??_C@_0L@DMHD@?$CLmoveright?$AA@ 1009fd3c     input.obj
 0003:00005d48       ??_C@_09MLIL@?9moveleft?$AA@ 1009fd48     input.obj
 0003:00005d54       ??_C@_09EGDL@?$CLmoveleft?$AA@ 1009fd54     input.obj
 0003:00005d60       ??_C@_07OMD@?9strafe?$AA@  1009fd60     input.obj
 0003:00005d68       ??_C@_07OJLO@?$CLstrafe?$AA@ 1009fd68     input.obj
 0003:00005d70       ??_C@_09OKBO@?9lookdown?$AA@ 1009fd70     input.obj
 0003:00005d7c       ??_C@_09GHKO@?$CLlookdown?$AA@ 1009fd7c     input.obj
 0003:00005d88       ??_C@_07PBGO@?9lookup?$AA@ 1009fd88     input.obj
 0003:00005d90       ??_C@_07BGBD@?$CLlookup?$AA@ 1009fd90     input.obj
 0003:00005d98       ??_C@_05BMBD@?9back?$AA@   1009fd98     input.obj
 0003:00005da0       ??_C@_05NMMM@?$CLback?$AA@ 1009fda0     input.obj
 0003:00005da8       ??_C@_08MLFI@?9forward?$AA@ 1009fda8     input.obj
 0003:00005db4       ??_C@_08HLLP@?$CLforward?$AA@ 1009fdb4     input.obj
 0003:00005dc0       ??_C@_06CDHA@?9right?$AA@  1009fdc0     input.obj
 0003:00005dc8       ??_C@_06FOLA@?$CLright?$AA@ 1009fdc8     input.obj
 0003:00005dd0       ??_C@_05EFBI@?9left?$AA@   1009fdd0     input.obj
 0003:00005dd8       ??_C@_05IFMH@?$CLleft?$AA@ 1009fdd8     input.obj
 0003:00005de0       ??_C@_09BGG@?9movedown?$AA@ 1009fde0     input.obj
 0003:00005dec       ??_C@_09IMNG@?$CLmovedown?$AA@ 1009fdec     input.obj
 0003:00005df8       ??_C@_07ECOP@?9moveup?$AA@ 1009fdf8     input.obj
 0003:00005e00       ??_C@_07KFJC@?$CLmoveup?$AA@ 1009fe00     input.obj
 0003:00005e18       ?dwAxisFlags@@3PAKA        1009fe18     inputw32.obj
 0003:00005e30       ??_C@_0P@IDIM@?9noforcemparms?$AA@ 1009fe30     inputw32.obj
 0003:00005e40       ??_C@_0P@FFN@?9noforcemaccel?$AA@ 1009fe40     inputw32.obj
 0003:00005e50       ??_C@_0N@FJKO@?9noforcemspd?$AA@ 1009fe50     inputw32.obj
 0003:00005e60       ??_C@_08HGMM@?9nomouse?$AA@ 1009fe60     inputw32.obj
 0003:00005e6c       ??_C@_0BB@EAAK@joystick?5found?6?6?$AA@ 1009fe6c     inputw32.obj
 0003:00005e80       ??_C@_0DL@NLIF@joystick?5not?5found?5?9?9?5invalid?5jo@ 1009fe80     inputw32.obj
 0003:00005ebc       ??_C@_0DA@BGGP@joystick?5not?5found?5?9?9?5no?5valid?5j@ 1009febc     inputw32.obj
 0003:00005eec       ??_C@_0CL@OFOO@joystick?5not?5found?5?9?9?5driver?5not@ 1009feec     inputw32.obj
 0003:00005f18       ??_C@_06MAKJ@?9nojoy?$AA@  1009ff18     inputw32.obj
 0003:00005f20       ??_C@_0BB@KOMD@?6?$CFs?5configured?6?6?$AA@ 1009ff20     inputw32.obj
 0003:00005f34       ??_C@_08GHPG@joystick?$AA@ 1009ff34     inputw32.obj
 0003:00005f40       ??_C@_0BC@OLGL@joyadvancedupdate?$AA@ 1009ff40     inputw32.obj
 0003:00005f54       ??_C@_0BB@GLEF@force_centerview?$AA@ 1009ff54     inputw32.obj
 0003:00005f68       ??_C@_0L@OKNI@joywwhack2?$AA@ 1009ff68     inputw32.obj
 0003:00005f74       ??_C@_0L@BFGB@joywwhack1?$AA@ 1009ff74     inputw32.obj
 0003:00005f80       ??_C@_0BC@ODGG@joyyawsensitivity?$AA@ 1009ff80     inputw32.obj
 0003:00005f94       ??_C@_0BE@BPOE@joypitchsensitivity?$AA@ 1009ff94     inputw32.obj
 0003:00005fa8       ??_C@_0BD@NMFD@joysidesensitivity?$AA@ 1009ffa8     inputw32.obj
 0003:00005fbc       ??_C@_0BG@JKFB@joyforwardsensitivity?$AA@ 1009ffbc     inputw32.obj
 0003:00005fd4       ??_C@_04ONAI@?91?40?$AA@   1009ffd4     inputw32.obj
 0003:00005fdc       ??_C@_0BA@IJLN@joyyawthreshold?$AA@ 1009ffdc     inputw32.obj
 0003:00005fec       ??_C@_0BC@LPHO@joypitchthreshold?$AA@ 1009ffec     inputw32.obj
 0003:00006000       ??_C@_0BB@NEAN@joysidethreshold?$AA@ 100a0000     inputw32.obj
 0003:00006014       ??_C@_0BE@BIEK@joyforwardthreshold?$AA@ 100a0014     inputw32.obj
 0003:00006028       ??_C@_04JDHO@0?415?$AA@    100a0028     inputw32.obj
 0003:00006030       ??_C@_0M@FDIE@joyadvaxisv?$AA@ 100a0030     inputw32.obj
 0003:0000603c       ??_C@_0M@KMDN@joyadvaxisu?$AA@ 100a003c     inputw32.obj
 0003:00006048       ??_C@_0M@PJNI@joyadvaxisr?$AA@ 100a0048     inputw32.obj
 0003:00006054       ??_C@_0M@KNGA@joyadvaxisz?$AA@ 100a0054     inputw32.obj
 0003:00006060       ??_C@_0M@FCNJ@joyadvaxisy?$AA@ 100a0060     inputw32.obj
 0003:0000606c       ??_C@_0M@PIEO@joyadvaxisx?$AA@ 100a006c     inputw32.obj
 0003:00006078       ??_C@_0M@MNJ@joyadvanced?$AA@ 100a0078     inputw32.obj
 0003:00006084       ??_C@_07IGAI@joyname?$AA@  100a0084     inputw32.obj
 0003:0000608c       ??_C@_0M@CKB@sensitivity?$AA@ 100a008c     inputw32.obj
 0003:00006098       ??_C@_01ECJ@3?$AA@         100a0098     inputw32.obj
 0003:0000609c       ??_C@_08MAF@m_filter?$AA@  100a009c     inputw32.obj
 0003:000060a8       ??_C@_02JNFB@at?$AA@       100a00a8     log.obj
 0003:000060ac       ??_C@_0DC@OJIL@?$DN?$DN?$DN?$DN?$DN?$DN?$DN?$DN?$DN?$DN?$DN?$DN?$DN?$DN?$DN?$DN?$DN?$DN?$DN?$DN?$DN?$DN?$DN?$DN?$DN?$DN?$DN?$DN?$DN?$DN?$DN?$DN@ 100a00ac     log.obj
 0003:000060e0       ??_C@_0DB@GPJA@?$CK?5?5?5Paranoia?5client?5library?5load@ 100a00e0     log.obj
 0003:00006114       ??_C@_0DB@BNCG@?$DN?$DN?$DN?$DN?$DN?$DN?$DN?$DN?$DN?$DN?$DN?$DN?$DN?$DN?$DN?$DN?$DN?$DN?$DN?$DN?$DN?$DN?$DN?$DN?$DN?$DN?$DN?$DN?$DN?$DN?$DN?$DN@ 100a0114     log.obj
 0003:00006148       ??_C@_04CGGL@?9log?$AA@    100a0148     log.obj
 0003:00006150       ??_C@_08GKEI@?9logkeep?$AA@ 100a0150     log.obj
 0003:0000615c       ??_C@_08FEII@ShowMenu?$AA@ 100a015c     menu.obj
 0003:00006168       ??_C@_0P@ECND@menuselect?5?$CFd?6?$AA@ 100a0168     menu.obj
 0003:00006178       ?g_pCustomName@@3PADA      100a0178     message.obj
 0003:0000617c       ??_C@_06JLAI@Custom?$AA@   100a017c     message.obj
 0003:00006184       ??_C@_09KAAJ@GameTitle?$AA@ 100a0184     message.obj
 0003:00006190       ??_C@_07EFI@HudText?$AA@   100a0190     message.obj
 0003:00006198       ??_C@_0L@BLCO@title_life?$AA@ 100a0198     message.obj
 0003:000061a4       ??_C@_0L@HJGL@title_half?$AA@ 100a01a4     message.obj
 0003:000061b0       ??_C@_09KMEO@GAMETITLE?$AA@ 100a01b0     message.obj
 0003:000061bc       ??_C@_0CP@HBMJ@Fatal?5Error?3?5FMOD?5library?5couldn@ 100a01bc     mp3.obj
 0003:000061ec       ??_C@_0DB@CLFH@Fatal?5Error?3?5FMOD?5functions?5coul@ 100a01ec     mp3.obj
 0003:00006220       ??_C@_0BL@JHIA@FMOD?5v?4?$CFf?5library?5loaded?4?6?$AA@ 100a0220     mp3.obj
 0003:0000623c       ??_C@_0BE@NGFM@_FSOUND_SetVolume?$EA8?$AA@ 100a023c     mp3.obj
 0003:00006250       ??_C@_0BA@DOLH@_FSOUND_Close?$EA0?$AA@ 100a0250     mp3.obj
 0003:00006260       ??_C@_0BG@GFKK@_FSOUND_Stream_Play?$EA8?$AA@ 100a0260     mp3.obj
 0003:00006278       ??_C@_0BH@HLOP@_FSOUND_Stream_Open?$EA16?$AA@ 100a0278     mp3.obj
 0003:00006290       ??_C@_0BL@KIBC@_FSOUND_Stream_OpenFile?$EA12?$AA@ 100a0290     mp3.obj
 0003:000062ac       ??_C@_0BA@IFD@_FSOUND_Init?$EA12?$AA@ 100a02ac     mp3.obj
 0003:000062bc       ??_C@_0BE@KFOM@_FSOUND_SetDriver?$EA4?$AA@ 100a02bc     mp3.obj
 0003:000062d0       ??_C@_0BI@GLMB@_FSOUND_SetBufferSize?$EA4?$AA@ 100a02d0     mp3.obj
 0003:000062e8       ??_C@_0BE@LIKJ@_FSOUND_SetOutput?$EA4?$AA@ 100a02e8     mp3.obj
 0003:000062fc       ??_C@_0BH@JEBP@_FSOUND_Stream_Close?$EA4?$AA@ 100a02fc     mp3.obj
 0003:00006314       ??_C@_0BF@DNJL@_FSOUND_GetVersion?$EA0?$AA@ 100a0314     mp3.obj
 0003:0000632c       ??_C@_0BE@BAGI@?$CFs?1cl_dlls?1fmod?4dll?$AA@ 100a032c     mp3.obj
 0003:00006340       ??_C@_0BK@NBHN@Error?3?5Could?5not?5load?5?$CFs?6?$AA@ 100a0340     mp3.obj
 0003:0000635c       ??_C@_08FFNH@Particle?$AA@ 100a035c     particlemsg.obj
 0003:00006368       ??_C@_08KONE@maintype?$AA@ 100a0368     particlesys.obj
 0003:00006374       ??_C@_09BKLJ@particles?$AA@ 100a0374     particlesys.obj
 0003:00006380       ??_C@_0EC@KAIK@Couldn?8t?5open?5particle?5file?5?$CFs?4?5@ 100a0380     particlesys.obj
 0003:000063c4       ??_C@_0CF@IBBN@?3?3?5particle?5system?5created?5?$CI?$CFd?0?5@ 100a03c4     particlesys.obj
 0003:000063ec       ??_C@_0BN@ICJM@?3?3?5particle?5system?5deleted?5?6?$AA@ 100a03ec     particlesys.obj
 0003:0000640c       ??_C@_08MIJL@special3?$AA@ 100a040c     particlesys.obj
 0003:00006418       ??_C@_08GCAM@special2?$AA@ 100a0418     particlesys.obj
 0003:00006424       ??_C@_08JNLF@special1?$AA@ 100a0424     particlesys.obj
 0003:00006430       ??_C@_05CCAC@water?$AA@    100a0430     particlesys.obj
 0003:00006438       ??_C@_05EAJN@empty?$AA@    100a0438     particlesys.obj
 0003:00006440       ??_C@_0O@JGMK@drawcondition?$AA@ 100a0440     particlesys.obj
 0003:00006450       ??_C@_05HMGA@color?$AA@    100a0450     particlesys.obj
 0003:00006458       ??_C@_07DIGL@texture?$AA@  100a0458     particlesys.obj
 0003:00006460       ??_C@_05FPMI@solid?$AA@    100a0460     particlesys.obj
 0003:00006468       ??_C@_08DJH@additive?$AA@  100a0468     particlesys.obj
 0003:00006474       ??_C@_0L@MGOP@rendermode?$AA@ 100a0474     particlesys.obj
 0003:00006480       ??_C@_0P@DPKE@bouncefriction?$AA@ 100a0480     particlesys.obj
 0003:00006490       ??_C@_06IIMB@bounce?$AA@   100a0490     particlesys.obj
 0003:00006498       ??_C@_04OCCP@drag?$AA@     100a0498     particlesys.obj
 0003:000064a0       ??_C@_08CIIF@sprayyaw?$AA@ 100a04a0     particlesys.obj
 0003:000064ac       ??_C@_0L@NHGA@spraypitch?$AA@ 100a04ac     particlesys.obj
 0003:000064b8       ??_C@_0L@HCAC@sprayforce?$AA@ 100a04b8     particlesys.obj
 0003:000064c4       ??_C@_09NNFK@sprayrate?$AA@ 100a04c4     particlesys.obj
 0003:000064d0       ??_C@_0M@ENIN@overlaytype?$AA@ 100a04d0     particlesys.obj
 0003:000064dc       ??_C@_09OJMD@spraytype?$AA@ 100a04dc     particlesys.obj
 0003:000064e8       ??_C@_08IEOE@lifetime?$AA@ 100a04e8     particlesys.obj
 0003:000064f4       ??_C@_09EAGC@framerate?$AA@ 100a04f4     particlesys.obj
 0003:00006500       ??_C@_08MACA@endframe?$AA@ 100a0500     particlesys.obj
 0003:0000650c       ??_C@_0L@PCM@startframe?$AA@ 100a050c     particlesys.obj
 0003:00006518       ??_C@_0L@FNDH@angledelta?$AA@ 100a0518     particlesys.obj
 0003:00006524       ??_C@_0L@HPPC@startangle?$AA@ 100a0524     particlesys.obj
 0003:00006530       ??_C@_07NJMA@endsize?$AA@  100a0530     particlesys.obj
 0003:00006538       ??_C@_09NIDB@sizedelta?$AA@ 100a0538     particlesys.obj
 0003:00006544       ??_C@_09NFDA@startsize?$AA@ 100a0544     particlesys.obj
 0003:00006550       ??_C@_07GHPO@endblue?$AA@  100a0550     particlesys.obj
 0003:00006558       ??_C@_09GLAO@startblue?$AA@ 100a0558     particlesys.obj
 0003:00006564       ??_C@_08DGAK@endgreen?$AA@ 100a0564     particlesys.obj
 0003:00006570       ??_C@_0L@PJAG@startgreen?$AA@ 100a0570     particlesys.obj
 0003:0000657c       ??_C@_06JEBK@endred?$AA@   100a057c     particlesys.obj
 0003:00006584       ??_C@_08GEGM@startred?$AA@ 100a0584     particlesys.obj
 0003:00006590       ??_C@_08JFKH@endalpha?$AA@ 100a0590     particlesys.obj
 0003:0000659c       ??_C@_0L@FKKL@startalpha?$AA@ 100a059c     particlesys.obj
 0003:000065a8       ??_C@_06GLMF@sprite?$AA@   100a05a8     particlesys.obj
 0003:000065b0       ??_C@_0N@LOKJ@windstrength?$AA@ 100a05b0     particlesys.obj
 0003:000065c0       ??_C@_07FCBI@windyaw?$AA@  100a05c0     particlesys.obj
 0003:000065c8       ??_C@_07CAPN@gravity?$AA@  100a05c8     particlesys.obj
 0003:000065d0       ??_C@_0DG@OOKN@Warning?3?5Particle?5type?5?$CFs?5is?5def@ 100a05d0     particlesys.obj
 0003:00006608       ??_C@_04OPJK@name?$AA@     100a0608     particlesys.obj
 0003:00006670       _nanmask                   100a0670     pm_math.obj
