 spirit

 Timestamp is 60241189 (Thu Feb 11 00:02:01 2021)

 Preferred load address is 10000000

 Start         Length     Name                   Class
 0001:00000000 000d33b6H .text                   CODE
 0002:00000000 000000f4H .idata$5                DATA
 0002:00000100 0001f621H .rdata                  DATA
 0002:0001f724 00000014H .idata$2                DATA
 0002:0001f738 00000014H .idata$3                DATA
 0002:0001f74c 000000f4H .idata$4                DATA
 0002:0001f840 00000428H .idata$6                DATA
 0002:0001fc70 00005a44H .edata                  DATA
 0003:00000000 00000004H .CRT$XCA                DATA
 0003:00000004 0000003cH .CRT$XCU                DATA
 0003:00000040 00000004H .CRT$XCZ                DATA
 0003:00000044 00000004H .CRT$XIA                DATA
 0003:00000048 0000000cH .CRT$XIC                DATA
 0003:00000054 00000004H .CRT$XIZ                DATA
 0003:00000058 00000004H .CRT$XPA                DATA
 0003:0000005c 00000004H .CRT$XPX                DATA
 0003:00000060 00000004H .CRT$XPZ                DATA
 0003:00000064 00000004H .CRT$XTA                DATA
 0003:00000068 00000004H .CRT$XTZ                DATA
 0003:00000070 000222c4H .data                   DATA
 0003:00022338 00012a88H .bss                    DATA

  Address         Publics by Value              Rva+Base     Lib:Object

 0001:00000000       ?Save@CFlockingFlyerFlock@@UAEHAAVCSave@@@Z 10001000 f   aflock.obj
 0001:00000070       ?Restore@CFlockingFlyerFlock@@UAEHAAVCRestore@@@Z 10001070 f   aflock.obj
 0001:000000a0       _monster_flyer             100010a0 f   aflock.obj
 0001:00000100       _monster_flyer_flock       10001100 f   aflock.obj
 0001:00000160       ?Save@CFlockingFlyer@@UAEHAAVCSave@@@Z 10001160 f   aflock.obj
 0001:000001d0       ?Restore@CFlockingFlyer@@UAEHAAVCRestore@@@Z 100011d0 f   aflock.obj
 0001:00000200       ?KeyValue@CFlockingFlyerFlock@@UAEXPAUKeyValueData_s@@@Z 10001200 f   aflock.obj
 0001:000002c0       ?Spawn@CFlockingFlyerFlock@@UAEXXZ 100012c0 f   aflock.obj
 0001:000002f0       ?Precache@CFlockingFlyerFlock@@UAEXXZ 100012f0 f   aflock.obj
 0001:000002f0       ?Precache@CFlockingFlyer@@UAEXXZ 100012f0 f   aflock.obj
 0001:00000310       ?PrecacheFlockSounds@CFlockingFlyerFlock@@SAXXZ 10001310 f   aflock.obj
 0001:00000340       ?SpawnFlock@CFlockingFlyerFlock@@QAEXXZ 10001340 f   aflock.obj
 0001:00000540       ?Spawn@CFlockingFlyer@@UAEXXZ 10001540 f   aflock.obj
 0001:00000580       ?MakeSound@CFlockingFlyer@@QAEXXZ 10001580 f   aflock.obj
 0001:00000660       ?Killed@CFlockingFlyer@@UAEXPAUentvars_s@@H@Z 10001660 f   aflock.obj
 0001:00000740       ?FallHack@CFlockingFlyer@@QAEXXZ 10001740 f   aflock.obj
 0001:000007f0       ?SpawnCommonCode@CFlockingFlyer@@QAEXXZ 100017f0 f   aflock.obj
 0001:000008c0       ?BoidAdvanceFrame@CFlockingFlyer@@QAEXXZ 100018c0 f   aflock.obj
 0001:00000970       ?IdleThink@CFlockingFlyer@@QAEXXZ 10001970 f   aflock.obj
 0001:000009c0       ?Start@CFlockingFlyer@@QAEXXZ 100019c0 f   aflock.obj
 0001:00000a10       ?FormFlock@CFlockingFlyer@@QAEXXZ 10001a10 f   aflock.obj
 0001:00000b00       ?SpreadFlock@CFlockingFlyer@@QAEXXZ 10001b00 f   aflock.obj
 0001:00000d40       ??0Vector@@QAE@MMM@Z       10001d40 f i aflock.obj
 0001:00000d60       ?SpreadFlock2@CFlockingFlyer@@QAEXXZ 10001d60 f   aflock.obj
 0001:00000e90       ?FPathBlocked@CFlockingFlyer@@QAEHXZ 10001e90 f   aflock.obj
 0001:00001230       ??GVector@@QBE?AV0@ABV0@@Z 10002230 f i aflock.obj
 0001:00001260       ??DVector@@QBE?AV0@M@Z     10002260 f i aflock.obj
 0001:00001290       ?FlockLeaderThink@CFlockingFlyer@@QAEXXZ 10002290 f   aflock.obj
 0001:00001660       ?FlockFollowerThink@CFlockingFlyer@@QAEXXZ 10002660 f   aflock.obj
 0001:000019d0       ?SetNextThink@CBaseEntity@@UAEXM@Z 100029d0 f i aflock.obj
 0001:000019e0       ?AbsoluteNextThink@CBaseEntity@@UAEXM@Z 100029e0 f i aflock.obj
 0001:000019f0       ?CalcVelocity@CBaseEntity@@UAE?AVVector@@PAV1@@Z 100029f0 f i aflock.obj
 0001:00001a10       ?SendInitMessage@CBaseEntity@@UAEXPAVCBasePlayer@@@Z 10002a10 f i aflock.obj
 0001:00001a10       ?BlockedByPlayer@CBaseMonster@@UAEXPAVCBasePlayer@@@Z 10002a10 f i aflock.obj
 0001:00001a10       ?SetToggleState@CBaseEntity@@UAEXH@Z 10002a10 f i aflock.obj
 0001:00001a10       ?GasWarning@CBaseEntity@@UAEXH@Z 10002a10 f i aflock.obj
 0001:00001a10       ?HandleAnimEvent@CBaseAnimating@@UAEXPAUMonsterEvent_t@@@Z 10002a10 f i aflock.obj
 0001:00001a10       ?DeathNotice@CBaseEntity@@UAEXPAUentvars_s@@@Z 10002a10 f i aflock.obj
 0001:00001a10       ?TalkAboutDeadFriend@CTalkMonster@@UAEXPAV1@@Z 10002a10 f i aflock.obj
 0001:00001a10       ?UpdateGameMode@CGameRules@@UAEXPAVCBasePlayer@@@Z 10002a10 f i aflock.obj
 0001:00001a20       ?ObjectCaps@CBaseEntity@@UAEHXZ 10002a20 f i aflock.obj
 0001:00001a40       ?GibMonster@CBaseTurret@@UAEXXZ 10002a40 f i aflock.obj
 0001:00001a40       ?StartSneaking@CBaseEntity@@UAEXXZ 10002a40 f i aflock.obj
 0001:00001a40       ?DeathSound@CBaseMonster@@UAEXXZ 10002a40 f i aflock.obj
 0001:00001a40       ?FlushChanges@CBaseAlias@@UAEXXZ 10002a40 f i aflock.obj
 0001:00001a40       ?PainSound@CBaseMonster@@UAEXXZ 10002a40 f i aflock.obj
 0001:00001a40       ?IdleSound@CBaseMonster@@UAEXXZ 10002a40 f i aflock.obj
 0001:00001a40       ?DesiredAction@CBaseEntity@@UAEXXZ 10002a40 f i aflock.obj
 0001:00001a40       ?DeclineFollowing@CTalkMonster@@UAEXXZ 10002a40 f i aflock.obj
 0001:00001a40       ?WeaponIdle@CBasePlayerWeapon@@UAEXXZ 10002a40 f i aflock.obj
 0001:00001a40       ?Attack1@CBaseToggleWeapon@@UAEXXZ 10002a40 f i aflock.obj
 0001:00001a40       ?OverrideReset@CBaseEntity@@UAEXXZ 10002a40 f i aflock.obj
 0001:00001a40       ?SecondaryAttack@CBasePlayerWeapon@@UAEXXZ 10002a40 f i aflock.obj
 0001:00001a40       ?Idle1@CBaseToggleWeapon@@UAEXXZ 10002a40 f i aflock.obj
 0001:00001a40       ?EndMultiplayerGame@CGameRules@@UAEXXZ 10002a40 f i aflock.obj
 0001:00001a40       ?PostSpawn@CBaseEntity@@UAEXXZ 10002a40 f i aflock.obj
 0001:00001a40       ?Reload1@CBaseToggleWeapon@@UAEXXZ 10002a40 f i aflock.obj
 0001:00001a40       ?Spawn@CBaseEntity@@UAEXXZ 10002a40 f i aflock.obj
 0001:00001a40       ?CheckAmmo@CBaseMonster@@UAEXXZ 10002a40 f i aflock.obj
 0001:00001a40       ?AlertSound@CBaseMonster@@UAEXXZ 10002a40 f i aflock.obj
 0001:00001a40       ?ItemPreFrame@CBasePlayerItem@@UAEXXZ 10002a40 f i aflock.obj
 0001:00001a40       ?PrescheduleThink@CBaseMonster@@UAEXXZ 10002a40 f i aflock.obj
 0001:00001a40       ?Precache@CBaseEntity@@UAEXXZ 10002a40 f i aflock.obj
 0001:00001a40       ?PostSpawn@CRotDoor@@UAEXXZ 10002a40 f i aflock.obj
 0001:00001a40       ?StopSneaking@CBaseEntity@@UAEXXZ 10002a40 f i aflock.obj
 0001:00001a40       ?UpdateItemInfo@CBasePlayerWeapon@@UAEXXZ 10002a40 f i aflock.obj
 0001:00001a40       ?Attack2@CBaseToggleWeapon@@UAEXXZ 10002a40 f i aflock.obj
 0001:00001a40       ?UpdateOwner@CBaseEntity@@UAEXXZ 10002a40 f i aflock.obj
 0001:00001a40       ?Reload2@CBaseToggleWeapon@@UAEXXZ 10002a40 f i aflock.obj
 0001:00001a40       ?SetYawSpeed@CBaseMonster@@UAEXXZ 10002a40 f i aflock.obj
 0001:00001a40       ?PostSpawn@CRotButton@@UAEXXZ 10002a40 f i aflock.obj
 0001:00001a40       ?ScheduleChange@CBaseMonster@@UAEXXZ 10002a40 f i aflock.obj
 0001:00001a40       ?Reload@CBasePlayerWeapon@@UAEXXZ 10002a40 f i aflock.obj
 0001:00001a40       ?Idle2@CBaseToggleWeapon@@UAEXXZ 10002a40 f i aflock.obj
 0001:00001a40       ?PlayerJump@CBasePlayerItem@@UAEXXZ 10002a40 f i aflock.obj
 0001:00001a50       ?SquadUnlink@CFlockingFlyer@@QAEXXZ 10002a50 f   aflock.obj
 0001:00001a60       ?GetState@CBaseEntity@@UAE?AW4STATE@@PAV1@@Z 10002a60 f i aflock.obj
 0001:00001a70       ?SquadAdd@CFlockingFlyer@@QAEXPAV1@@Z 10002a70 f   aflock.obj
 0001:00001a90       ?SquadRemove@CFlockingFlyer@@QAEXPAV1@@Z 10002a90 f   aflock.obj
 0001:00001b30       ?AddPoints@CBaseEntity@@UAEXHH@Z 10002b30 f i aflock.obj
 0001:00001b30       ?AddPointsToTeam@CBaseEntity@@UAEXHH@Z 10002b30 f i aflock.obj
 0001:00001b30       ?StopFollowing@CBaseMonster@@UAEXHH@Z 10002b30 f i aflock.obj
 0001:00001b30       ?ClientUserInfoChanged@CGameRules@@UAEXPAVCBasePlayer@@PAD@Z 10002b30 f i aflock.obj
 0001:00001b40       ?GetItemInfo@CWeaponCycler@@UAEHPAUItemInfo@@@Z 10002b40 f i aflock.obj
 0001:00001b40       ?RemovePlayerItem@CBaseEntity@@UAEHPAVCBasePlayerItem@@@Z 10002b40 f i aflock.obj
 0001:00001b40       ?AddPlayerItem@CBaseEntity@@UAEHPAVCBasePlayerItem@@@Z 10002b40 f i aflock.obj
 0001:00001b40       ?OnControls@CBaseEntity@@UAEHPAUentvars_s@@@Z 10002b40 f i aflock.obj
 0001:00001b50       ?GiveAmmo@CBaseEntity@@UAEHHPADH@Z 10002b50 f i aflock.obj
 0001:00001b60       ?SquadCount@CFlockingFlyer@@QAEHXZ 10002b60 f   aflock.obj
 0001:00001b80       ?SquadDisband@CFlockingFlyer@@QAEXXZ 10002b80 f   aflock.obj
 0001:00001ba0       ?IsBSPModel@CBaseEntity@@UAEHXZ 10002ba0 f i aflock.obj
 0001:00001bc0       ?ReflectGauss@CBaseEntity@@UAEHXZ 10002bc0 f i aflock.obj
 0001:00001bf0       ?HasTarget@CBaseEntity@@UAEHH@Z 10002bf0 f i aflock.obj
 0001:00001c60       ?TeamID@CBaseEntity@@UAEPBDXZ 10002c60 f i aflock.obj
 0001:00001c70       ?Think@CBaseEntity@@UAEXXZ 10002c70 f i aflock.obj
 0001:00001c80       ?Touch@CBaseEntity@@UAEXPAV1@@Z 10002c80 f i aflock.obj
 0001:00001ca0       ?Use@CBaseEntity@@UAEXPAV1@0W4USE_TYPE@@M@Z 10002ca0 f i aflock.obj
 0001:00001cc0       ?Blocked@CBaseEntity@@UAEXPAV1@@Z 10002cc0 f i aflock.obj
 0001:00001ce0       ??0CBaseToggle@@QAE@XZ     10002ce0 f i aflock.obj
 0001:00001cf0       ?CalcRatio@CBaseEntity@@UAEMPAV1@@Z 10002cf0 f i aflock.obj
 0001:00001d00       ?BloodColor@CAirtank@@EAEHXZ 10002d00 f i aflock.obj
 0001:00001d00       ?BloodColor@COsprey@@UAEHXZ 10002d00 f i aflock.obj
 0001:00001d00       ?BloodColor@CGunTarget@@UAEHXZ 10002d00 f i aflock.obj
 0001:00001d00       ?BloodColor@CApache@@EAEHXZ 10002d00 f i aflock.obj
 0001:00001d00       ?BloodColor@CBaseTurret@@UAEHXZ 10002d00 f i aflock.obj
 0001:00001d00       ?BloodColor@CBaseEntity@@UAEHXZ 10002d00 f i aflock.obj
 0001:00001d00       ?BloodColor@CLeech@@UAEHXZ 10002d00 f i aflock.obj
 0001:00001d00       ?BloodColor@CGrenade@@UAEHXZ 10002d00 f i aflock.obj
 0001:00001d10       ?IsMoving@CBaseEntity@@UAEHXZ 10002d10 f i aflock.obj
 0001:00001d60       ?IsAlive@CBaseEntity@@UAEHXZ 10002d60 f i aflock.obj
 0001:00001d60       ?IsAlive@CBasePlayer@@UAEHXZ 10002d60 f i aflock.obj
 0001:00001d90       ??_H@YGXPAXIHP6EX0@Z@Z     10002d90 f i aflock.obj
 0001:00001dc0       ?SUB_CallUseToggle@CBaseEntity@@QAEXXZ 10002dc0 f i aflock.obj
 0001:00001dd0       ??0WayPoint_t@@QAE@XZ      10002dd0 f i aflock.obj
 0001:00001dd0       ?GetWeaponPtr@CBasePlayerWeapon@@UAEPAVCBasePlayerItem@@XZ 10002dd0 f i aflock.obj
 0001:00001dd0       ?MyMonsterPointer@CBaseMonster@@UAEPAV1@XZ 10002dd0 f i aflock.obj
 0001:00001dd0       ?MySquadMonsterPointer@CSquadMonster@@UAEPAV1@XZ 10002dd0 f i aflock.obj
 0001:00001dd0       ??0Vector@@QAE@XZ          10002dd0 f i aflock.obj
 0001:00001de0       ??0CBaseEntity@@QAE@XZ     10002de0 f i aflock.obj
 0001:00001df0       ?KeyValue@CBaseEntity@@UAEXPAUKeyValueData_s@@@Z 10002df0 f i aflock.obj
 0001:00001f00       ?Center@CBaseEntity@@UAE?AVVector@@XZ 10002f00 f i aflock.obj
 0001:00001f60       ?EyePosition@CBaseEntity@@UAE?AVVector@@XZ 10002f60 f i aflock.obj
 0001:00001f60       ?EarPosition@CBaseEntity@@UAE?AVVector@@XZ 10002f60 f i aflock.obj
 0001:00001f90       ?BodyTarget@CBaseEntity@@UAE?AVVector@@ABV2@@Z 10002f90 f i aflock.obj
 0001:00001fb0       ?Illumination@CBaseEntity@@UAEHXZ 10002fb0 f i aflock.obj
 0001:00001fd0       ?GetToggleState@CBaseToggle@@UAEHXZ 10002fd0 f i aflock.obj
 0001:00001fe0       ?GetDelay@CBaseToggle@@UAEMXZ 10002fe0 f i aflock.obj
 0001:00001ff0       ?Classify@CBaseMonster@@UAEHXZ 10002ff0 f i aflock.obj
 0001:00002000       ?BloodColor@CBaseMonster@@UAEHXZ 10003000 f i aflock.obj
 0001:00002010       ?IsAlive@CBaseMonster@@UAEHXZ 10003010 f i aflock.obj
 0001:00002030       ?CallHitBottom@CFuncPlat@@QAEXXZ 10003030 f i aflock.obj
 0001:00002030       ?CallMonsterThink@CBaseMonster@@QAEXXZ 10003030 f i aflock.obj
 0001:00002040       ?Stop@CBaseMonster@@UAEXXZ 10003040 f i aflock.obj
 0001:00002060       ?CanPlaySentence@CBaseMonster@@UAEHH@Z 10003060 f i aflock.obj
 0001:00002070       ?FValidateCover@CBaseMonster@@UAEHABVVector@@@Z 10003070 f i aflock.obj
 0001:00002070       ?IsValidTeam@CGameRules@@UAEHPBD@Z 10003070 f i aflock.obj
 0001:00002070       ?CanPlaySequence@CTentacle@@UAEHH@Z 10003070 f i aflock.obj
 0001:00002080       ?CoverRadius@CBaseMonster@@UAEMXZ 10003080 f i aflock.obj
 0001:00002090       ?BodyTarget@CBaseMonster@@UAE?AVVector@@ABV2@@Z 10003090 f i aflock.obj
 0001:00002130       ?IsMoving@CBaseMonster@@UAEHXZ 10003130 f i aflock.obj
 0001:00002140       ?CalcRatio@CBaseMonster@@UAEMPAVCBaseEntity@@@Z 10003140 f i aflock.obj
 0001:00002160       ?DefaultUse@CBasePlayerItem@@QAEXPAVCBaseEntity@@0W4USE_TYPE@@M@Z 10003160 f i agrunt.obj
 0001:00002170       ?DefaultUse@CBasePlayerAmmo@@QAEXPAVCBaseEntity@@0W4USE_TYPE@@M@Z 10003170 f i agrunt.obj
 0001:00002180       _monster_alien_grunt       10003180 f   agrunt.obj
 0001:000021e0       ?SetObjectCollisionBox@CAGrunt@@UAEXXZ 100031e0 f i agrunt.obj
 0001:00002280       ?Save@CAGrunt@@UAEHAAVCSave@@@Z 10003280 f   agrunt.obj
 0001:000022f0       ?Restore@CAGrunt@@UAEHAAVCRestore@@@Z 100032f0 f   agrunt.obj
 0001:00002320       ?IRelationship@CAGrunt@@UAEHPAVCBaseEntity@@@Z 10003320 f   agrunt.obj
 0001:00002390       ?ISoundMask@CHGrunt@@UAEHXZ 10003390 f   agrunt.obj
 0001:00002390       ?ISoundMask@CAGrunt@@UAEHXZ 10003390 f   agrunt.obj
 0001:00002390       ?ISoundMask@CHAssassin@@UAEHXZ 10003390 f   agrunt.obj
 0001:00002390       ?ISoundMask@CMilitary@@UAEHXZ 10003390 f   agrunt.obj
 0001:00002390       ?ISoundMask@CISlave@@UAEHXZ 10003390 f   agrunt.obj
 0001:00002390       ?ISoundMask@CScientist@@UAEHXZ 10003390 f   agrunt.obj
 0001:000023a0       ?TraceAttack@CAGrunt@@UAEXPAUentvars_s@@MVVector@@PAUTraceResult@@H@Z 100033a0 f   agrunt.obj
 0001:000025b0       ??0Vector@@QAE@ABV0@@Z     100035b0 f i agrunt.obj
 0001:000025d0       ?StopTalking@CAGrunt@@QAEXXZ 100035d0 f   agrunt.obj
 0001:00002610       ?ShouldSpeak@CAGrunt@@QAEHXZ 10003610 f   agrunt.obj
 0001:00002660       ?PrescheduleThink@CAGrunt@@UAEXXZ 10003660 f   agrunt.obj
 0001:00002710       ?DeathSound@CAGrunt@@UAEXXZ 10003710 f   agrunt.obj
 0001:00002750       ?AlertSound@CAGrunt@@UAEXXZ 10003750 f   agrunt.obj
 0001:00002790       ?AttackSound@CAGrunt@@QAEXXZ 10003790 f   agrunt.obj
 0001:000027d0       ?PainSound@CAGrunt@@UAEXXZ 100037d0 f   agrunt.obj
 0001:00002840       ?SetYawSpeed@CAGrunt@@UAEXXZ 10003840 f   agrunt.obj
 0001:00002870       ?HandleAnimEvent@CAGrunt@@UAEXPAUMonsterEvent_t@@@Z 10003870 f   agrunt.obj
 0001:00003040       ?Spawn@CAGrunt@@UAEXXZ     10004040 f   agrunt.obj
 0001:000031b0       ?Precache@CAGrunt@@UAEXXZ  100041b0 f   agrunt.obj
 0001:000032d0       ?ScheduleFromName@CAGrunt@@UAEPAUSchedule_t@@PBD@Z 100042d0 f   agrunt.obj
 0001:00003300       ?CheckMeleeAttack1@CAGrunt@@UAEHMM@Z 10004300 f   agrunt.obj
 0001:00003350       ?CheckRangeAttack1@CAGrunt@@UAEHMM@Z 10004350 f   agrunt.obj
 0001:000034c0       ?StartTask@CAGrunt@@UAEXPAUTask_t@@@Z 100044c0 f   agrunt.obj
 0001:00003950       ?GetSchedule@CAGrunt@@UAEPAUSchedule_t@@XZ 10004950 f   agrunt.obj
 0001:00003a40       ?GetScheduleOfType@CAGrunt@@UAEPAUSchedule_t@@H@Z 10004a40 f   agrunt.obj
 0001:00003b00       ?Killed@CAGrunt@@UAEXPAUentvars_s@@H@Z 10004b00 f   agrunt.obj
 0001:00003b60       ?ClearSchedule@CBaseMonster@@QAEXXZ 10004b60 f   AI_BaseNPC_Schedule.obj
 0001:00003b80       ?FScheduleDone@CBaseMonster@@QAEHXZ 10004b80 f   AI_BaseNPC_Schedule.obj
 0001:00003ba0       ?ChangeSchedule@CBaseMonster@@QAEXPAUSchedule_t@@@Z 10004ba0 f   AI_BaseNPC_Schedule.obj
 0001:00003c10       ?NextScheduledTask@CBaseMonster@@QAEXXZ 10004c10 f   AI_BaseNPC_Schedule.obj
 0001:00003c40       ?IScheduleFlags@CBaseMonster@@QAEHXZ 10004c40 f   AI_BaseNPC_Schedule.obj
 0001:00003c60       ?FScheduleValid@CBaseMonster@@QAEHXZ 10004c60 f   AI_BaseNPC_Schedule.obj
 0001:00003c90       ?MaintainSchedule@CBaseMonster@@QAEXXZ 10004c90 f   AI_BaseNPC_Schedule.obj
 0001:00003e70       ?RunTask@CBaseMonster@@UAEXPAUTask_t@@@Z 10004e70 f   AI_BaseNPC_Schedule.obj
 0001:00004660       ?SetTurnActivity@CBaseMonster@@QAEXXZ 10005660 f   AI_BaseNPC_Schedule.obj
 0001:000046d0       ?StartTask@CBaseMonster@@UAEXPAUTask_t@@@Z 100056d0 f   AI_BaseNPC_Schedule.obj
 0001:00005c60       ?GetTask@CBaseMonster@@QAEPAUTask_t@@XZ 10006c60 f   AI_BaseNPC_Schedule.obj
 0001:00005c80       ?GetSchedule@CBaseMonster@@UAEPAUSchedule_t@@XZ 10006c80 f   AI_BaseNPC_Schedule.obj
 0001:00006050       _item_airtank              10007050 f   airtank.obj
 0001:000060b0       ?Save@CAirtank@@EAEHAAVCSave@@@Z 100070b0 f   airtank.obj
 0001:00006120       ?Restore@CAirtank@@EAEHAAVCRestore@@@Z 10007120 f   airtank.obj
 0001:00006150       ?Spawn@CAirtank@@EAEXXZ    10007150 f   airtank.obj
 0001:00006240       ?Precache@CAirtank@@EAEXXZ 10007240 f   airtank.obj
 0001:00006260       ?Killed@CAirtank@@EAEXPAUentvars_s@@H@Z 10007260 f   airtank.obj
 0001:000062b0       ?TankThink@CAirtank@@AAEXXZ 100072b0 f   airtank.obj
 0001:000062d0       ?TankTouch@CAirtank@@AAEXPAVCBaseEntity@@@Z 100072d0 f   airtank.obj
 0001:00006390       ?Save@CBaseAlias@@UAEHAAVCSave@@@Z 10007390 f   alias.obj
 0001:00006400       ?Restore@CBaseAlias@@UAEHAAVCRestore@@@Z 10007400 f   alias.obj
 0001:00006430       _info_alias                10007430 f   alias.obj
 0001:00006480       ?GetState@CInfoMoveWith@@UAE?AW4STATE@@XZ 10007480 f i alias.obj
 0001:00006480       ?GetState@CInfoAlias@@UAE?AW4STATE@@XZ 10007480 f i alias.obj
 0001:000064a0       ?Spawn@CInfoAlias@@UAEXXZ  100074a0 f   alias.obj
 0001:000064d0       ?Use@CInfoAlias@@UAEXPAVCBaseEntity@@0W4USE_TYPE@@M@Z 100074d0 f   alias.obj
 0001:00006590       ?FollowAlias@CInfoAlias@@UAEPAVCBaseEntity@@PAV2@@Z 10007590 f   alias.obj
 0001:000065c0       ?ChangeValue@CInfoAlias@@UAEXH@Z 100075c0 f   alias.obj
 0001:000065e0       ?FlushChanges@CInfoAlias@@UAEXXZ 100075e0 f   alias.obj
 0001:00006630       _info_group                10007630 f   alias.obj
 0001:00006680       ?Save@CInfoGroup@@UAEHAAVCSave@@@Z 10007680 f   alias.obj
 0001:000066f0       ?Restore@CInfoGroup@@UAEHAAVCRestore@@@Z 100076f0 f   alias.obj
 0001:00006720       ?KeyValue@CInfoGroup@@UAEXPAUKeyValueData_s@@@Z 10007720 f   alias.obj
 0001:00006830       ?Use@CInfoGroup@@UAEXPAVCBaseEntity@@0W4USE_TYPE@@M@Z 10007830 f   alias.obj
 0001:00006900       ?GetMember@CInfoGroup@@QAEHPBD@Z 10007900 f   alias.obj
 0001:00006a70       _multi_alias               10007a70 f   alias.obj
 0001:00006ac0       ?Save@CMultiAlias@@UAEHAAVCSave@@@Z 10007ac0 f   alias.obj
 0001:00006b30       ?Restore@CMultiAlias@@UAEHAAVCRestore@@@Z 10007b30 f   alias.obj
 0001:00006b60       ?KeyValue@CMultiAlias@@UAEXPAUKeyValueData_s@@@Z 10007b60 f   alias.obj
 0001:00006c90       ?FollowAlias@CMultiAlias@@UAEPAVCBaseEntity@@PAV2@@Z 10007c90 f   alias.obj
 0001:00006df0       _trigger_changealias       10007df0 f   alias.obj
 0001:00006e40       ?Use@CTriggerChangeAlias@@UAEXPAVCBaseEntity@@0W4USE_TYPE@@M@Z 10007e40 f   alias.obj
 0001:00006f60       ?ChangeValue@CBaseAlias@@UAEXH@Z 10007f60 f i alias.obj
 0001:00006f90       ?ChangeValue@CBaseAlias@@UAEXPAVCBaseEntity@@@Z 10007f90 f i alias.obj
 0001:00006fb0       ?Save@CBaseAnimating@@UAEHAAVCSave@@@Z 10007fb0 f   animating.obj
 0001:00007020       ?Restore@CBaseAnimating@@UAEHAAVCRestore@@@Z 10008020 f   animating.obj
 0001:00007050       ?StudioFrameAdvance@CBaseAnimating@@QAEMM@Z 10008050 f   animating.obj
 0001:00007190       ?LookupActivity@CBaseAnimating@@QAEHH@Z 10008190 f   animating.obj
 0001:000071c0       ?LookupActivityHeaviest@CBaseAnimating@@QAEHH@Z 100081c0 f   animating.obj
 0001:000071f0       ?LookupSequence@CBaseAnimating@@QAEHPBD@Z 100081f0 f   animating.obj
 0001:00007220       ?ResetSequenceInfo@CBaseAnimating@@QAEXXZ 10008220 f   animating.obj
 0001:000072a0       ?GetSequenceFlags@CBaseAnimating@@QAEHXZ 100082a0 f   animating.obj
 0001:000072d0       ?DispatchAnimEvents@CBaseAnimating@@QAEXM@Z 100082d0 f   animating.obj
 0001:000073f0       ?SetBoneController@CBaseAnimating@@QAEMHM@Z 100083f0 f   animating.obj
 0001:00007420       ?GetControllerBound@CBaseAnimating@@QAEMH@Z 10008420 f   animating.obj
 0001:00007450       ?InitBoneControllers@CBaseAnimating@@QAEXXZ 10008450 f   animating.obj
 0001:000074b0       ?SetBlending@CBaseAnimating@@QAEMHM@Z 100084b0 f   animating.obj
 0001:000074e0       ?GetBonePosition@CBaseAnimating@@QAEXHAAVVector@@0@Z 100084e0 f   animating.obj
 0001:00007510       ?GetAttachment@CBaseAnimating@@QAEXHAAVVector@@0@Z 10008510 f   animating.obj
 0001:00007540       ?FindTransition@CBaseAnimating@@QAEHHHPAH@Z 10008540 f   animating.obj
 0001:000075a0       ?SetBodygroup@CBaseAnimating@@QAEXHH@Z 100085a0 f   animating.obj
 0001:000075d0       ?GetBodygroup@CBaseAnimating@@QAEHH@Z 100085d0 f   animating.obj
 0001:00007600       ?ExtractBbox@CBaseAnimating@@QAEHHPAM0@Z 10008600 f   animating.obj
 0001:00007630       ?SetSequenceBox@CBaseAnimating@@QAEXXZ 10008630 f   animating.obj
 0001:000077f0       ?ExtractBbox@@YAHPAXHPAM1@Z 100087f0 f   animation.obj
 0001:00007850       ?LookupActivity@@YAHPAXPAUentvars_s@@H@Z 10008850 f   animation.obj
 0001:000078d0       ?LookupActivityHeaviest@@YAHPAXPAUentvars_s@@H@Z 100088d0 f   animation.obj
 0001:00007920       ?GetEyePosition@@YAXPAXPAM@Z 10008920 f   animation.obj
 0001:00007950       ?LookupSequence@@YAHPAXPBD@Z 10008950 f   animation.obj
 0001:000079b0       ?IsSoundEvent@@YAHH@Z      100089b0 f   animation.obj
 0001:000079d0       ?SequencePrecache@@YAXPAXPBD@Z 100089d0 f   animation.obj
 0001:00007ab0       ?GetSequenceInfo@@YAXPAXPAUentvars_s@@PAM2@Z 10008ab0 f   animation.obj
 0001:00007b70       ?GetSequenceTime@@YAMPAXH@Z 10008b70 f   animation.obj
 0001:00007bc0       ?GetSequenceFlags@@YAHPAXPAUentvars_s@@@Z 10008bc0 f   animation.obj
 0001:00007c00       ?GetAnimationEvent@@YAHPAXPAUentvars_s@@PAUMonsterEvent_t@@MMH@Z 10008c00 f   animation.obj
 0001:00007d50       ?SetController@@YAMPAXPAUentvars_s@@HM@Z 10008d50 f   animation.obj
 0001:00007ec0       ?GetControllerBound2@@YAMPAXPAUentvars_s@@H@Z 10008ec0 f   animation.obj
 0001:00007f20       ?SetBlending@@YAMPAXPAUentvars_s@@HM@Z 10008f20 f   animation.obj
 0001:00008060       ?FindTransition@@YAHPAXHHPAH@Z 10009060 f   animation.obj
 0001:00008170       ?SetBodygroup@@YAXPAXPAUentvars_s@@HH@Z 10009170 f   animation.obj
 0001:000081d0       ?GetBodygroup@@YAHPAXPAUentvars_s@@H@Z 100091d0 f   animation.obj
 0001:00008230       _monster_apache            10009230 f   apache.obj
 0001:000082a0       ?Classify@CApache@@EAEHXZ  100092a0 f i apache.obj
 0001:000082b0       ?SetObjectCollisionBox@CApache@@EAEXXZ 100092b0 f i apache.obj
 0001:00008350       ?Save@CApache@@EAEHAAVCSave@@@Z 10009350 f   apache.obj
 0001:000083c0       ?Restore@CApache@@EAEHAAVCRestore@@@Z 100093c0 f   apache.obj
 0001:000083f0       ?Spawn@CApache@@EAEXXZ     100093f0 f   apache.obj
 0001:00008580       ?Precache@CApache@@EAEXXZ  10009580 f   apache.obj
 0001:00008640       ?NullThink@CNihilanth@@QAEXXZ 10009640 f   apache.obj
 0001:00008640       ?Think@CXenHair@@UAEXXZ    10009640 f   apache.obj
 0001:00008640       ?NullThink@CApache@@AAEXXZ 10009640 f   apache.obj
 0001:00008660       ?StartupUse@CApache@@AAEXPAVCBaseEntity@@0W4USE_TYPE@@M@Z 10009660 f   apache.obj
 0001:000086a0       ?Killed@CApache@@EAEXPAUentvars_s@@H@Z 100096a0 f   apache.obj
 0001:000087b0       ?DyingThink@CApache@@AAEXXZ 100097b0 f   apache.obj
 0001:00008f60       ?FlyTouch@CApache@@AAEXPAVCBaseEntity@@@Z 10009f60 f   apache.obj
 0001:00009010       ?CrashTouch@CApache@@AAEXPAVCBaseEntity@@@Z 1000a010 f   apache.obj
 0001:00009040       ?HuntThink@CApache@@AAEXXZ 1000a040 f   apache.obj
 0001:00009970       ?Length@Vector@@QBEMXZ     1000a970 f i apache.obj
 0001:000099a0       ?Flight@CApache@@AAEXXZ    1000a9a0 f   apache.obj
 0001:0000a080       ?FireRocket@CApache@@AAEXXZ 1000b080 f   apache.obj
 0001:0000a510       ??HVector@@QBE?AV0@ABV0@@Z 1000b510 f i apache.obj
 0001:0000a540       ?FireGun@CApache@@AAEHXZ   1000b540 f   apache.obj
 0001:0000a960       ?ShowDamage@CApache@@AAEXXZ 1000b960 f   apache.obj
 0001:0000aa30       ?TakeDamage@CApache@@EAEHPAUentvars_s@@0MH@Z 1000ba30 f   apache.obj
 0001:0000aa80       ?TraceAttack@CApache@@EAEXPAUentvars_s@@MVVector@@PAUTraceResult@@H@Z 1000ba80 f   apache.obj
 0001:0000ab10       ?IRelationship@CApache@@EAEHPAVCBaseEntity@@@Z 1000bb10 f   apache.obj
 0001:0000ab80       _hvr_rocket                1000bb80 f   apache.obj
 0001:0000abe0       ?Save@CApacheHVR@@EAEHAAVCSave@@@Z 1000bbe0 f   apache.obj
 0001:0000ac50       ?Restore@CApacheHVR@@EAEHAAVCRestore@@@Z 1000bc50 f   apache.obj
 0001:0000ac80       ?Spawn@CApacheHVR@@EAEXXZ  1000bc80 f   apache.obj
 0001:0000ad80       ?Precache@CApacheHVR@@EAEXXZ 1000bd80 f   apache.obj
 0001:0000adb0       ?IgniteThink@CApacheHVR@@AAEXXZ 1000bdb0 f   apache.obj
 0001:0000ae80       ?AccelerateThink@CApacheHVR@@AAEXXZ 1000be80 f   apache.obj
 0001:0000afe0       _monster_barnacle          1000bfe0 f   barnacle.obj
 0001:0000b040       ?Save@CBarnacle@@UAEHAAVCSave@@@Z 1000c040 f   barnacle.obj
 0001:0000b0b0       ?Restore@CBarnacle@@UAEHAAVCRestore@@@Z 1000c0b0 f   barnacle.obj
 0001:0000b0e0       ?HandleAnimEvent@CBarnacle@@UAEXPAUMonsterEvent_t@@@Z 1000c0e0 f   barnacle.obj
 0001:0000b110       ?Spawn@CBarnacle@@UAEXXZ   1000c110 f   barnacle.obj
 0001:0000b250       ?TakeDamage@CBarnacle@@UAEHPAUentvars_s@@0MH@Z 1000c250 f   barnacle.obj
 0001:0000b280       ?BarnacleThink@CBarnacle@@QAEXXZ 1000c280 f   barnacle.obj
 0001:0000b830       ?Killed@CBarnacle@@UAEXPAUentvars_s@@H@Z 1000c830 f   barnacle.obj
 0001:0000b920       ?WaitTillDead@CBarnacle@@QAEXXZ 1000c920 f   barnacle.obj
 0001:0000b970       ?Precache@CBarnacle@@UAEXXZ 1000c970 f   barnacle.obj
 0001:0000b9f0       ?TongueTouchEnt@CBarnacle@@QAEPAVCBaseEntity@@PAM@Z 1000c9f0 f   barnacle.obj
 0001:0000bb20       _monster_barney            1000cb20 f   barney.obj
 0001:0000bb80       ?FriendNumber@CTalkMonster@@UAEHH@Z 1000cb80 f i barney.obj
 0001:0000bb90       ?ObjectCaps@CMilitary@@UAEHXZ 1000cb90 f i barney.obj
 0001:0000bb90       ?ObjectCaps@CScientist@@UAEHXZ 1000cb90 f i barney.obj
 0001:0000bb90       ?ObjectCaps@CBarney@@UAEHXZ 1000cb90 f i barney.obj
 0001:0000bbd0       ?Save@CBarney@@UAEHAAVCSave@@@Z 1000cbd0 f   barney.obj
 0001:0000bc40       ?Restore@CBarney@@UAEHAAVCRestore@@@Z 1000cc40 f   barney.obj
 0001:0000bc70       ?ScheduleFromName@CBarney@@UAEPAUSchedule_t@@PBD@Z 1000cc70 f   barney.obj
 0001:0000bca0       ?StartTask@CBarney@@UAEXPAUTask_t@@@Z 1000cca0 f   barney.obj
 0001:0000bcb0       ?RunTask@CBarney@@UAEXPAUTask_t@@@Z 1000ccb0 f   barney.obj
 0001:0000bd10       ?ISoundMask@CBarney@@UAEHXZ 1000cd10 f   barney.obj
 0001:0000bd20       ?AlertSound@CBarney@@UAEXXZ 1000cd20 f   barney.obj
 0001:0000be30       ?SetYawSpeed@CBarney@@UAEXXZ 1000ce30 f   barney.obj
 0001:0000be70       ?CheckRangeAttack1@CBarney@@UAEHMM@Z 1000ce70 f   barney.obj
 0001:0000bfe0       ?BarneyFirePistol@CBarney@@QAEXXZ 1000cfe0 f   barney.obj
 0001:0000c1d0       ?HandleAnimEvent@CBarney@@UAEXPAUMonsterEvent_t@@@Z 1000d1d0 f   barney.obj
 0001:0000c230       ?Spawn@CBarney@@UAEXXZ     1000d230 f   barney.obj
 0001:0000c390       ?Precache@CBarney@@UAEXXZ  1000d390 f   barney.obj
 0001:0000c430       ?TalkInit@CBarney@@QAEXXZ  1000d430 f   barney.obj
 0001:0000c560       ?TakeDamage@CBarney@@UAEHPAUentvars_s@@0MH@Z 1000d560 f   barney.obj
 0001:0000c9b0       ?PainSound@CBarney@@UAEXXZ 1000d9b0 f   barney.obj
 0001:0000caa0       ?DeathSound@CBarney@@UAEXXZ 1000daa0 f   barney.obj
 0001:0000cb50       ?TraceAttack@CBarney@@UAEXPAUentvars_s@@MVVector@@PAUTraceResult@@H@Z 1000db50 f   barney.obj
 0001:0000cbf0       ?Killed@CBarney@@UAEXPAUentvars_s@@H@Z 1000dbf0 f   barney.obj
 0001:0000cc70       ?GetScheduleOfType@CBarney@@UAEPAUSchedule_t@@H@Z 1000dc70 f   barney.obj
 0001:0000cd30       ?GetSchedule@CBarney@@UAEPAUSchedule_t@@XZ 1000dd30 f   barney.obj
 0001:0000d010       ?GetIdealState@CBarney@@UAE?AW4MONSTERSTATE@@XZ 1000e010 f   barney.obj
 0001:0000d020       _monster_barney_dead       1000e020 f   barney.obj
 0001:0000d080       ?Spawn@CDeadBarney@@UAEXXZ 1000e080 f   barney.obj
 0001:0000d130       _info_bigmomma             1000e130 f   bigmomma.obj
 0001:0000d180       ?Save@CInfoBM@@UAEHAAVCSave@@@Z 1000e180 f   bigmomma.obj
 0001:0000d1f0       ?Restore@CInfoBM@@UAEHAAVCRestore@@@Z 1000e1f0 f   bigmomma.obj
 0001:0000d220       ?KeyValue@CInfoBM@@UAEXPAUKeyValueData_s@@@Z 1000e220 f   bigmomma.obj
 0001:0000d4f0       _bmortar                   1000e4f0 f   bigmomma.obj
 0001:0000d540       ?Save@CBMortar@@UAEHAAVCSave@@@Z 1000e540 f   bigmomma.obj
 0001:0000d5b0       ?Restore@CBMortar@@UAEHAAVCRestore@@@Z 1000e5b0 f   bigmomma.obj
 0001:0000d5e0       _monster_bigmomma          1000e5e0 f   bigmomma.obj
 0001:0000d640       ?OverrideReset@CBigMomma@@UAEXXZ 1000e640 f i bigmomma.obj
 0001:0000d650       ?SetObjectCollisionBox@CBigMomma@@UAEXXZ 1000e650 f i bigmomma.obj
 0001:0000d6f0       ?Save@CBigMomma@@UAEHAAVCSave@@@Z 1000e6f0 f   bigmomma.obj
 0001:0000d760       ?Restore@CBigMomma@@UAEHAAVCRestore@@@Z 1000e760 f   bigmomma.obj
 0001:0000d790       ?KeyValue@CBigMomma@@UAEXPAUKeyValueData_s@@@Z 1000e790 f   bigmomma.obj
 0001:0000d7a0       ?SetYawSpeed@CBigMomma@@UAEXXZ 1000e7a0 f   bigmomma.obj
 0001:0000d7d0       ?HandleAnimEvent@CBigMomma@@UAEXPAUMonsterEvent_t@@@Z 1000e7d0 f   bigmomma.obj
 0001:0000e080       ?TraceAttack@CBigMomma@@UAEXPAUentvars_s@@MVVector@@PAUTraceResult@@H@Z 1000f080 f   bigmomma.obj
 0001:0000e1a0       ?TakeDamage@CBigMomma@@UAEHPAUentvars_s@@0MH@Z 1000f1a0 f   bigmomma.obj
 0001:0000e220       ?LayHeadcrab@CBigMomma@@QAEXXZ 1000f220 f   bigmomma.obj
 0001:0000e360       ?DeathNotice@CBigMomma@@UAEXPAUentvars_s@@@Z 1000f360 f   bigmomma.obj
 0001:0000e3d0       ?LaunchMortar@CBigMomma@@QAEXXZ 1000f3d0 f   bigmomma.obj
 0001:0000e5d0       ?Spawn@CBigMomma@@UAEXXZ   1000f5d0 f   bigmomma.obj
 0001:0000e700       ?Precache@CBigMomma@@UAEXXZ 1000f700 f   bigmomma.obj
 0001:0000e880       ?Activate@CBigMomma@@UAEXXZ 1000f880 f   bigmomma.obj
 0001:0000e8b0       ?NodeStart@CBigMomma@@QAEXH@Z 1000f8b0 f   bigmomma.obj
 0001:0000e950       ?NodeReach@CBigMomma@@QAEXXZ 1000f950 f   bigmomma.obj
 0001:0000ea40       ?CheckMeleeAttack1@CBigMomma@@UAEHMM@Z 1000fa40 f   bigmomma.obj
 0001:0000ea70       ?CheckMeleeAttack2@CBigMomma@@UAEHMM@Z 1000fa70 f   bigmomma.obj
 0001:0000eb30       ?CheckRangeAttack1@CBigMomma@@UAEHMM@Z 1000fb30 f   bigmomma.obj
 0001:0000ec40       ?ScheduleFromName@CBigMomma@@UAEPAUSchedule_t@@PBD@Z 1000fc40 f   bigmomma.obj
 0001:0000ec70       ?GetScheduleOfType@CBigMomma@@UAEPAUSchedule_t@@H@Z 1000fc70 f   bigmomma.obj
 0001:0000eca0       ?ShouldGoToNode@CBigMomma@@QAEHXZ 1000fca0 f   bigmomma.obj
 0001:0000ecd0       ?SetActivity@CBigMomma@@UAEXW4Activity@@@Z 1000fcd0 f   bigmomma.obj
 0001:0000eda0       ?edict@CBaseEntity@@QAEPAUedict_s@@XZ 1000fda0 f i bigmomma.obj
 0001:0000edb0       ?GetSchedule@CBigMomma@@UAEPAUSchedule_t@@XZ 1000fdb0 f   bigmomma.obj
 0001:0000ede0       ?StartTask@CBigMomma@@UAEXPAUTask_t@@@Z 1000fde0 f   bigmomma.obj
 0001:0000f2c0       ?RunTask@CBigMomma@@UAEXPAUTask_t@@@Z 100102c0 f   bigmomma.obj
 0001:0000f460       ?VecCheckSplatToss@@YA?AVVector@@PAUentvars_s@@ABV1@V1@M@Z 10010460 f   bigmomma.obj
 0001:0000f5f0       ?MortarSpray@@YAXABVVector@@0HH@Z 100105f0 f   bigmomma.obj
 0001:0000f680       ?Spawn@CBMortar@@UAEXXZ    10010680 f   bigmomma.obj
 0001:0000f790       ?Animate@CBMortar@@QAEXXZ  10010790 f   bigmomma.obj
 0001:0000f8d0       ?Shoot@CBMortar@@SAPAV1@PAUedict_s@@VVector@@1@Z 100108d0 f   bigmomma.obj
 0001:0000f980       ?Touch@CBMortar@@UAEXPAVCBaseEntity@@@Z 10010980 f   bigmomma.obj
 0001:0000fbe0       _monster_bloater           10010be0 f   bloater.obj
 0001:0000fc40       ?CheckRangeAttack2@CBloater@@UAEHMM@Z 10010c40 f i bloater.obj
 0001:0000fc40       ?CheckRangeAttack1@CZombie@@UAEHMM@Z 10010c40 f i bloater.obj
 0001:0000fc40       ?CheckRangeAttack2@CZombie@@UAEHMM@Z 10010c40 f i bloater.obj
 0001:0000fc40       ?ClientCommand@CGameRules@@UAEHPAVCBasePlayer@@PBD@Z 10010c40 f i bloater.obj
 0001:0000fc40       ?CheckRangeAttack1@CBloater@@UAEHMM@Z 10010c40 f i bloater.obj
 0001:0000fc50       ?TakeDamage@CBloater@@UAEHPAUentvars_s@@0MH@Z 10010c50 f   bloater.obj
 0001:0000fc80       ?HandleAnimEvent@CBloater@@UAEXPAUMonsterEvent_t@@@Z 10010c80 f   bloater.obj
 0001:0000fca0       ?Spawn@CBloater@@UAEXXZ    10010ca0 f   bloater.obj
 0001:0000fdd0       ?Precache@CBloater@@UAEXXZ 10010dd0 f   bloater.obj
 0001:0000fe10       ?VecBModelOrigin@@YA?AVVector@@PAUentvars_s@@@Z 10010e10 f   bmodels.obj
 0001:0000fe70       _func_wall                 10010e70 f   bmodels.obj
 0001:0000fec0       ?GetState@CFuncWall@@UAE?AW4STATE@@XZ 10010ec0 f i bmodels.obj
 0001:0000fee0       ?Spawn@CFuncWall@@UAEXXZ   10010ee0 f   bmodels.obj
 0001:0000ff60       ?Use@CFuncWall@@UAEXPAVCBaseEntity@@0W4USE_TYPE@@M@Z 10010f60 f   bmodels.obj
 0001:0000ffa0       _func_wall_toggle          10010fa0 f   bmodels.obj
 0001:0000fff0       ?GetState@CFuncWallToggle@@UAE?AW4STATE@@XZ 10010ff0 f i bmodels.obj
 0001:00010010       ?Spawn@CFuncWallToggle@@UAEXXZ 10011010 f   bmodels.obj
 0001:00010030       ?TurnOff@CFuncWallToggle@@QAEXXZ 10011030 f   bmodels.obj
 0001:00010060       ?TurnOn@CFuncWallToggle@@QAEXXZ 10011060 f   bmodels.obj
 0001:00010090       ?Use@CFuncWallToggle@@UAEXPAVCBaseEntity@@0W4USE_TYPE@@M@Z 10011090 f   bmodels.obj
 0001:000100d0       _func_conveyor             100110d0 f   bmodels.obj
 0001:00010120       ?Spawn@CFuncConveyor@@UAEXXZ 10011120 f   bmodels.obj
 0001:000101a0       ?UpdateSpeed@CFuncConveyor@@QAEXM@Z 100111a0 f   bmodels.obj
 0001:00010220       ?Use@CFuncConveyor@@UAEXPAVCBaseEntity@@0W4USE_TYPE@@M@Z 10011220 f   bmodels.obj
 0001:00010250       _func_illusionary          10011250 f   bmodels.obj
 0001:000102a0       ?KeyValue@CFuncIllusionary@@UAEXPAUKeyValueData_s@@@Z 100112a0 f   bmodels.obj
 0001:00010320       ?Spawn@CFuncIllusionary@@UAEXXZ 10011320 f   bmodels.obj
 0001:00010380       _func_shine                10011380 f   bmodels.obj
 0001:000103d0       ?Spawn@CFuncShine@@UAEXXZ  100113d0 f   bmodels.obj
 0001:00010440       ?Activate@CFuncShine@@UAEXXZ 10011440 f   bmodels.obj
 0001:00010460       ?DesiredAction@CFuncShine@@UAEXXZ 10011460 f   bmodels.obj
 0001:000104a0       ?Think@CFuncShine@@UAEXXZ  100114a0 f   bmodels.obj
 0001:00010590       _func_monsterclip          10011590 f   bmodels.obj
 0001:000105e0       ?Spawn@CFuncMonsterClip@@UAEXXZ 100115e0 f   bmodels.obj
 0001:00010620       ?Save@CFuncRotating@@UAEHAAVCSave@@@Z 10011620 f   bmodels.obj
 0001:00010690       ?Restore@CFuncRotating@@UAEHAAVCRestore@@@Z 10011690 f   bmodels.obj
 0001:000106c0       _func_rotating             100116c0 f   bmodels.obj
 0001:00010710       ?GetState@CFuncRotating@@UAE?AW4STATE@@XZ 10011710 f i bmodels.obj
 0001:00010720       ?KeyValue@CFuncRotating@@UAEXPAUKeyValueData_s@@@Z 10011720 f   bmodels.obj
 0001:00010aa0       ?Spawn@CFuncRotating@@UAEXXZ 10011aa0 f   bmodels.obj
 0001:00010d40       ?Precache@CFuncRotating@@UAEXXZ 10011d40 f   bmodels.obj
 0001:00010eb0       ?WaitForStart@CFuncRotating@@QAEXXZ 10011eb0 f   bmodels.obj
 0001:00010ee0       ?HurtTouch@CFuncRotating@@QAEXPAVCBaseEntity@@@Z 10011ee0 f   bmodels.obj
 0001:00011010       ?RampPitchVol@CFuncRotating@@QAEXH@Z 10012010 f   bmodels.obj
 0001:00011090       ?SpinUp@CFuncRotating@@QAEXXZ 10012090 f   bmodels.obj
 0001:000111b0       ?SpinDown@CFuncRotating@@QAEXXZ 100121b0 f   bmodels.obj
 0001:000112c0       ?Rotate@CFuncRotating@@QAEXXZ 100122c0 f   bmodels.obj
 0001:000112d0       ?RotatingUse@CFuncRotating@@QAEXPAVCBaseEntity@@0W4USE_TYPE@@M@Z 100122d0 f   bmodels.obj
 0001:00011440       ?Blocked@CFuncRotating@@UAEXPAVCBaseEntity@@@Z 10012440 f   bmodels.obj
 0001:00011460       _func_pendulum             10012460 f   bmodels.obj
 0001:000114b0       ?GetState@CPendulum@@UAE?AW4STATE@@XZ 100124b0 f i bmodels.obj
 0001:000114d0       ?Save@CPendulum@@UAEHAAVCSave@@@Z 100124d0 f   bmodels.obj
 0001:00011540       ?Restore@CPendulum@@UAEHAAVCRestore@@@Z 10012540 f   bmodels.obj
 0001:00011570       ?KeyValue@CPendulum@@UAEXPAUKeyValueData_s@@@Z 10012570 f   bmodels.obj
 0001:00011790       ?Spawn@CPendulum@@UAEXXZ   10012790 f   bmodels.obj
 0001:00011930       ?PendulumUse@CPendulum@@QAEXPAVCBaseEntity@@0W4USE_TYPE@@M@Z 10012930 f   bmodels.obj
 0001:00011a50       ?StopThink@CPendulum@@QAEXXZ 10012a50 f   bmodels.obj
 0001:00011ac0       ?Blocked@CPendulum@@UAEXPAVCBaseEntity@@@Z 10012ac0 f   bmodels.obj
 0001:00011ad0       ?SwingThink@CPendulum@@QAEXXZ 10012ad0 f   bmodels.obj
 0001:00011cc0       ?Touch@CPendulum@@UAEXPAVCBaseEntity@@@Z 10012cc0 f   bmodels.obj
 0001:00011e10       ?RopeTouch@CPendulum@@QAEXPAVCBaseEntity@@@Z 10012e10 f   bmodels.obj
 0001:00011e90       _squidspit                 10012e90 f   bullsquid.obj
 0001:00011ee0       ?Save@CSquidSpit@@UAEHAAVCSave@@@Z 10012ee0 f   bullsquid.obj
 0001:00011f50       ?Restore@CSquidSpit@@UAEHAAVCRestore@@@Z 10012f50 f   bullsquid.obj
 0001:00011f80       ?Spawn@CSquidSpit@@UAEXXZ  10012f80 f   bullsquid.obj
 0001:00012080       ?Animate@CSquidSpit@@QAEXXZ 10013080 f   bullsquid.obj
 0001:000120e0       ?Shoot@CSquidSpit@@SAXPAUentvars_s@@VVector@@1@Z 100130e0 f   bullsquid.obj
 0001:00012190       ?Touch@CSquidSpit@@UAEXPAVCBaseEntity@@@Z 10013190 f   bullsquid.obj
 0001:00012380       _monster_bullchicken       10013380 f   bullsquid.obj
 0001:00012380       _monster_bullsquid         10013380 f   bullsquid.obj
 0001:000123e0       ?Save@CBullsquid@@UAEHAAVCSave@@@Z 100133e0 f   bullsquid.obj
 0001:00012450       ?Restore@CBullsquid@@UAEHAAVCRestore@@@Z 10013450 f   bullsquid.obj
 0001:00012480       ?IgnoreConditions@CBullsquid@@UAEHXZ 10013480 f   bullsquid.obj
 0001:00012520       ?IRelationship@CBullsquid@@UAEHPAVCBaseEntity@@@Z 10013520 f   bullsquid.obj
 0001:000125a0       ?TakeDamage@CBullsquid@@UAEHPAUentvars_s@@0MH@Z 100135a0 f   bullsquid.obj
 0001:00012740       ?CheckRangeAttack1@CBullsquid@@UAEHMM@Z 10013740 f   bullsquid.obj
 0001:00012840       ?CheckMeleeAttack1@CBullsquid@@UAEHMM@Z 10013840 f   bullsquid.obj
 0001:00012890       ?CheckMeleeAttack2@CBullsquid@@UAEHMM@Z 10013890 f   bullsquid.obj
 0001:000128d0       ?FValidateHintType@CBullsquid@@UAEHF@Z 100138d0 f   bullsquid.obj
 0001:00012910       ?ISoundMask@CBullsquid@@UAEHXZ 10013910 f   bullsquid.obj
 0001:00012920       ?Classify@CBullsquid@@UAEHXZ 10013920 f   bullsquid.obj
 0001:00012930       ?IdleSound@CBullsquid@@UAEXXZ 10013930 f   bullsquid.obj
 0001:00012a20       ?PainSound@CBullsquid@@UAEXXZ 10013a20 f   bullsquid.obj
 0001:00012af0       ?AlertSound@CBullsquid@@UAEXXZ 10013af0 f   bullsquid.obj
 0001:00012b70       ?SetYawSpeed@CBullsquid@@UAEXXZ 10013b70 f   bullsquid.obj
 0001:00012ba0       ?HandleAnimEvent@CBullsquid@@UAEXPAUMonsterEvent_t@@@Z 10013ba0 f   bullsquid.obj
 0001:00013500       ?Spawn@CBullsquid@@UAEXXZ  10014500 f   bullsquid.obj
 0001:00013620       ?Precache@CBullsquid@@UAEXXZ 10014620 f   bullsquid.obj
 0001:00013770       ?DeathSound@CBullsquid@@UAEXXZ 10014770 f   bullsquid.obj
 0001:00013810       ?AttackSound@CBullsquid@@QAEXXZ 10014810 f   bullsquid.obj
 0001:00013880       ?RunAI@CBullsquid@@UAEXXZ  10014880 f   bullsquid.obj
 0001:00013920       ?ScheduleFromName@CBullsquid@@UAEPAUSchedule_t@@PBD@Z 10014920 f   bullsquid.obj
 0001:00013950       ?GetSchedule@CBullsquid@@UAEPAUSchedule_t@@XZ 10014950 f   bullsquid.obj
 0001:00013b00       ?GetScheduleOfType@CBullsquid@@UAEPAUSchedule_t@@H@Z 10014b00 f   bullsquid.obj
 0001:00013bb0       ?StartTask@CBullsquid@@UAEXPAUTask_t@@@Z 10014bb0 f   bullsquid.obj
 0001:00013d10       ?RunTask@CBullsquid@@UAEXPAUTask_t@@@Z 10014d10 f   bullsquid.obj
 0001:00013d90       ?GetIdealState@CBullsquid@@UAE?AW4MONSTERSTATE@@XZ 10014d90 f   bullsquid.obj
 0001:00013e40       ?Save@CEnvGlobal@@UAEHAAVCSave@@@Z 10014e40 f   buttons.obj
 0001:00013eb0       ?Restore@CEnvGlobal@@UAEHAAVCRestore@@@Z 10014eb0 f   buttons.obj
 0001:00013ee0       _env_global                10014ee0 f   buttons.obj
 0001:00013f30       ?KeyValue@CEnvGlobal@@UAEXPAUKeyValueData_s@@@Z 10014f30 f   buttons.obj
 0001:00014130       ?Spawn@CEnvGlobal@@UAEXXZ  10015130 f   buttons.obj
 0001:000141a0       ?Use@CEnvGlobal@@UAEXPAVCBaseEntity@@0W4USE_TYPE@@M@Z 100151a0 f   buttons.obj
 0001:00014230       ?Spawn@CEnvState@@UAEXXZ   10015230 f   buttons.obj
 0001:00014260       ?Save@CEnvState@@UAEHAAVCSave@@@Z 10015260 f   buttons.obj
 0001:000142d0       ?Restore@CEnvState@@UAEHAAVCRestore@@@Z 100152d0 f   buttons.obj
 0001:00014300       _env_state                 10015300 f   buttons.obj
 0001:00014350       ?KeyValue@CEnvState@@UAEXPAUKeyValueData_s@@@Z 10015350 f   buttons.obj
 0001:00014550       ?Use@CEnvState@@UAEXPAVCBaseEntity@@0W4USE_TYPE@@M@Z 10015550 f   buttons.obj
 0001:00014980       ?Think@CEnvState@@UAEXXZ   10015980 f   buttons.obj
 0001:00014ba0       ?Save@CMultiSource@@UAEHAAVCSave@@@Z 10015ba0 f   buttons.obj
 0001:00014c10       ?Restore@CMultiSource@@UAEHAAVCRestore@@@Z 10015c10 f   buttons.obj
 0001:00014c40       _multisource               10015c40 f   buttons.obj
 0001:00014c90       ?KeyValue@CMultiSource@@UAEXPAUKeyValueData_s@@@Z 10015c90 f   buttons.obj
 0001:00014f40       ?Spawn@CMultiSource@@UAEXXZ 10015f40 f   buttons.obj
 0001:00014f80       ?Use@CMultiSource@@UAEXPAVCBaseEntity@@0W4USE_TYPE@@M@Z 10015f80 f   buttons.obj
 0001:00015130       ?GetState@CMultiSource@@UAE?AW4STATE@@XZ 10016130 f   buttons.obj
 0001:00015190       ?Register@CMultiSource@@QAEXXZ 10016190 f   buttons.obj
 0001:000152d0       ?ObjectCaps@CBaseButton@@UAEHXZ 100162d0 f   buttons.obj
 0001:00015340       ?Save@CBaseButton@@UAEHAAVCSave@@@Z 10016340 f   buttons.obj
 0001:000153b0       ?Restore@CBaseButton@@UAEHAAVCRestore@@@Z 100163b0 f   buttons.obj
 0001:000153e0       ?Precache@CBaseButton@@UAEXXZ 100163e0 f   buttons.obj
 0001:000156a0       ?KeyValue@CBaseButton@@UAEXPAUKeyValueData_s@@@Z 100166a0 f   buttons.obj
 0001:00015920       ?TakeDamage@CBaseButton@@UAEHPAUentvars_s@@0MH@Z 10016920 f   buttons.obj
 0001:000159f0       _func_button               100169f0 f   buttons.obj
 0001:00015a40       ?Spawn@CBaseButton@@UAEXXZ 10016a40 f   buttons.obj
 0001:00015d00       ?PostSpawn@CBaseButton@@UAEXXZ 10016d00 f   buttons.obj
 0001:00015e50       ?ButtonSound@@YAPADH@Z     10016e50 f   buttons.obj
 0001:00015f40       ?DoSpark@@YAXPAUentvars_s@@ABVVector@@@Z 10016f40 f   buttons.obj
 0001:000160e0       ?ButtonSpark@CBaseButton@@QAEXXZ 100170e0 f   buttons.obj
 0001:00016130       ?ButtonUse@CBaseButton@@QAEXPAVCBaseEntity@@0W4USE_TYPE@@M@Z 10017130 f   buttons.obj
 0001:000161c0       ?ButtonUse_IgnorePlayer@CBaseButton@@QAEXPAVCBaseEntity@@0W4USE_TYPE@@M@Z 100171c0 f   buttons.obj
 0001:00016200       ?ButtonResponseToTouch@CBaseButton@@QAE?AW4BUTTON_CODE@1@XZ 10017200 f   buttons.obj
 0001:00016260       ?ButtonTouch@CBaseButton@@QAEXPAVCBaseEntity@@@Z 10017260 f   buttons.obj
 0001:00016380       ?ButtonActivate@CBaseButton@@QAEXXZ 10017380 f   buttons.obj
 0001:00016490       ?TriggerAndWait@CBaseButton@@QAEXXZ 10017490 f   buttons.obj
 0001:00016560       ?ButtonReturn@CBaseButton@@QAEXXZ 10017560 f   buttons.obj
 0001:000165f0       ?ButtonBackHome@CBaseButton@@QAEXXZ 100175f0 f   buttons.obj
 0001:00016740       _func_rot_button           10017740 f   buttons.obj
 0001:00016790       ?KeyValue@CRotButton@@UAEXPAUKeyValueData_s@@@Z 10017790 f   buttons.obj
 0001:00016810       ?Spawn@CRotButton@@UAEXXZ  10017810 f   buttons.obj
 0001:00016a40       ?Save@CMomentaryRotButton@@UAEHAAVCSave@@@Z 10017a40 f   buttons.obj
 0001:00016ab0       ?Restore@CMomentaryRotButton@@UAEHAAVCRestore@@@Z 10017ab0 f   buttons.obj
 0001:00016ae0       _momentary_rot_button      10017ae0 f   buttons.obj
 0001:00016b40       ?ObjectCaps@CMomentaryRotButton@@UAEHXZ 10017b40 f i buttons.obj
 0001:00016b70       ?Spawn@CMomentaryRotButton@@UAEXXZ 10017b70 f   buttons.obj
 0001:00016d50       ?KeyValue@CMomentaryRotButton@@UAEXPAUKeyValueData_s@@@Z 10017d50 f   buttons.obj
 0001:00016e70       ?PlaySound@CMomentaryRotButton@@QAEXXZ 10017e70 f   buttons.obj
 0001:00016eb0       ?Use@CMomentaryRotButton@@UAEXPAVCBaseEntity@@0W4USE_TYPE@@M@Z 10017eb0 f   buttons.obj
 0001:00016f80       ?UpdateAllButtons@CMomentaryRotButton@@QAEXMH@Z 10017f80 f   buttons.obj
 0001:00017050       ?UpdateSelf@CMomentaryRotButton@@QAEXM@Z 10018050 f   buttons.obj
 0001:000171c0       ?UpdateTarget@CMomentaryRotButton@@QAEXM@Z 100181c0 f   buttons.obj
 0001:00017240       ?Off@CMomentaryRotButton@@QAEXXZ 10018240 f   buttons.obj
 0001:000172b0       ?Return@CMomentaryRotButton@@QAEXXZ 100182b0 f   buttons.obj
 0001:00017310       ?UpdateSelfReturn@CMomentaryRotButton@@QAEXM@Z 10018310 f   buttons.obj
 0001:000173d0       ?Save@CEnvSpark@@UAEHAAVCSave@@@Z 100183d0 f   buttons.obj
 0001:00017440       ?Restore@CEnvSpark@@UAEHAAVCRestore@@@Z 10018440 f   buttons.obj
 0001:00017470       ?GetState@CEnvSpark@@UAE?AW4STATE@@XZ 10018470 f i buttons.obj
 0001:00017480       _env_debris                10018480 f   buttons.obj
 0001:00017480       _env_spark                 10018480 f   buttons.obj
 0001:000174d0       ?Spawn@CEnvSpark@@UAEXXZ   100184d0 f   buttons.obj
 0001:00017570       ?Precache@CEnvSpark@@UAEXXZ 10018570 f   buttons.obj
 0001:000175c0       ?KeyValue@CEnvSpark@@UAEXPAUKeyValueData_s@@@Z 100185c0 f   buttons.obj
 0001:00017870       ?SparkCyclic@CEnvSpark@@QAEXPAVCBaseEntity@@0W4USE_TYPE@@M@Z 10018870 f   buttons.obj
 0001:000178b0       ?SparkThink@CEnvSpark@@QAEXXZ 100188b0 f   buttons.obj
 0001:00017900       ?SparkStart@CEnvSpark@@QAEXPAVCBaseEntity@@0W4USE_TYPE@@M@Z 10018900 f   buttons.obj
 0001:00017950       ?SparkStop@CEnvSpark@@QAEXPAVCBaseEntity@@0W4USE_TYPE@@M@Z 10018950 f   buttons.obj
 0001:00017970       _button_target             10018970 f   buttons.obj
 0001:000179c0       ?Spawn@CButtonTarget@@UAEXXZ 100189c0 f   buttons.obj
 0001:00017a30       ?Use@CButtonTarget@@UAEXPAVCBaseEntity@@0W4USE_TYPE@@M@Z 10018a30 f   buttons.obj
 0001:00017ab0       ?ObjectCaps@CButtonTarget@@UAEHXZ 10018ab0 f   buttons.obj
 0001:00017ae0       ?TakeDamage@CButtonTarget@@UAEHPAUentvars_s@@0MH@Z 10018ae0 f   buttons.obj
 0001:00017b20       _GetEntityAPI              10018b20 f   cbase.obj
 0001:00017b50       _GetEntityAPI2             10018b50 f   cbase.obj
 0001:00017b90       ?DispatchSpawn@@YAHPAUedict_s@@@Z 10018b90 f   cbase.obj
 0001:00017d70       ?DispatchKeyValue@@YAXPAUedict_s@@PAUKeyValueData_s@@@Z 10018d70 f   cbase.obj
 0001:00017db0       ?DispatchTouch@@YAXPAUedict_s@@0@Z 10018db0 f   cbase.obj
 0001:00017e10       ?DispatchUse@@YAXPAUedict_s@@0@Z 10018e10 f   cbase.obj
 0001:00017e50       ?DispatchThink@@YAXPAUedict_s@@@Z 10018e50 f   cbase.obj
 0001:00017ea0       ?DispatchBlocked@@YAXPAUedict_s@@0@Z 10018ea0 f   cbase.obj
 0001:00017ed0       ?DispatchSave@@YAXPAUedict_s@@PAUsaverestore_s@@@Z 10018ed0 f   cbase.obj
 0001:00017fc0       ?FindGlobalEntity@@YAPAVCBaseEntity@@HH@Z 10018fc0 f   cbase.obj
 0001:00018060       ?DispatchRestore@@YAHPAUedict_s@@PAUsaverestore_s@@H@Z 10019060 f   cbase.obj
 0001:00018380       ?DispatchObjectCollsionBox@@YAXPAUedict_s@@@Z 10019380 f   cbase.obj
 0001:000183b0       ?SaveWriteFields@@YAXPAUsaverestore_s@@PBDPAXPAUTYPEDESCRIPTION@@H@Z 100193b0 f   cbase.obj
 0001:000183f0       ?SaveReadFields@@YAXPAUsaverestore_s@@PBDPAXPAUTYPEDESCRIPTION@@H@Z 100193f0 f   cbase.obj
 0001:00018440       ?Get@EHANDLE@@QAEPAUedict_s@@XZ 10019440 f   cbase.obj
 0001:00018460       ??CEHANDLE@@QAEPAVCBaseEntity@@XZ 10019460 f   cbase.obj
 0001:00018460       ??BEHANDLE@@QAEPAVCBaseEntity@@XZ 10019460 f   cbase.obj
 0001:00018470       ??4EHANDLE@@QAEPAVCBaseEntity@@PAV1@@Z 10019470 f   cbase.obj
 0001:000184a0       ??BEHANDLE@@QAEHXZ         100194a0 f   cbase.obj
 0001:000184b0       ?Activate@CBaseEntity@@UAEXXZ 100194b0 f   cbase.obj
 0001:00018500       ?InitMoveWith@CBaseEntity@@QAEXXZ 10019500 f   cbase.obj
 0001:000186c0       ?DontThink@CBaseEntity@@QAEXXZ 100196c0 f   cbase.obj
 0001:000186e0       ?SetEternalThink@CBaseEntity@@QAEXXZ 100196e0 f   cbase.obj
 0001:00018730       ?SetNextThink@CBaseEntity@@UAEXMH@Z 10019730 f   cbase.obj
 0001:000187c0       ?AbsoluteNextThink@CBaseEntity@@UAEXMH@Z 100197c0 f   cbase.obj
 0001:00018820       ?ThinkCorrection@CBaseEntity@@UAEXXZ 10019820 f   cbase.obj
 0001:00018850       ?TakeHealth@CBaseEntity@@UAEHMH@Z 10019850 f   cbase.obj
 0001:000188c0       ?TakeDamage@CBaseEntity@@UAEHPAUentvars_s@@0MH@Z 100198c0 f   cbase.obj
 0001:00018c00       ?Killed@CBaseEntity@@UAEXPAUentvars_s@@H@Z 10019c00 f   cbase.obj
 0001:00018c30       ?GetNextTarget@CBaseEntity@@UAEPAV1@XZ 10019c30 f   cbase.obj
 0001:00018c60       ?Save@CBaseEntity@@UAEHAAVCSave@@@Z 10019c60 f   cbase.obj
 0001:00018ce0       ?Restore@CBaseEntity@@UAEHAAVCRestore@@@Z 10019ce0 f   cbase.obj
 0001:00018f80       ?SetObjectCollisionBox@CBaseEntity@@UAEXXZ 10019f80 f   cbase.obj
 0001:00018f90       ?Intersects@CBaseEntity@@QAEHPAV1@@Z 10019f90 f   cbase.obj
 0001:00019020       ?MakeDormant@CBaseEntity@@QAEXXZ 1001a020 f   cbase.obj
 0001:00019080       ?IsDormant@CBaseEntity@@QAEHXZ 1001a080 f   cbase.obj
 0001:00019090       ?IsInWorld@CBaseEntity@@UAEHXZ 1001a090 f   cbase.obj
 0001:00019180       ?ShouldToggle@CBaseEntity@@QAEHW4USE_TYPE@@H@Z 1001a180 f   cbase.obj
 0001:000191b0       ?ShouldToggle@CBaseEntity@@QAEHW4USE_TYPE@@@Z 1001a1b0 f   cbase.obj
 0001:00019200       ?DamageDecal@CBaseEntity@@UAEHH@Z 1001a200 f   cbase.obj
 0001:00019230       ?Create@CBaseEntity@@SAPAV1@PADABVVector@@1PAUedict_s@@@Z 1001a230 f   cbase.obj
 0001:000192d0       ?ClientConnect@@YAHPAUedict_s@@PBD1QAD@Z 1001a2d0 f   client.obj
 0001:000192f0       ?ClientDisconnect@@YAXPAUedict_s@@@Z 1001a2f0 f   client.obj
 0001:000193b0       ?respawn@@YAXPAUentvars_s@@H@Z 1001a3b0 f   client.obj
 0001:00019460       ?ClientKill@@YAXPAUedict_s@@@Z 1001a460 f   client.obj
 0001:000194d0       ?ClientPutInServer@@YAXPAUedict_s@@@Z 1001a4d0 f   client.obj
 0001:00019550       ?Host_Say@@YAXPAUedict_s@@H@Z 1001a550 f   client.obj
 0001:000199f0       ?ClientCommand@@YAXPAUedict_s@@@Z 1001a9f0 f   client.obj
 0001:0001a930       ?ClientUserInfoChanged@@YAXPAUedict_s@@PAD@Z 1001b930 f   client.obj
 0001:0001abc0       ?VARS@@YAPAUentvars_s@@PAUedict_s@@@Z 1001bbc0 f i client.obj
 0001:0001abd0       ?ServerDeactivate@@YAXXZ   1001bbd0 f   client.obj
 0001:0001abf0       ?ServerActivate@@YAXPAUedict_s@@HH@Z 1001bbf0 f   client.obj
 0001:0001ac90       ?PlayerPreThink@@YAXPAUedict_s@@@Z 1001bc90 f   client.obj
 0001:0001ace0       ?PlayerPostThink@@YAXPAUedict_s@@@Z 1001bce0 f   client.obj
 0001:0001ad10       ?ParmsChangeLevel@@YAXXZ   1001bd10 f   client.obj
 0001:0001ad40       ?StartFrame@@YAXXZ         1001bd40 f   client.obj
 0001:0001ad80       ?ClientPrecache@@YAXXZ     1001bd80 f   client.obj
 0001:0001b250       ?GetGameDescription@@YAPBDXZ 1001c250 f   client.obj
 0001:0001b260       ?PlayerCustomization@@YAXPAUedict_s@@PAUcustomization_s@@@Z 1001c260 f   client.obj
 0001:0001b2d0       ?SpectatorConnect@@YAXPAUedict_s@@@Z 1001c2d0 f   client.obj
 0001:0001b2f0       ?SpectatorDisconnect@@YAXPAUedict_s@@@Z 1001c2f0 f   client.obj
 0001:0001b310       ?SpectatorThink@@YAXPAUedict_s@@@Z 1001c310 f   client.obj
 0001:0001b330       ?SetupVisibility@@YAXPAUedict_s@@0PAPAE1@Z 1001c330 f   client.obj
 0001:0001b420       ?AddToFullPack@@YAHPAUentity_state_s@@HPAUedict_s@@1HHPAE@Z 1001c420 f   client.obj
 0001:0001b860       ?CreateBaseline@@YAXHHPAUentity_state_s@@PAUedict_s@@HVVector@@2@Z 1001c860 f   client.obj
 0001:0001ba00       ?BodyTarget@CBasePlayer@@UAE?AVVector@@ABV2@@Z 1001ca00 f i client.obj
 0001:0001ba70       ?StartSneaking@CBasePlayer@@UAEXXZ 1001ca70 f i client.obj
 0001:0001ba90       ?StopSneaking@CBasePlayer@@UAEXXZ 1001ca90 f i client.obj
 0001:0001bab0       ?IsSneaking@CBasePlayer@@UAEHXZ 1001cab0 f i client.obj
 0001:0001bad0       ?Entity_FieldInit@@YAXPAUdelta_s@@@Z 1001cad0 f   client.obj
 0001:0001bb40       ?Entity_Encode@@YAXPAUdelta_s@@PBE1@Z 1001cb40 f   client.obj
 0001:0001bca0       ?Player_FieldInit@@YAXPAUdelta_s@@@Z 1001cca0 f   client.obj
 0001:0001bce0       ?Player_Encode@@YAXPAUdelta_s@@PBE1@Z 1001cce0 f   client.obj
 0001:0001bdc0       ?Custom_Entity_FieldInit@@YAXPAUdelta_s@@@Z 1001cdc0 f   client.obj
 0001:0001be70       ?Custom_Encode@@YAXPAUdelta_s@@PBE1@Z 1001ce70 f   client.obj
 0001:0001bf60       ?RegisterEncoders@@YAXXZ   1001cf60 f   client.obj
 0001:0001bfa0       ?GetWeaponData@@YAHPAUedict_s@@PAUweapon_data_s@@@Z 1001cfa0 f   client.obj
 0001:0001bfc0       ?UpdateClientData@@YAXPBUedict_s@@HPAUclientdata_s@@@Z 1001cfc0 f   client.obj
 0001:0001c210       ?CmdStart@@YAXPBUedict_s@@PBUusercmd_s@@I@Z 1001d210 f   client.obj
 0001:0001c280       ?CmdEnd@@YAXPBUedict_s@@@Z 1001d280 f   client.obj
 0001:0001c2c0       ?ConnectionlessPacket@@YAHPBUnetadr_s@@PBDPADPAH@Z 1001d2c0 f   client.obj
 0001:0001c2d0       ?GetHullBounds@@YAHHPAM0@Z 1001d2d0 f   client.obj
 0001:0001c2f0       ?InconsistentFile@@YAHPBUedict_s@@PBDPAD@Z 1001d2f0 f   client.obj
 0001:0001c330       ?IsTeamplay@CHalfLifeTeamplay@@UAEHXZ 1001d330 f   client.obj
 0001:0001c330       ?FAllowMonsters@CHalfLifeRules@@UAEHXZ 1001d330 f   client.obj
 0001:0001c330       ?AllowLagCompensation@@YAHXZ 1001d330 f   client.obj
 0001:0001c330       ?IsDeathmatch@CHalfLifeMultiplay@@UAEHXZ 1001d330 f   client.obj
 0001:0001c330       ?IsMultiplayer@CHalfLifeMultiplay@@UAEHXZ 1001d330 f   client.obj
 0001:0001c330       ?IsUseable@CHgun@@UAEHXZ   1001d330 f   client.obj
 0001:0001c340       ??0CBaseMonster@@QAE@XZ    1001d340 f i client.obj
 0001:0001c360       ?LimitVelocity@CGib@@QAEXXZ 1001d360 f   combat.obj
 0001:0001c450       ?SpawnHeadGib@CGib@@SAXPAUentvars_s@@@Z 1001d450 f   combat.obj
 0001:0001c480       ?SpawnHeadGib@CGib@@SAXPAUentvars_s@@PBD@Z 1001d480 f   combat.obj
 0001:0001c860       ?SpawnRandomGibs@CGib@@SAXPAUentvars_s@@HH@Z 1001d860 f   combat.obj
 0001:0001c8c0       ?SpawnRandomGibs@CGib@@SAXPAUentvars_s@@HHPBD@Z 1001d8c0 f   combat.obj
 0001:0001ccd0       ?HasHumanGibs@CBaseMonster@@UAEHXZ 1001dcd0 f   combat.obj
 0001:0001cd00       ?HasAlienGibs@CBaseMonster@@UAEHXZ 1001dd00 f   combat.obj
 0001:0001cd30       ?FadeMonster@CBaseMonster@@UAEXXZ 1001dd30 f   combat.obj
 0001:0001cdb0       ?GibMonster@CBaseMonster@@UAEXXZ 1001ddb0 f   combat.obj
 0001:0001cf00       ?GetDeathActivity@CBaseMonster@@UAE?AW4Activity@@XZ 1001df00 f   combat.obj
 0001:0001d1e0       ?GetSmallFlinchActivity@CBaseMonster@@QAE?AW4Activity@@XZ 1001e1e0 f   combat.obj
 0001:0001d270       ?BecomeDead@CBaseMonster@@UAEXXZ 1001e270 f   combat.obj
 0001:0001d2b0       ?ShouldGibMonster@CBaseMonster@@QAEHH@Z 1001e2b0 f   combat.obj
 0001:0001d2e0       ?CallGibMonster@CBaseMonster@@QAEXXZ 1001e2e0 f   combat.obj
 0001:0001d3d0       ?Killed@CBaseMonster@@UAEXPAUentvars_s@@H@Z 1001e3d0 f   combat.obj
 0001:0001d4e0       ?SUB_StartFadeOut@CBaseEntity@@QAEXXZ 1001e4e0 f   combat.obj
 0001:0001d550       ?SUB_FadeOut@CBaseEntity@@QAEXXZ 1001e550 f   combat.obj
 0001:0001d5b0       ?WaitTillLand@CGib@@QAEXXZ 1001e5b0 f   combat.obj
 0001:0001d650       ?BounceGibTouch@CGib@@QAEXPAVCBaseEntity@@@Z 1001e650 f   combat.obj
 0001:0001d7f0       ?StickyGibTouch@CGib@@QAEXPAVCBaseEntity@@@Z 1001e7f0 f   combat.obj
 0001:0001d9a0       ?Spawn@CGib@@QAEXPBD@Z     1001e9a0 f   combat.obj
 0001:0001daa0       ?TakeHealth@CBaseMonster@@UAEHMH@Z 1001eaa0 f   combat.obj
 0001:0001daf0       ?TakeDamage@CBaseMonster@@UAEHPAUentvars_s@@0MH@Z 1001eaf0 f   combat.obj
 0001:0001e080       ?DeadTakeDamage@CBaseMonster@@QAEHPAUentvars_s@@0MH@Z 1001f080 f   combat.obj
 0001:0001e290       ?DamageForce@CBaseMonster@@QAEMM@Z 1001f290 f   combat.obj
 0001:0001e2d0       ?RadiusDamage@@YAXVVector@@PAUentvars_s@@1MMHH@Z 1001f2d0 f   combat.obj
 0001:0001e5b0       ?Normalize@Vector@@QBE?AV1@XZ 1001f5b0 f i combat.obj
 0001:0001e630       ?RadiusDamage@CBaseMonster@@QAEXPAUentvars_s@@0MHH@Z 1001f630 f   combat.obj
 0001:0001e680       ?RadiusDamage@CBaseMonster@@QAEXVVector@@PAUentvars_s@@1MHH@Z 1001f680 f   combat.obj
 0001:0001e6d0       ?CheckTraceHullAttack@CBaseMonster@@QAEPAVCBaseEntity@@MHH@Z 1001f6d0 f   combat.obj
 0001:0001e7d0       ?FInViewCone@CBaseMonster@@UAEHPAVCBaseEntity@@@Z 1001f7d0 f   combat.obj
 0001:0001e890       ?FInViewCone@CBaseMonster@@UAEHPAVVector@@@Z 1001f890 f   combat.obj
 0001:0001e940       ?FVisible@CBaseEntity@@UAEHPAV1@@Z 1001f940 f   combat.obj
 0001:0001ea60       ?FVisible@CBaseEntity@@UAEHABVVector@@@Z 1001fa60 f   combat.obj
 0001:0001eae0       ?TraceAttack@CBaseEntity@@UAEXPAUentvars_s@@MVVector@@PAUTraceResult@@H@Z 1001fae0 f   combat.obj
 0001:0001ebc0       ?TraceAttack@CBaseMonster@@UAEXPAUentvars_s@@MVVector@@PAUTraceResult@@H@Z 1001fbc0 f   combat.obj
 0001:0001edd0       ?FireBullets@CBaseEntity@@QAEXKVVector@@00MHHHPAUentvars_s@@@Z 1001fdd0 f   combat.obj
 0001:0001f930       ?FireBulletsPlayer@CBaseEntity@@QAE?AVVector@@KV2@00MHHHPAUentvars_s@@H@Z 10020930 f   combat.obj
 0001:0001ff80       ?TraceBleed@CBaseEntity@@UAEXMVVector@@PAUTraceResult@@H@Z 10020f80 f   combat.obj
 0001:00020160       _monster_alien_controller  10021160 f   controller.obj
 0001:000201e0       ?Save@CController@@UAEHAAVCSave@@@Z 100211e0 f   controller.obj
 0001:00020250       ?Restore@CController@@UAEHAAVCRestore@@@Z 10021250 f   controller.obj
 0001:00020280       ?Classify@CISlave@@UAEHXZ  10021280 f   controller.obj
 0001:00020280       ?Classify@CController@@UAEHXZ 10021280 f   controller.obj
 0001:00020280       ?Classify@CAGrunt@@UAEHXZ  10021280 f   controller.obj
 0001:00020290       ?SetYawSpeed@CController@@UAEXXZ 10021290 f   controller.obj
 0001:00020290       ?SetYawSpeed@CZombie@@UAEXXZ 10021290 f   controller.obj
 0001:00020290       ?SetYawSpeed@CRat@@UAEXXZ  10021290 f   controller.obj
 0001:00020290       ?SetYawSpeed@CBloater@@UAEXXZ 10021290 f   controller.obj
 0001:00020290       ?SetYawSpeed@CBabyCrab@@UAEXXZ 10021290 f   controller.obj
 0001:000202a0       ?TakeDamage@CController@@UAEHPAUentvars_s@@0MH@Z 100212a0 f   controller.obj
 0001:000202e0       ?Killed@CController@@UAEXPAUentvars_s@@H@Z 100212e0 f   controller.obj
 0001:00020330       ?GibMonster@CController@@UAEXXZ 10021330 f   controller.obj
 0001:00020380       ?PainSound@CController@@UAEXXZ 10021380 f   controller.obj
 0001:000203e0       ?AlertSound@CController@@UAEXXZ 100213e0 f   controller.obj
 0001:00020430       ?IdleSound@CController@@UAEXXZ 10021430 f   controller.obj
 0001:00020480       ?AttackSound@CController@@QAEXXZ 10021480 f   controller.obj
 0001:000204d0       ?DeathSound@CController@@UAEXXZ 100214d0 f   controller.obj
 0001:00020520       ?HandleAnimEvent@CController@@UAEXPAUMonsterEvent_t@@@Z 10021520 f   controller.obj
 0001:000208c0       ?Spawn@CController@@UAEXXZ 100218c0 f   controller.obj
 0001:00020a00       ?Precache@CController@@UAEXXZ 10021a00 f   controller.obj
 0001:00020ae0       ?ScheduleFromName@CController@@UAEPAUSchedule_t@@PBD@Z 10021ae0 f   controller.obj
 0001:00020b10       ?StartTask@CController@@UAEXPAUTask_t@@@Z 10021b10 f   controller.obj
 0001:00020c80       ?Intersect@@YA?AVVector@@V1@00M@Z 10021c80 f   controller.obj
 0001:00020e40       ?LookupFloat@CController@@QAEHXZ 10021e40 f   controller.obj
 0001:00020fe0       ?RunTask@CController@@UAEXPAUTask_t@@@Z 10021fe0 f   controller.obj
 0001:000216e0       ?GetSchedule@CController@@UAEPAUSchedule_t@@XZ 100226e0 f   controller.obj
 0001:00021760       ?GetScheduleOfType@CController@@UAEPAUSchedule_t@@H@Z 10022760 f   controller.obj
 0001:000217e0       ?CheckRangeAttack1@CController@@UAEHMM@Z 100227e0 f   controller.obj
 0001:00021820       ?CheckRangeAttack2@CController@@UAEHMM@Z 10022820 f   controller.obj
 0001:00021860       ?PlayerRelationship@CHalfLifeRules@@UAEHPAVCBaseEntity@@0@Z 10022860 f   controller.obj
 0001:00021860       ?CheckRangeAttack2@CHeadCrab@@UAEHMM@Z 10022860 f   controller.obj
 0001:00021860       ?CheckRangeAttack2@CISlave@@UAEHMM@Z 10022860 f   controller.obj
 0001:00021860       ?CheckMeleeAttack1@CController@@UAEHMM@Z 10022860 f   controller.obj
 0001:00021870       ?SetActivity@CController@@UAEXW4Activity@@@Z 10022870 f   controller.obj
 0001:000218a0       ?RunAI@CController@@UAEXXZ 100228a0 f   controller.obj
 0001:00021ae0       ?Stop@CController@@UAEXXZ  10022ae0 f   controller.obj
 0001:00021b00       ?Move@CController@@UAEXM@Z 10022b00 f   controller.obj
 0001:00022030       ?ShouldAdvanceRoute@CController@@UAEHM@Z 10023030 f   controller.obj
 0001:00022050       ?CheckLocalMove@CController@@UAEHABVVector@@0PAVCBaseEntity@@PAM@Z 10023050 f   controller.obj
 0001:00022160       ?MoveExecute@CController@@UAEXPAVCBaseEntity@@ABVVector@@M@Z 10023160 f   controller.obj
 0001:00022280       _controller_head_ball      10023280 f   controller.obj
 0001:000222e0       ?Spawn@CControllerHeadBall@@EAEXXZ 100232e0 f   controller.obj
 0001:00022440       ?Precache@CControllerHeadBall@@EAEXXZ 10023440 f   controller.obj
 0001:00022470       ?HuntThink@CControllerHeadBall@@AAEXXZ 10023470 f   controller.obj
 0001:00022890       ?DieThink@CControllerHeadBall@@AAEXXZ 10023890 f   controller.obj
 0001:000228a0       ?MovetoTarget@CControllerHeadBall@@AAEXVVector@@@Z 100238a0 f   controller.obj
 0001:00022ae0       ?BounceTouch@CControllerHeadBall@@AAEXPAVCBaseEntity@@@Z 10023ae0 f   controller.obj
 0001:00022c30       _controller_energy_ball    10023c30 f   controller.obj
 0001:00022c90       ?Spawn@CControllerZapBall@@EAEXXZ 10023c90 f   controller.obj
 0001:00022dc0       ?Precache@CControllerZapBall@@EAEXXZ 10023dc0 f   controller.obj
 0001:00022dd0       ?AnimateThink@CControllerZapBall@@AAEXXZ 10023dd0 f   controller.obj
 0001:00022e70       ?ExplodeTouch@CControllerZapBall@@AAEXPAVCBaseEntity@@@Z 10023e70 f   controller.obj
 0001:00022f40       _crossbow_bolt             10023f40 f   crossbow.obj
 0001:00022f90       ?BoltCreate@CCrossbowBolt@@SAPAV1@XZ 10023f90 f   crossbow.obj
 0001:00023000       ?Spawn@CCrossbowBolt@@EAEXXZ 10024000 f   crossbow.obj
 0001:000230c0       ?Precache@CCrossbowBolt@@EAEXXZ 100240c0 f   crossbow.obj
 0001:00023120       ?BoltTouch@CCrossbowBolt@@AAEXPAVCBaseEntity@@@Z 10024120 f   crossbow.obj
 0001:000234f0       ?BubbleThink@CCrossbowBolt@@AAEXXZ 100244f0 f   crossbow.obj
 0001:00023560       ?ExplodeThink@CCrossbowBolt@@AAEXXZ 10024560 f   crossbow.obj
 0001:00023660       _weapon_crossbow           10024660 f   crossbow.obj
 0001:000236b0       ?Spawn@CCrossbow@@UAEXXZ   100246b0 f   crossbow.obj
 0001:000236f0       ?Precache@CCrossbow@@UAEXXZ 100246f0 f   crossbow.obj
 0001:00023770       ?GetItemInfo@CCrossbow@@UAEHPAUItemInfo@@@Z 10024770 f   crossbow.obj
 0001:000237e0       ?Deploy@CCrossbow@@UAEHXZ  100247e0 f   crossbow.obj
 0001:00023820       ?Holster@CCrossbow@@UAEXH@Z 10024820 f   crossbow.obj
 0001:00023890       ?PrimaryAttack@CCrossbow@@UAEXXZ 10024890 f   crossbow.obj
 0001:000238c0       ?FireSniperBolt@CCrossbow@@QAEXXZ 100248c0 f   crossbow.obj
 0001:00023b00       ?FireBolt@CCrossbow@@QAEXXZ 10024b00 f   crossbow.obj
 0001:00023de0       ?SecondaryAttack@CCrossbow@@UAEXXZ 10024de0 f   crossbow.obj
 0001:00023e80       ?Reload@CCrossbow@@UAEXXZ  10024e80 f   crossbow.obj
 0001:00023f20       ?WeaponIdle@CCrossbow@@UAEXXZ 10024f20 f   crossbow.obj
 0001:00024040       _ammo_crossbow             10025040 f   crossbow.obj
 0001:00024090       ?Spawn@CCrossbowAmmo@@EAEXXZ 10025090 f i crossbow.obj
 0001:000240c0       ?Precache@CCrossbowAmmo@@EAEXXZ 100250c0 f i crossbow.obj
 0001:000240e0       ?AddAmmo@CCrossbowAmmo@@EAEHPAVCBaseEntity@@@Z 100250e0 f i crossbow.obj
 0001:00024140       ?Instance@CBaseEntity@@SAPAV1@PAUedict_s@@@Z 10025140 f i crossbow.obj
 0001:00024160       ?GetSpreadVec@CBasePlayerItem@@UAE?AVVector@@XZ 10025160 f i crossbow.obj
 0001:00024180       ?HasCustomGibs@CBaseMonster@@UAEHXZ 10025180 f i crossbow.obj
 0001:00024180       ?IsTeamplay@CGameRules@@UAEHXZ 10025180 f i crossbow.obj
 0001:00024180       ?UseDecrement@CSqueak@@UAEHXZ 10025180 f i crossbow.obj
 0001:00024180       ?IsSneaking@CBaseEntity@@UAEHXZ 10025180 f i crossbow.obj
 0001:00024180       ?IsAlias@CBaseEntity@@UAEHXZ 10025180 f i crossbow.obj
 0001:00024180       ?FBecomeProne@CBaseEntity@@UAEHXZ 10025180 f i crossbow.obj
 0001:00024180       ?UseDecrement@CHandGrenade@@UAEHXZ 10025180 f i crossbow.obj
 0001:00024180       ?MyMonsterPointer@CBaseEntity@@UAEPAVCBaseMonster@@XZ 10025180 f i crossbow.obj
 0001:00024180       ?ChangeModeTo1@CBaseToggleWeapon@@UAEHXZ 10025180 f i crossbow.obj
 0001:00024180       ?UseDecrement@CTripmine@@UAEHXZ 10025180 f i crossbow.obj
 0001:00024180       ?ChangeModeTo2@CBaseToggleWeapon@@UAEHXZ 10025180 f i crossbow.obj
 0001:00024180       ?ShouldFadeOnDeath@CBasePlayer@@UAEHXZ 10025180 f i crossbow.obj
 0001:00024180       ?GetMode@CBasePlayerItem@@UAEHXZ 10025180 f i crossbow.obj
 0001:00024180       ?UseDecrement@CRpg@@UAEHXZ 10025180 f i crossbow.obj
 0001:00024180       ?GetState@CBaseEntity@@UAE?AW4STATE@@XZ 10025180 f i crossbow.obj
 0001:00024180       ?IsAlive@CCycler@@UAEHXZ   10025180 f i crossbow.obj
 0001:00024180       ?Classify@CBaseEntity@@UAEHXZ 10025180 f i crossbow.obj
 0001:00024180       ?UseDecrement@CBasePlayerWeapon@@UAEHXZ 10025180 f i crossbow.obj
 0001:00024180       ?ShouldWeaponIdle@CBasePlayerWeapon@@UAEHXZ 10025180 f i crossbow.obj
 0001:00024180       ?IsNetClient@CBaseEntity@@UAEHXZ 10025180 f i crossbow.obj
 0001:00024180       ?UseDecrement@CSatchel@@UAEHXZ 10025180 f i crossbow.obj
 0001:00024180       ?Respawn@CBaseEntity@@UAEPAV1@XZ 10025180 f i crossbow.obj
 0001:00024180       ?IsPlayer@CBaseEntity@@UAEHXZ 10025180 f i crossbow.obj
 0001:00024180       ?UseDecrement@CCrossbow@@UAEHXZ 10025180 f i crossbow.obj
 0001:00024180       ?UseDecrement@CPython@@UAEHXZ 10025180 f i crossbow.obj
 0001:00024180       ?UseDecrement@CGauss@@UAEHXZ 10025180 f i crossbow.obj
 0001:00024180       ?GetToggleState@CBaseEntity@@UAEHXZ 10025180 f i crossbow.obj
 0001:00024180       ?MySquadMonsterPointer@CBaseEntity@@UAEPAVCSquadMonster@@XZ 10025180 f i crossbow.obj
 0001:00024180       ?PlayTextureSounds@CHalfLifeMultiplay@@UAEHXZ 10025180 f i crossbow.obj
 0001:00024180       ?UseDecrement@CEgon@@UAEHXZ 10025180 f i crossbow.obj
 0001:00024180       ?UseDecrement@CHgun@@UAEHXZ 10025180 f i crossbow.obj
 0001:00024190       ?ObjectCaps@CBasePlayerItem@@UAEHXZ 10025190 f i crossbow.obj
 0001:000241a0       ?IsTogglePlat@CFuncTrackChange@@UAEHXZ 100251a0 f i crossbow.obj
 0001:000241a0       ?PlayTextureSounds@CGameRules@@UAEHXZ 100251a0 f i crossbow.obj
 0001:000241a0       ?iItemSlot@CCrowbar@@UAEHXZ 100251a0 f i crossbow.obj
 0001:000241a0       ?Classify@CGunTarget@@UAEHXZ 100251a0 f i crossbow.obj
 0001:000241a0       ?ShouldWeaponIdle@CRpg@@UAEHXZ 100251a0 f i crossbow.obj
 0001:000241a0       ?GetStoppedActivity@CBaseMonster@@UAE?AW4Activity@@XZ 100251a0 f i crossbow.obj
 0001:000241a0       ?IsAlias@CBaseAlias@@UAEHXZ 100251a0 f i crossbow.obj
 0001:000241a0       ?IsPlayer@CBasePlayer@@UAEHXZ 100251a0 f i crossbow.obj
 0001:000241a0       ?iItemSlot@CWeaponCycler@@UAEHXZ 100251a0 f i crossbow.obj
 0001:000241a0       ?Classify@COsprey@@UAEHXZ  100251a0 f i crossbow.obj
 0001:000241a0       ?FAllowFlashlight@CHalfLifeRules@@UAEHXZ 100251a0 f i crossbow.obj
 0001:000241a0       ?GetIdealState@CTentacle@@UAE?AW4MONSTERSTATE@@XZ 100251a0 f i crossbow.obj
 0001:000241a0       ?IsNetClient@CBasePlayer@@UAEHXZ 100251a0 f i crossbow.obj
 0001:000241a0       ?CanHolster@CBasePlayerItem@@UAEHXZ 100251a0 f i crossbow.obj
 0001:000241b0       ?AddWeapon@CBasePlayerWeapon@@UAEHXZ 100251b0 f i crossbow.obj
 0001:000241c0       ?ObjectCaps@CBasePlayerAmmo@@UAEHXZ 100251c0 f i crossbow.obj
 0001:000241c0       ?ObjectCaps@CItem@@UAEHXZ  100251c0 f i crossbow.obj
 0001:000241d0       ?iItemSlot@CMP5@@UAEHXZ    100251d0 f i crossbow.obj
 0001:000241d0       ?iItemSlot@CShotgun@@UAEHXZ 100251d0 f i crossbow.obj
 0001:000241d0       ?Classify@CDeadScientist@@UAEHXZ 100251d0 f i crossbow.obj
 0001:000241d0       ?iItemSlot@CAK47@@UAEHXZ   100251d0 f i crossbow.obj
 0001:000241d0       ?iItemSlot@CAKS@@UAEHXZ    100251d0 f i crossbow.obj
 0001:000241d0       ?iItemSlot@CCrossbow@@UAEHXZ 100251d0 f i crossbow.obj
 0001:000241e0       _weapon_crowbar            100251e0 f   crowbar.obj
 0001:000241e0       _weapon_knife              100251e0 f   crowbar.obj
 0001:00024230       ?Spawn@CCrowbar@@UAEXXZ    10025230 f   crowbar.obj
 0001:00024270       ?Precache@CCrowbar@@UAEXXZ 10025270 f   crowbar.obj
 0001:000242f0       ?GetItemInfo@CCrowbar@@UAEHPAUItemInfo@@@Z 100252f0 f   crowbar.obj
 0001:00024340       ?Deploy@CCrowbar@@UAEHXZ   10025340 f   crowbar.obj
 0001:00024360       ?Holster@CCrowbar@@UAEXH@Z 10025360 f   crowbar.obj
 0001:00024390       ?FindHullIntersection@@YAXABVVector@@AAUTraceResult@@PAM2PAUedict_s@@@Z 10025390 f   crowbar.obj
 0001:000245c0       ?PrimaryAttack@CCrowbar@@UAEXXZ 100255c0 f   crowbar.obj
 0001:000245d0       ?SecondaryAttack@CCrowbar@@UAEXXZ 100255d0 f   crowbar.obj
 0001:000245e0       ?Smack@CCrowbar@@QAEXXZ    100255e0 f   crowbar.obj
 0001:00024630       ?SmackNormal@CCrowbar@@QAEXXZ 10025630 f   crowbar.obj
 0001:00024650       ?Swing@CCrowbar@@QAEHH@Z   10025650 f   crowbar.obj
 0001:00024d10       ?ScheduleFromName@CBaseMonster@@UAEPAUSchedule_t@@PBD@Z 10025d10 f   defaultai.obj
 0001:00024d30       ?ScheduleInList@CBaseMonster@@QAEPAUSchedule_t@@PBDPAPAU2@H@Z 10025d30 f   defaultai.obj
 0001:00024dc0       ?GetScheduleOfType@CBaseMonster@@UAEPAUSchedule_t@@H@Z 10025dc0 f   defaultai.obj
 0001:00025090       ?Save@CBaseDoor@@UAEHAAVCSave@@@Z 10026090 f   doors.obj
 0001:00025100       ?Restore@CBaseDoor@@UAEHAAVCRestore@@@Z 10026100 f   doors.obj
 0001:00025130       ?PlayLockSounds@@YAXPAUentvars_s@@PAUlocksounds@@HH@Z 10026130 f   doors.obj
 0001:00025350       ?KeyValue@CBaseDoor@@UAEXPAUKeyValueData_s@@@Z 10026350 f   doors.obj
 0001:00025790       ?ObjectCaps@CBaseDoor@@UAEHXZ 10026790 f i doors.obj
 0001:000257f0       _func_water                100267f0 f   doors.obj
 0001:000257f0       _func_door                 100267f0 f   doors.obj
 0001:00025840       ?Spawn@CBaseDoor@@UAEXXZ   10026840 f   doors.obj
 0001:00025930       ?PostSpawn@CBaseDoor@@UAEXXZ 10026930 f   doors.obj
 0001:00025ba0       ?SetToggleState@CBaseDoor@@UAEXH@Z 10026ba0 f   doors.obj
 0001:00025c80       ?Precache@CBaseDoor@@UAEXXZ 10026c80 f   doors.obj
 0001:00026120       ?DoorTouch@CBaseDoor@@QAEXPAVCBaseEntity@@@Z 10027120 f   doors.obj
 0001:00026200       ?Use@CBaseDoor@@UAEXPAVCBaseEntity@@0W4USE_TYPE@@M@Z 10027200 f   doors.obj
 0001:000262c0       ?DoorActivate@CBaseDoor@@QAEHXZ 100272c0 f   doors.obj
 0001:00026380       ?DoorGoUp@CBaseDoor@@QAEXXZ 10027380 f   doors.obj
 0001:000265a0       ?DoorHitTop@CBaseDoor@@QAEXXZ 100275a0 f   doors.obj
 0001:00026720       ?DoorGoDown@CBaseDoor@@QAEXXZ 10027720 f   doors.obj
 0001:00026860       ?DoorHitBottom@CBaseDoor@@QAEXXZ 10027860 f   doors.obj
 0001:000269b0       ?Blocked@CBaseDoor@@UAEXPAVCBaseEntity@@@Z 100279b0 f   doors.obj
 0001:00026d30       _func_door_rotating        10027d30 f   doors.obj
 0001:00026d80       ?Spawn@CRotDoor@@UAEXXZ    10027d80 f   doors.obj
 0001:00026fc0       ?KeyValue@CRotDoor@@UAEXPAUKeyValueData_s@@@Z 10027fc0 f   doors.obj
 0001:00027040       ?SetToggleState@CRotDoor@@UAEXH@Z 10028040 f   doors.obj
 0001:000270b0       _momentary_door            100280b0 f   doors.obj
 0001:00027100       ?GetState@CMomentaryDoor@@UAE?AW4STATE@@XZ 10028100 f i doors.obj
 0001:00027110       ?CalcRatio@CMomentaryDoor@@UAEMPAVCBaseEntity@@@Z 10028110 f i doors.obj
 0001:00027120       ?Save@CMomentaryDoor@@UAEHAAVCSave@@@Z 10028120 f   doors.obj
 0001:00027190       ?Restore@CMomentaryDoor@@UAEHAAVCRestore@@@Z 10028190 f   doors.obj
 0001:000271c0       ?Spawn@CMomentaryDoor@@UAEXXZ 100281c0 f   doors.obj
 0001:000273f0       ?Precache@CMomentaryDoor@@UAEXXZ 100283f0 f   doors.obj
 0001:00027500       ?KeyValue@CMomentaryDoor@@UAEXPAUKeyValueData_s@@@Z 10028500 f   doors.obj
 0001:00027600       ?Use@CMomentaryDoor@@UAEXPAVCBaseEntity@@0W4USE_TYPE@@M@Z 10028600 f   doors.obj
 0001:00027790       ?MomentaryMoveDone@CMomentaryDoor@@QAEXXZ 10028790 f   doors.obj
 0001:000277d0       _info_target               100287d0 f   effects.obj
 0001:00027820       ?Spawn@CInfoTarget@@UAEXXZ 10028820 f   effects.obj
 0001:00027880       ?Precache@CInfoTarget@@UAEXXZ 10028880 f   effects.obj
 0001:000278a0       _env_bubbles               100288a0 f   effects.obj
 0001:000278f0       ?GetState@CBubbling@@UAE?AW4STATE@@XZ 100288f0 f i effects.obj
 0001:00027900       ?Save@CBubbling@@UAEHAAVCSave@@@Z 10028900 f   effects.obj
 0001:00027970       ?Restore@CBubbling@@UAEHAAVCRestore@@@Z 10028970 f   effects.obj
 0001:000279a0       ?Spawn@CBubbling@@UAEXXZ   100289a0 f   effects.obj
 0001:00027ab0       ?Precache@CBubbling@@UAEXXZ 10028ab0 f   effects.obj
 0001:00027ad0       ?Use@CBubbling@@UAEXPAVCBaseEntity@@0W4USE_TYPE@@M@Z 10028ad0 f   effects.obj
 0001:00027b30       ?KeyValue@CBubbling@@UAEXPAUKeyValueData_s@@@Z 10028b30 f   effects.obj
 0001:00027d50       ?FizzThink@CBubbling@@QAEXXZ 10028d50 f   effects.obj
 0001:00027e00       _beam                      10028e00 f   effects.obj
 0001:00027e50       ?Spawn@CBeam@@UAEXXZ       10028e50 f   effects.obj
 0001:00027e70       ?Precache@CBeam@@UAEXXZ    10028e70 f   effects.obj
 0001:00027ec0       ?SetStartEntity@CBeam@@QAEXH@Z 10028ec0 f   effects.obj
 0001:00027f10       ?SetEndEntity@CBeam@@QAEXH@Z 10028f10 f   effects.obj
 0001:00027f60       ?GetStartPos@CBeam@@QAEABVVector@@XZ 10028f60 f   effects.obj
 0001:00027fa0       ?GetEndPos@CBeam@@QAEABVVector@@XZ 10028fa0 f   effects.obj
 0001:00027ff0       ?BeamCreate@CBeam@@SAPAV1@PBDH@Z 10028ff0 f   effects.obj
 0001:00028070       ?BeamInit@CBeam@@QAEXPBDH@Z 10029070 f   effects.obj
 0001:00028130       ?PointsInit@CBeam@@QAEXABVVector@@0@Z 10029130 f   effects.obj
 0001:000281b0       ?PointEntInit@CBeam@@QAEXABVVector@@H@Z 100291b0 f   effects.obj
 0001:00028230       ?EntsInit@CBeam@@QAEXHH@Z  10029230 f   effects.obj
 0001:000282a0       ?RelinkBeam@CBeam@@QAEXXZ  100292a0 f   effects.obj
 0001:00028420       ?TriggerTouch@CBeam@@QAEXPAVCBaseEntity@@@Z 10029420 f   effects.obj
 0001:00028480       ?RandomTargetname@CBeam@@QAEPAVCBaseEntity@@PBD@Z 10029480 f   effects.obj
 0001:000284e0       ?DoSparks@CBeam@@QAEXABVVector@@0@Z 100294e0 f   effects.obj
 0001:00028520       _env_beam                  10029520 f   effects.obj
 0001:00028520       _env_lightning             10029520 f   effects.obj
 0001:00028570       ?GetState@CLightning@@UAE?AW4STATE@@XZ 10029570 f i effects.obj
 0001:00028580       ?Save@CLightning@@UAEHAAVCSave@@@Z 10029580 f   effects.obj
 0001:000285f0       ?Restore@CLightning@@UAEHAAVCRestore@@@Z 100295f0 f   effects.obj
 0001:00028620       ?Spawn@CLightning@@UAEXXZ  10029620 f   effects.obj
 0001:000287e0       ?Precache@CLightning@@UAEXXZ 100297e0 f   effects.obj
 0001:00028810       ?Activate@CLightning@@UAEXXZ 10029810 f   effects.obj
 0001:00028850       ?KeyValue@CLightning@@UAEXPAUKeyValueData_s@@@Z 10029850 f   effects.obj
 0001:00028d10       ?ToggleUse@CLightning@@QAEXPAVCBaseEntity@@0W4USE_TYPE@@M@Z 10029d10 f   effects.obj
 0001:00028df0       ?StrikeUse@CLightning@@QAEXPAVCBaseEntity@@0W4USE_TYPE@@M@Z 10029df0 f   effects.obj
 0001:00028e60       ?IsPointEntity@@YAHPAVCBaseEntity@@@Z 10029e60 f   effects.obj
 0001:00028e90       ?StrikeThink@CLightning@@QAEXXZ 10029e90 f   effects.obj
 0001:000292f0       ?GetTripEntity@CBeam@@QAEPAVCBaseEntity@@PAUTraceResult@@@Z 1002a2f0 f   effects.obj
 0001:00029420       ?BeamDamage@CBeam@@QAEXPAUTraceResult@@@Z 1002a420 f   effects.obj
 0001:00029570       ?TripThink@CLightning@@QAEXXZ 1002a570 f   effects.obj
 0001:00029670       ?Zap@CLightning@@QAEXABVVector@@0@Z 1002a670 f   effects.obj
 0001:000297b0       ?RandomArea@CLightning@@QAEXXZ 1002a7b0 f   effects.obj
 0001:00029bb0       ?RandomPoint@CLightning@@QAEXAAVVector@@@Z 1002abb0 f   effects.obj
 0001:00029d40       ?BeamUpdatePoints@CLightning@@QAEXXZ 1002ad40 f   effects.obj
 0001:00029e90       ?BeamUpdateVars@CLightning@@QAEXXZ 1002ae90 f   effects.obj
 0001:00029f80       _env_laser                 1002af80 f   effects.obj
 0001:00029fd0       ?Save@CLaser@@UAEHAAVCSave@@@Z 1002afd0 f   effects.obj
 0001:0002a040       ?ObjectCaps@CBeam@@UAEHXZ  1002b040 f i effects.obj
 0001:0002a040       ?ObjectCaps@CSprite@@UAEHXZ 1002b040 f i effects.obj
 0001:0002a080       ?Restore@CLaser@@UAEHAAVCRestore@@@Z 1002b080 f   effects.obj
 0001:0002a0b0       ?Spawn@CLaser@@UAEXXZ      1002b0b0 f   effects.obj
 0001:0002a100       ?PostSpawn@CLaser@@UAEXXZ  1002b100 f   effects.obj
 0001:0002a520       ?Center@CBeam@@UAE?AVVector@@XZ 1002b520 f i effects.obj
 0001:0002a580       ?GetState@CSprite@@UAE?AW4STATE@@XZ 1002b580 f i effects.obj
 0001:0002a580       ?GetState@CLaser@@UAE?AW4STATE@@XZ 1002b580 f i effects.obj
 0001:0002a5a0       ?Precache@CLaser@@UAEXXZ   1002b5a0 f   effects.obj
 0001:0002a650       ?KeyValue@CLaser@@UAEXPAUKeyValueData_s@@@Z 1002b650 f   effects.obj
 0001:0002abe0       ?TurnOff@CLaser@@QAEXXZ    1002bbe0 f   effects.obj
 0001:0002ac80       ?TurnOn@CLaser@@QAEXXZ     1002bc80 f   effects.obj
 0001:0002ad40       ?Use@CLaser@@UAEXPAVCBaseEntity@@0W4USE_TYPE@@M@Z 1002bd40 f   effects.obj
 0001:0002ad80       ?FireAtPoint@CLaser@@QAEXVVector@@AAUTraceResult@@@Z 1002bd80 f   effects.obj
 0001:0002af20       ?StrikeThink@CLaser@@QAEXXZ 1002bf20 f   effects.obj
 0001:0002b220       _env_glow                  1002c220 f   effects.obj
 0001:0002b270       ?Save@CGlow@@UAEHAAVCSave@@@Z 1002c270 f   effects.obj
 0001:0002b2e0       ?Restore@CGlow@@UAEHAAVCRestore@@@Z 1002c2e0 f   effects.obj
 0001:0002b310       ?Spawn@CGlow@@UAEXXZ       1002c310 f   effects.obj
 0001:0002b410       ?Think@CGlow@@UAEXXZ       1002c410 f   effects.obj
 0001:0002b450       ?Animate@CGlow@@QAEXM@Z    1002c450 f   effects.obj
 0001:0002b490       _env_sprite                1002c490 f   effects.obj
 0001:0002b4e0       ?Save@CSprite@@UAEHAAVCSave@@@Z 1002c4e0 f   effects.obj
 0001:0002b550       ?Restore@CSprite@@UAEHAAVCRestore@@@Z 1002c550 f   effects.obj
 0001:0002b580       ?Spawn@CSprite@@UAEXXZ     1002c580 f   effects.obj
 0001:0002b660       ?Precache@CSprite@@UAEXXZ  1002c660 f   effects.obj
 0001:0002b6f0       ?SpriteInit@CSprite@@QAEXPBDABVVector@@@Z 1002c6f0 f   effects.obj
 0001:0002b730       ?SpriteCreate@CSprite@@SAPAV1@PBDABVVector@@H@Z 1002c730 f   effects.obj
 0001:0002b7d0       ?AnimateThink@CSprite@@QAEXXZ 1002c7d0 f   effects.obj
 0001:0002b810       ?AnimateUntilDead@CSprite@@QAEXXZ 1002c810 f   effects.obj
 0001:0002b850       ?Expand@CSprite@@QAEXMM@Z  1002c850 f   effects.obj
 0001:0002b890       ?ExpandThink@CSprite@@QAEXXZ 1002c890 f   effects.obj
 0001:0002b920       ?Animate@CSprite@@QAEXM@Z  1002c920 f   effects.obj
 0001:0002b990       ?TurnOff@CSprite@@QAEXXZ   1002c990 f   effects.obj
 0001:0002b9b0       ?TurnOn@CSprite@@QAEXXZ    1002c9b0 f   effects.obj
 0001:0002baa0       ?Use@CSprite@@UAEXPAVCBaseEntity@@0W4USE_TYPE@@M@Z 1002caa0 f   effects.obj
 0001:0002bb00       ?Save@CEnvModel@@EAEHAAVCSave@@@Z 1002cb00 f   effects.obj
 0001:0002bb70       ?Restore@CEnvModel@@EAEHAAVCRestore@@@Z 1002cb70 f   effects.obj
 0001:0002bba0       _env_model                 1002cba0 f   effects.obj
 0001:0002bbf0       ?KeyValue@CEnvModel@@EAEXPAUKeyValueData_s@@@Z 1002cbf0 f   effects.obj
 0001:0002bd60       ?Spawn@CEnvModel@@EAEXXZ   1002cd60 f   effects.obj
 0001:0002be60       ?Precache@CGrassSprite@@UAEXXZ 1002ce60 f   effects.obj
 0001:0002be60       ?Precache@CEnvModel@@EAEXXZ 1002ce60 f   effects.obj
 0001:0002be80       ?Use@CEnvModel@@EAEXPAVCBaseEntity@@0W4USE_TYPE@@M@Z 1002ce80 f   effects.obj
 0001:0002bee0       ?Think@CEnvModel@@EAEXXZ   1002cee0 f   effects.obj
 0001:0002bf50       ?SetSequence@CEnvModel@@AAEXXZ 1002cf50 f   effects.obj
 0001:0002c050       ?Save@CGibShooter@@UAEHAAVCSave@@@Z 1002d050 f   effects.obj
 0001:0002c0c0       ?Restore@CGibShooter@@UAEHAAVCRestore@@@Z 1002d0c0 f   effects.obj
 0001:0002c0f0       _gibshooter                1002d0f0 f   effects.obj
 0001:0002c140       ?Precache@CGibShooter@@UAEXXZ 1002d140 f   effects.obj
 0001:0002c1a0       ?KeyValue@CGibShooter@@UAEXPAUKeyValueData_s@@@Z 1002d1a0 f   effects.obj
 0001:0002c500       ?Use@CGibShooter@@UAEXPAVCBaseEntity@@0W4USE_TYPE@@M@Z 1002d500 f   effects.obj
 0001:0002c530       ?Spawn@CGibShooter@@UAEXXZ 1002d530 f   effects.obj
 0001:0002c5b0       ?CreateGib@CGibShooter@@UAEPAVCBaseEntity@@VVector@@0@Z 1002d5b0 f   effects.obj
 0001:0002c770       ?ShootThink@CGibShooter@@QAEXXZ 1002d770 f   effects.obj
 0001:0002cce0       ?Touch@CShot@@UAEXPAVCBaseEntity@@@Z 1002dce0 f   effects.obj
 0001:0002cd80       ?Save@CEnvShooter@@EAEHAAVCSave@@@Z 1002dd80 f   effects.obj
 0001:0002cdf0       ?Restore@CEnvShooter@@EAEHAAVCRestore@@@Z 1002ddf0 f   effects.obj
 0001:0002ce20       _env_shooter               1002de20 f   effects.obj
 0001:0002ce70       ?Spawn@CEnvShooter@@EAEXXZ 1002de70 f   effects.obj
 0001:0002ce90       ?KeyValue@CEnvShooter@@EAEXPAUKeyValueData_s@@@Z 1002de90 f   effects.obj
 0001:0002d1e0       ?Precache@CEnvShooter@@EAEXXZ 1002e1e0 f   effects.obj
 0001:0002d220       ?CreateGib@CEnvShooter@@EAEPAVCBaseEntity@@VVector@@0@Z 1002e220 f   effects.obj
 0001:0002d7c0       _test_effect               1002e7c0 f   effects.obj
 0001:0002d810       ?Precache@CTestEffect@@UAEXXZ 1002e810 f   effects.obj
 0001:0002d820       ?TestThink@CTestEffect@@QAEXXZ 1002e820 f   effects.obj
 0001:0002dac0       ?Use@CTestEffect@@UAEXPAVCBaseEntity@@0W4USE_TYPE@@M@Z 1002eac0 f   effects.obj
 0001:0002daf0       _env_blood                 1002eaf0 f   effects.obj
 0001:0002db40       ?Spawn@CBlood@@UAEXXZ      1002eb40 f   effects.obj
 0001:0002db90       ?KeyValue@CBlood@@UAEXPAUKeyValueData_s@@@Z 1002eb90 f   effects.obj
 0001:0002dd70       ?Direction@CBlood@@QAE?AVVector@@PAVCBaseEntity@@@Z 1002ed70 f   effects.obj
 0001:0002dde0       ?BloodPosition@CBlood@@QAE?AVVector@@PAVCBaseEntity@@@Z 1002ede0 f   effects.obj
 0001:0002df20       ?Use@CBlood@@UAEXPAVCBaseEntity@@0W4USE_TYPE@@M@Z 1002ef20 f   effects.obj
 0001:0002e090       _env_shake                 1002f090 f   effects.obj
 0001:0002e0e0       ?Think@CShake@@UAEXXZ      1002f0e0 f i effects.obj
 0001:0002e0f0       ?Spawn@CShake@@UAEXXZ      1002f0f0 f   effects.obj
 0001:0002e130       ?KeyValue@CShake@@UAEXPAUKeyValueData_s@@@Z 1002f130 f   effects.obj
 0001:0002e3a0       ?Use@CShake@@UAEXPAVCBaseEntity@@0W4USE_TYPE@@M@Z 1002f3a0 f   effects.obj
 0001:0002e400       _env_fade                  1002f400 f   effects.obj
 0001:0002e450       ?Spawn@CFade@@UAEXXZ       1002f450 f   effects.obj
 0001:0002e480       ?KeyValue@CFade@@UAEXPAUKeyValueData_s@@@Z 1002f480 f   effects.obj
 0001:0002e640       ?Use@CFade@@UAEXPAVCBaseEntity@@0W4USE_TYPE@@M@Z 1002f640 f   effects.obj
 0001:0002e730       ?Think@CFade@@UAEXXZ       1002f730 f   effects.obj
 0001:0002e770       _env_message               1002f770 f   effects.obj
 0001:0002e7c0       ?Spawn@CMessage@@UAEXXZ    1002f7c0 f   effects.obj
 0001:0002e850       ?Precache@CMessage@@UAEXXZ 1002f850 f   effects.obj
 0001:0002e880       ?KeyValue@CMessage@@UAEXPAUKeyValueData_s@@@Z 1002f880 f   effects.obj
 0001:0002eaa0       ?Use@CMessage@@UAEXPAVCBaseEntity@@0W4USE_TYPE@@M@Z 1002faa0 f   effects.obj
 0001:0002eba0       ?Precache@CEnvFunnel@@UAEXXZ 1002fba0 f   effects.obj
 0001:0002ebf0       _env_funnel                1002fbf0 f   effects.obj
 0001:0002ec40       ?Use@CEnvFunnel@@UAEXPAVCBaseEntity@@0W4USE_TYPE@@M@Z 1002fc40 f   effects.obj
 0001:0002ed10       ?Spawn@CEnvFunnel@@UAEXXZ  1002fd10 f   effects.obj
 0001:0002ed40       _env_quakefx               1002fd40 f   effects.obj
 0001:0002ed90       ?Use@CEnvQuakeFx@@UAEXPAVCBaseEntity@@0W4USE_TYPE@@M@Z 1002fd90 f   effects.obj
 0001:0002eeb0       ?Precache@CEnvBeamTrail@@UAEXXZ 1002feb0 f   effects.obj
 0001:0002ef00       _env_beamtrail             1002ff00 f   effects.obj
 0001:0002ef50       ?GetState@CEnvModel@@EAE?AW4STATE@@XZ 1002ff50 f   effects.obj
 0001:0002ef50       ?GetState@CEnvBeamTrail@@UAE?AW4STATE@@XZ 1002ff50 f   effects.obj
 0001:0002ef70       ?StartTrailThink@CEnvBeamTrail@@QAEXXZ 1002ff70 f   effects.obj
 0001:0002efa0       ?Use@CEnvBeamTrail@@UAEXPAVCBaseEntity@@0W4USE_TYPE@@M@Z 1002ffa0 f   effects.obj
 0001:0002f080       ?Affect@CEnvBeamTrail@@QAEXPAVCBaseEntity@@W4USE_TYPE@@@Z 10030080 f   effects.obj
 0001:0002f1b0       ?Spawn@CEnvBeamTrail@@UAEXXZ 100301b0 f   effects.obj
 0001:0002f240       _env_footsteps             10030240 f   effects.obj
 0001:0002f290       ?PrecacheNoise@CEnvFootsteps@@QAEXPBD@Z 10030290 f   effects.obj
 0001:0002f320       ?Precache@CEnvFootsteps@@UAEXXZ 10030320 f   effects.obj
 0001:0002f3c0       ?GetState@CEnvFootsteps@@UAE?AW4STATE@@XZ 100303c0 f   effects.obj
 0001:0002f3e0       ?GetState@CEnvFootsteps@@UAE?AW4STATE@@PAVCBaseEntity@@@Z 100303e0 f   effects.obj
 0001:0002f450       ?Use@CEnvFootsteps@@UAEXPAVCBaseEntity@@0W4USE_TYPE@@M@Z 10030450 f   effects.obj
 0001:0002f760       _env_rain                  10030760 f   effects.obj
 0001:0002f7b0       ?Save@CEnvRain@@UAEHAAVCSave@@@Z 100307b0 f   effects.obj
 0001:0002f820       ?Restore@CEnvRain@@UAEHAAVCRestore@@@Z 10030820 f   effects.obj
 0001:0002f850       ?Precache@CEnvRain@@UAEXXZ 10030850 f   effects.obj
 0001:0002f880       ?KeyValue@CEnvRain@@UAEXPAUKeyValueData_s@@@Z 10030880 f   effects.obj
 0001:0002fda0       ?Use@CEnvRain@@UAEXPAVCBaseEntity@@0W4USE_TYPE@@M@Z 10030da0 f   effects.obj
 0001:0002fdf0       ?Spawn@CEnvRain@@UAEXXZ    10030df0 f   effects.obj
 0001:0002ff20       ?Think@CEnvRain@@UAEXXZ    10030f20 f   effects.obj
 0001:00030510       _env_warpball              10031510 f   effects.obj
 0001:00030560       ?Precache@CEnvWarpBall@@UAEXXZ 10031560 f   effects.obj
 0001:000305a0       ?Use@CEnvWarpBall@@UAEXPAVCBaseEntity@@0W4USE_TYPE@@M@Z 100315a0 f   effects.obj
 0001:00030940       ?Think@CEnvWarpBall@@UAEXXZ 10031940 f   effects.obj
 0001:00030980       _env_shockwave             10031980 f   effects.obj
 0001:000309d0       ?Spawn@CEnvShockwave@@UAEXXZ 100319d0 f i effects.obj
 0001:000309d0       ?Spawn@CEnvWarpBall@@UAEXXZ 100319d0 f i effects.obj
 0001:000309e0       ?Save@CEnvShockwave@@UAEHAAVCSave@@@Z 100319e0 f   effects.obj
 0001:00030a50       ?Restore@CEnvShockwave@@UAEHAAVCRestore@@@Z 10031a50 f   effects.obj
 0001:00030a80       ?Precache@CEnvShockwave@@UAEXXZ 10031a80 f   effects.obj
 0001:00030ab0       ?KeyValue@CEnvShockwave@@UAEXPAUKeyValueData_s@@@Z 10031ab0 f   effects.obj
 0001:00030ec0       ?Use@CEnvShockwave@@UAEXPAVCBaseEntity@@0W4USE_TYPE@@M@Z 10031ec0 f   effects.obj
 0001:00031080       _env_dlight                10032080 f   effects.obj
 0001:000310d0       ?GetState@CEnvDLight@@UAE?AW4STATE@@XZ 100320d0 f i effects.obj
 0001:000310e0       ?Save@CEnvDLight@@UAEHAAVCSave@@@Z 100320e0 f   effects.obj
 0001:00031150       ?Restore@CEnvDLight@@UAEHAAVCRestore@@@Z 10032150 f   effects.obj
 0001:00031180       ?PostSpawn@CEnvDLight@@UAEXXZ 10032180 f   effects.obj
 0001:000311c0       ?DesiredAction@CEnvDLight@@UAEXXZ 100321c0 f   effects.obj
 0001:000311f0       ?Use@CEnvDLight@@UAEXPAVCBaseEntity@@0W4USE_TYPE@@M@Z 100321f0 f   effects.obj
 0001:00031320       ?MakeLight@CEnvDLight@@UAEXH@Z 10032320 f   effects.obj
 0001:000313e0       ?Think@CEnvDLight@@UAEXXZ  100323e0 f   effects.obj
 0001:00031420       _env_elight                10032420 f   effects.obj
 0001:00031470       ?Save@CEnvELight@@UAEHAAVCSave@@@Z 10032470 f   effects.obj
 0001:000314e0       ?Restore@CEnvELight@@UAEHAAVCRestore@@@Z 100324e0 f   effects.obj
 0001:00031510       ?Use@CEnvELight@@UAEXPAVCBaseEntity@@0W4USE_TYPE@@M@Z 10032510 f   effects.obj
 0001:000315c0       ?MakeLight@CEnvELight@@UAEXH@Z 100325c0 f   effects.obj
 0001:000316e0       _env_decal                 100326e0 f   effects.obj
 0001:00031730       ?Use@CEnvDecal@@UAEXPAVCBaseEntity@@0W4USE_TYPE@@M@Z 10032730 f   effects.obj
 0001:00031ac0       ?Spawn@CEnvDecal@@UAEXXZ   10032ac0 f   effects.obj
 0001:00031b30       _env_beverage              10032b30 f   effects.obj
 0001:00031b80       ?GetState@CEnvBeverage@@UAE?AW4STATE@@XZ 10032b80 f i effects.obj
 0001:00031ba0       ?Use@CEnvBeverage@@UAEXPAVCBaseEntity@@0W4USE_TYPE@@M@Z 10032ba0 f   effects.obj
 0001:00031cc0       ?Spawn@CEnvBeverage@@UAEXXZ 10032cc0 f   effects.obj
 0001:00031d10       ?Precache@CItemSoda@@UAEXXZ 10032d10 f   effects.obj
 0001:00031d10       ?Precache@CEnvBeverage@@UAEXXZ 10032d10 f   effects.obj
 0001:00031d30       _item_sodacan              10032d30 f   effects.obj
 0001:00031d80       ?Spawn@CItemSoda@@UAEXXZ   10032d80 f   effects.obj
 0001:00031e20       ?CanThink@CItemSoda@@QAEXXZ 10032e20 f   effects.obj
 0001:00031eb0       ?CanTouch@CItemSoda@@QAEXPAVCBaseEntity@@@Z 10032eb0 f   effects.obj
 0001:00031f40       ?Save@CEnvFog@@UAEHAAVCSave@@@Z 10032f40 f   effects.obj
 0001:00031fb0       ?Restore@CEnvFog@@UAEHAAVCRestore@@@Z 10032fb0 f   effects.obj
 0001:00031fe0       ?KeyValue@CEnvFog@@UAEXPAUKeyValueData_s@@@Z 10032fe0 f   effects.obj
 0001:000322b0       ?GetState@CEnvFog@@UAE?AW4STATE@@XZ 100332b0 f   effects.obj
 0001:000322e0       ?Spawn@CEnvFog@@UAEXXZ     100332e0 f   effects.obj
 0001:00032350       ?Precache@CEnvFog@@UAEXXZ  10033350 f   effects.obj
 0001:00032370       ?TurnOn@CEnvFog@@QAEXXZ    10033370 f   effects.obj
 0001:00032460       ?TurnOff@CEnvFog@@QAEXXZ   10033460 f   effects.obj
 0001:00032510       ?ResumeThink@CEnvFog@@QAEXXZ 10033510 f   effects.obj
 0001:00032530       ?FadeInDone@CEnvFog@@QAEXXZ 10033530 f   effects.obj
 0001:000325a0       ?FadeOutDone@CEnvFog@@QAEXXZ 100335a0 f   effects.obj
 0001:000325e0       ?Use@CEnvFog@@UAEXPAVCBaseEntity@@0W4USE_TYPE@@M@Z 100335e0 f   effects.obj
 0001:00032620       ?SendData@CEnvFog@@QAEXVVector@@HHH@Z 10033620 f   effects.obj
 0001:000326e0       _env_fog                   100336e0 f   effects.obj
 0001:00032730       ?Activate@CEnvSky@@UAEXXZ  10033730 f   effects.obj
 0001:00032760       ?Think@CEnvSky@@UAEXXZ     10033760 f   effects.obj
 0001:000327b0       _env_sky                   100337b0 f   effects.obj
 0001:00032800       _env_particle              10033800 f   effects.obj
 0001:00032850       ?Spawn@CParticle@@UAEXXZ   10033850 f   effects.obj
 0001:000328d0       ?SendInitMessage@CParticle@@UAEXPAVCBasePlayer@@@Z 100338d0 f   effects.obj
 0001:00032940       ?Use@CParticle@@UAEXPAVCBaseEntity@@0W4USE_TYPE@@M@Z 10033940 f   effects.obj
 0001:00032980       ?Spawn@CRainSettings@@UAEXXZ 10033980 f   effects.obj
 0001:000329b0       ?KeyValue@CRainSettings@@UAEXPAUKeyValueData_s@@@Z 100339b0 f   effects.obj
 0001:00032b70       _rain_settings             10033b70 f   effects.obj
 0001:00032bc0       ?Save@CRainSettings@@UAEHAAVCSave@@@Z 10033bc0 f   effects.obj
 0001:00032c30       ?Restore@CRainSettings@@UAEHAAVCRestore@@@Z 10033c30 f   effects.obj
 0001:00032c60       ?Spawn@CRainModify@@UAEXXZ 10033c60 f   effects.obj
 0001:00032cb0       ?KeyValue@CRainModify@@UAEXPAUKeyValueData_s@@@Z 10033cb0 f   effects.obj
 0001:00032fc0       ?Use@CRainModify@@UAEXPAVCBaseEntity@@0W4USE_TYPE@@M@Z 10033fc0 f   effects.obj
 0001:000330f0       _rain_modify               100340f0 f   effects.obj
 0001:00033140       ?Save@CRainModify@@UAEHAAVCSave@@@Z 10034140 f   effects.obj
 0001:000331b0       ?Restore@CRainModify@@UAEHAAVCRestore@@@Z 100341b0 f   effects.obj
 0001:000331e0       _env_grass_sprite          100341e0 f   effects.obj
 0001:00033230       ?Save@CGrassSprite@@UAEHAAVCSave@@@Z 10034230 f   effects.obj
 0001:000332a0       ?Restore@CGrassSprite@@UAEHAAVCRestore@@@Z 100342a0 f   effects.obj
 0001:000332d0       ?KeyValue@CGrassSprite@@UAEXPAUKeyValueData_s@@@Z 100342d0 f   effects.obj
 0001:00033490       ?SendInitMessage@CGrassSprite@@UAEXPAVCBasePlayer@@@Z 10034490 f   effects.obj
 0001:00033570       _env_static_decal          10034570 f   effects.obj
 0001:000335c0       ?Spawn@CEnvPos_World@@UAEXXZ 100345c0 f i effects.obj
 0001:000335c0       ?Spawn@CStaticDecal@@UAEXXZ 100345c0 f i effects.obj
 0001:000335c0       ?Spawn@CTriggerFollow@@UAEXXZ 100345c0 f i effects.obj
 0001:000335c0       ?Spawn@CEnvPos_Sky@@UAEXXZ 100345c0 f i effects.obj
 0001:000335f0       ?SendInitMessage@CStaticDecal@@UAEXPAVCBasePlayer@@@Z 100345f0 f i effects.obj
 0001:000338b0       _envpos_sky                100348b0 f   effects.obj
 0001:00033900       ?SendInitMessage@CEnvPos_Sky@@UAEXPAVCBasePlayer@@@Z 10034900 f i effects.obj
 0001:000339a0       _envpos_world              100349a0 f   effects.obj
 0001:000339f0       ?SendInitMessage@CEnvPos_World@@UAEXPAVCBasePlayer@@@Z 100349f0 f i effects.obj
 0001:00033a60       _trigger_followme          10034a60 f   effects.obj
 0001:00033ab0       ?Use@CTriggerFollow@@UAEXPAVCBaseEntity@@0W4USE_TYPE@@M@Z 10034ab0 f i effects.obj
 0001:00033b40       _env_dynlight              10034b40 f   effects.obj
 0001:00033b90       ?Spawn@CDynamicLight@@UAEXXZ 10034b90 f i effects.obj
 0001:00033c20       ?Precache@CDynamicLight@@UAEXXZ 10034c20 f i effects.obj
 0001:00033c30       ?GetState@CDynamicLight@@UAE?AW4STATE@@XZ 10034c30 f i effects.obj
 0001:00033c50       ?Use@CDynamicLight@@UAEXPAVCBaseEntity@@0W4USE_TYPE@@M@Z 10034c50 f i effects.obj
 0001:00033cb0       _weapon_egon               10034cb0 f   egon.obj
 0001:00033d00       ?Spawn@CEgon@@UAEXXZ       10034d00 f   egon.obj
 0001:00033d40       ?Precache@CEgon@@UAEXXZ    10034d40 f   egon.obj
 0001:00033df0       ?Deploy@CEgon@@UAEHXZ      10034df0 f   egon.obj
 0001:00033e20       ?Holster@CEgon@@UAEXH@Z    10034e20 f   egon.obj
 0001:00033e60       ?GetItemInfo@CEgon@@UAEHPAUItemInfo@@@Z 10034e60 f   egon.obj
 0001:00033ed0       ?GetPulseInterval@CEgon@@QAEMXZ 10034ed0 f   egon.obj
 0001:00033ed0       ?GetDischargeInterval@CEgon@@QAEMXZ 10034ed0 f   egon.obj
 0001:00033ee0       ?HasAmmo@CEgon@@QAEHXZ     10034ee0 f   egon.obj
 0001:00033f00       ?UseAmmo@CEgon@@QAEXH@Z    10034f00 f   egon.obj
 0001:00033f30       ?Attack@CEgon@@QAEXXZ      10034f30 f   egon.obj
 0001:00034190       ?PrimaryAttack@CEgon@@UAEXXZ 10035190 f   egon.obj
 0001:000341a0       ?Fire@CEgon@@QAEXABVVector@@0@Z 100351a0 f   egon.obj
 0001:00034690       ?UpdateEffect@CEgon@@QAEXABVVector@@0M@Z 10035690 f   egon.obj
 0001:000348c0       ?CreateEffect@CEgon@@QAEXXZ 100358c0 f   egon.obj
 0001:00034bf0       ?DestroyEffect@CEgon@@QAEXXZ 10035bf0 f   egon.obj
 0001:00034c70       ?WeaponIdle@CEgon@@UAEXXZ  10035c70 f   egon.obj
 0001:00034d30       ?EndAttack@CEgon@@QAEXXZ   10035d30 f   egon.obj
 0001:00034dd0       _ammo_egonclip             10035dd0 f   egon.obj
 0001:00034e20       ?Spawn@CEgonAmmo@@EAEXXZ   10035e20 f i egon.obj
 0001:00034e50       ?Precache@CEgonAmmo@@EAEXXZ 10035e50 f i egon.obj
 0001:00034e70       _spark_shower              10035e70 f   explode.obj
 0001:00034ec0       ?ObjectCaps@CSprayCan@@UAEHXZ 10035ec0 f i explode.obj
 0001:00034ec0       ?ObjectCaps@CCorpse@@EAEHXZ 10035ec0 f i explode.obj
 0001:00034ec0       ?ObjectCaps@CSpiral@@UAEHXZ 10035ec0 f i explode.obj
 0001:00034ec0       ?ObjectCaps@CSoundEnt@@UAEHXZ 10035ec0 f i explode.obj
 0001:00034ec0       ?ObjectCaps@CShower@@EAEHXZ 10035ec0 f i explode.obj
 0001:00034ec0       ?ObjectCaps@CLaserSpot@@EAEHXZ 10035ec0 f i explode.obj
 0001:00034ed0       ?Spawn@CShower@@EAEXXZ     10035ed0 f   explode.obj
 0001:00035030       ?Think@CShower@@EAEXXZ     10036030 f   explode.obj
 0001:000350b0       ?Touch@CShower@@EAEXPAVCBaseEntity@@@Z 100360b0 f   explode.obj
 0001:00035170       ?Save@CEnvExplosion@@UAEHAAVCSave@@@Z 10036170 f   explode.obj
 0001:000351e0       ?Restore@CEnvExplosion@@UAEHAAVCRestore@@@Z 100361e0 f   explode.obj
 0001:00035210       _env_explosion             10036210 f   explode.obj
 0001:00035270       ?KeyValue@CEnvExplosion@@UAEXPAUKeyValueData_s@@@Z 10036270 f   explode.obj
 0001:000353e0       ?Spawn@CEnvExplosion@@UAEXXZ 100363e0 f   explode.obj
 0001:00035440       ?Use@CEnvExplosion@@UAEXPAVCBaseEntity@@0W4USE_TYPE@@M@Z 10036440 f   explode.obj
 0001:000357c0       ?Smoke@CEnvExplosion@@QAEXXZ 100367c0 f   explode.obj
 0001:00035860       ?ExplosionCreate@@YAXABVVector@@0PAUedict_s@@HH@Z 10036860 f   explode.obj
 0001:00035900       ?CheckLocalMove@CFlyingMonster@@UAEHABVVector@@0PAVCBaseEntity@@PAM@Z 10036900 f   flyingmonster.obj
 0001:00035a30       ?FTriangulate@CFlyingMonster@@UAEHABVVector@@0MPAVCBaseEntity@@PAV2@@Z 10036a30 f   flyingmonster.obj
 0001:00035a60       ?ChangeYaw@CFlyingMonster@@UAEMH@Z 10036a60 f   flyingmonster.obj
 0001:00035b10       ?HandleAnimEvent@CFlyingMonster@@UAEXPAUMonsterEvent_t@@@Z 10036b10 f   flyingmonster.obj
 0001:00035b70       ?Move@CFlyingMonster@@UAEXM@Z 10036b70 f   flyingmonster.obj
 0001:00035ba0       ?ShouldAdvanceRoute@CFlyingMonster@@UAEHM@Z 10036ba0 f   flyingmonster.obj
 0001:00035c30       ?ProbeZ@CFlyingMonster@@QAEHABVVector@@0PAM@Z 10036c30 f   flyingmonster.obj
 0001:00035e20       ?KeyValue@CBreakable@@UAEXPAUKeyValueData_s@@@Z 10036e20 f   func_break.obj
 0001:00036260       _func_breakable            10037260 f   func_break.obj
 0001:000362b0       ?Save@CBreakable@@UAEHAAVCSave@@@Z 100372b0 f   func_break.obj
 0001:00036320       ?Restore@CBreakable@@UAEHAAVCRestore@@@Z 10037320 f   func_break.obj
 0001:00036350       ?Spawn@CBreakable@@UAEXXZ  10037350 f   func_break.obj
 0001:00036530       ?GetState@CBreakable@@UAE?AW4STATE@@XZ 10037530 f   func_break.obj
 0001:00036560       ?MaterialSoundList@CBreakable@@SAPAPBDW4Materials@@AAH@Z 10037560 f   func_break.obj
 0001:00036600       ?MaterialSoundPrecache@CBreakable@@SAXW4Materials@@@Z 10037600 f   func_break.obj
 0001:00036650       ?MaterialSoundRandom@CBreakable@@SAXPAUedict_s@@W4Materials@@M@Z 10037650 f   func_break.obj
 0001:000366b0       ?Precache@CBreakable@@UAEXXZ 100376b0 f   func_break.obj
 0001:00036850       ?DamageSound@CBreakable@@QAEXXZ 10037850 f   func_break.obj
 0001:000369f0       ?BreakTouch@CBreakable@@QAEXPAVCBaseEntity@@@Z 100379f0 f   func_break.obj
 0001:00036b00       ?BreakUse@CBreakable@@QAEXPAVCBaseEntity@@0W4USE_TYPE@@M@Z 10037b00 f   func_break.obj
 0001:00036b70       ?RespawnUse@CBreakable@@QAEXPAVCBaseEntity@@0W4USE_TYPE@@M@Z 10037b70 f   func_break.obj
 0001:00036bc0       ?RespawnThink@CBreakable@@QAEXXZ 10037bc0 f   func_break.obj
 0001:00036cd0       ?RespawnFadeThink@CBreakable@@QAEXXZ 10037cd0 f   func_break.obj
 0001:00036d50       ?TraceAttack@CBreakable@@UAEXPAUentvars_s@@MVVector@@PAUTraceResult@@H@Z 10037d50 f   func_break.obj
 0001:00036e70       ?TakeDamage@CBreakable@@UAEHPAUentvars_s@@0MH@Z 10037e70 f   func_break.obj
 0001:000370c0       ?Die@CBreakable@@QAEXXZ    100380c0 f   func_break.obj
 0001:000376c0       ?IsBreakable@CBreakable@@QAEHXZ 100386c0 f   func_break.obj
 0001:000376d0       ?DamageDecal@CBreakable@@UAEHH@Z 100386d0 f   func_break.obj
 0001:00037710       ?Save@CPushable@@UAEHAAVCSave@@@Z 10038710 f   func_break.obj
 0001:00037780       ?Restore@CPushable@@UAEHAAVCRestore@@@Z 10038780 f   func_break.obj
 0001:000377b0       _func_pushable             100387b0 f   func_break.obj
 0001:00037800       ?ObjectCaps@CRecharge@@UAEHXZ 10038800 f i func_break.obj
 0001:00037800       ?ObjectCaps@CWallHealth@@UAEHXZ 10038800 f i func_break.obj
 0001:00037800       ?ObjectCaps@CPushable@@UAEHXZ 10038800 f i func_break.obj
 0001:00037820       ?Spawn@CPushable@@UAEXXZ   10038820 f   func_break.obj
 0001:00037940       ?Precache@CPushable@@UAEXXZ 10038940 f   func_break.obj
 0001:00037980       ?KeyValue@CPushable@@UAEXPAUKeyValueData_s@@@Z 10038980 f   func_break.obj
 0001:00037bb0       ?Use@CPushable@@UAEXPAVCBaseEntity@@0W4USE_TYPE@@M@Z 10038bb0 f   func_break.obj
 0001:00037c50       ?Touch@CPushable@@UAEXPAVCBaseEntity@@@Z 10038c50 f   func_break.obj
 0001:00037cc0       ?Move@CPushable@@QAEXPAVCBaseEntity@@H@Z 10038cc0 f   func_break.obj
 0001:00037ed0       ?TakeDamage@CPushable@@UAEHPAUentvars_s@@0MH@Z 10038ed0 f   func_break.obj
 0001:00037f00       ?Classify@CBreakable@@UAEHXZ 10038f00 f i func_break.obj
 0001:00037f10       ?Save@CFuncTank@@UAEHAAVCSave@@@Z 10038f10 f   func_tank.obj
 0001:00037f80       ?Restore@CFuncTank@@UAEHAAVCRestore@@@Z 10038f80 f   func_tank.obj
 0001:00038060       ?Spawn@CFuncTank@@UAEXXZ   10039060 f   func_tank.obj
 0001:00038280       ?PostSpawn@CFuncTank@@UAEXXZ 10039280 f   func_tank.obj
 0001:000382d0       ?Precache@CFuncTank@@UAEXXZ 100392d0 f   func_tank.obj
 0001:00038340       ?KeyValue@CFuncTank@@UAEXPAUKeyValueData_s@@@Z 10039340 f   func_tank.obj
 0001:00038c40       ?StartControl@CFuncTank@@QAEHPAVCBasePlayer@@PAVCFuncTankControls@@@Z 10039c40 f   func_tank.obj
 0001:00038cb0       ?StopControl@CFuncTank@@QAEXPAVCFuncTankControls@@@Z 10039cb0 f   func_tank.obj
 0001:00038d40       ?UpdateSpot@CFuncTank@@IAEXXZ 10039d40 f   func_tank.obj
 0001:00038ed0       ?Use@CFuncTank@@UAEXPAVCBaseEntity@@0W4USE_TYPE@@M@Z 10039ed0 f   func_tank.obj
 0001:00038f70       ?BestVisibleEnemy@CFuncTank@@QAEPAVCBaseEntity@@XZ 10039f70 f   func_tank.obj
 0001:00039130       ?IRelationship@CFuncTank@@QAEHPAVCBaseEntity@@@Z 1003a130 f   func_tank.obj
 0001:00039210       ?InRange@CFuncTank@@QAEHM@Z 1003a210 f   func_tank.obj
 0001:00039260       ?StartSequence@CFuncTank@@QAEXPAVCTankSequence@@@Z 1003a260 f   func_tank.obj
 0001:00039280       ?StopSequence@CFuncTank@@QAEXXZ 1003a280 f   func_tank.obj
 0001:000392c0       ?Think@CFuncTank@@UAEXXZ   1003a2c0 f   func_tank.obj
 0001:00039310       ?TrackTarget@CFuncTank@@QAEXXZ 1003a310 f   func_tank.obj
 0001:0003a340       ?AdjustAnglesForBarrel@CFuncTank@@QAEXAAVVector@@M@Z 1003b340 f   func_tank.obj
 0001:0003a3f0       ?TryFire@CFuncTank@@QAEXABVVector@@0PAUentvars_s@@@Z 1003b3f0 f   func_tank.obj
 0001:0003a430       ?Fire@CFuncTank@@UAEXABVVector@@0PAUentvars_s@@@Z 1003b430 f   func_tank.obj
 0001:0003a6a0       ?TankTrace@CFuncTank@@QAEXABVVector@@00AAUTraceResult@@@Z 1003b6a0 f   func_tank.obj
 0001:0003a810       ?StartRotSound@CFuncTank@@QAEXXZ 1003b810 f   func_tank.obj
 0001:0003a870       ?StopRotSound@CFuncTank@@QAEXXZ 1003b870 f   func_tank.obj
 0001:0003a8d0       _func_tank                 1003b8d0 f   func_tank.obj
 0001:0003a920       ?Classify@CFuncTank@@UAEHXZ 1003b920 f i func_tank.obj
 0001:0003a930       ?UpdateTargetPosition@CFuncTank@@UAE?AVVector@@PAVCBaseEntity@@@Z 1003b930 f i func_tank.obj
 0001:0003a960       ?Fire@CFuncTankGun@@UAEXABVVector@@0PAUentvars_s@@@Z 1003b960 f   func_tank.obj
 0001:0003aa90       _func_tanklaser            1003ba90 f   func_tank.obj
 0001:0003aae0       ?Save@CFuncTankLaser@@UAEHAAVCSave@@@Z 1003bae0 f   func_tank.obj
 0001:0003ab50       ?Restore@CFuncTankLaser@@UAEHAAVCRestore@@@Z 1003bb50 f   func_tank.obj
 0001:0003ab80       ?Activate@CFuncTankLaser@@UAEXXZ 1003bb80 f   func_tank.obj
 0001:0003abc0       ?KeyValue@CFuncTankLaser@@UAEXPAUKeyValueData_s@@@Z 1003bbc0 f   func_tank.obj
 0001:0003ac40       ?GetLaser@CFuncTankLaser@@QAEPAVCLaser@@XZ 1003bc40 f   func_tank.obj
 0001:0003ad00       ?Think@CFuncTankLaser@@UAEXXZ 1003bd00 f   func_tank.obj
 0001:0003ad30       ?Fire@CFuncTankLaser@@UAEXABVVector@@0PAUentvars_s@@@Z 1003bd30 f   func_tank.obj
 0001:0003aec0       _func_tankrocket           1003bec0 f   func_tank.obj
 0001:0003af10       ?Precache@CFuncTankRocket@@UAEXXZ 1003bf10 f   func_tank.obj
 0001:0003af30       ?Fire@CFuncTankRocket@@UAEXABVVector@@0PAUentvars_s@@@Z 1003bf30 f   func_tank.obj
 0001:0003afc0       _func_tankmortar           1003bfc0 f   func_tank.obj
 0001:0003b010       ?KeyValue@CFuncTankMortar@@UAEXPAUKeyValueData_s@@@Z 1003c010 f   func_tank.obj
 0001:0003b090       ?Fire@CFuncTankMortar@@UAEXABVVector@@0PAUentvars_s@@@Z 1003c090 f   func_tank.obj
 0001:0003b160       _func_tankcontrols         1003c160 f   func_tank.obj
 0001:0003b1b0       ?GetState@CFuncTankControls@@UAE?AW4STATE@@XZ 1003c1b0 f i func_tank.obj
 0001:0003b1c0       ?Save@CFuncTankControls@@UAEHAAVCSave@@@Z 1003c1c0 f   func_tank.obj
 0001:0003b230       ?Restore@CFuncTankControls@@UAEHAAVCRestore@@@Z 1003c230 f   func_tank.obj
 0001:0003b260       ?KeyValue@CFuncTankControls@@UAEXPAUKeyValueData_s@@@Z 1003c260 f   func_tank.obj
 0001:0003b3d0       ?ObjectCaps@CFuncTankControls@@UAEHXZ 1003c3d0 f   func_tank.obj
 0001:0003b420       ?OnControls@CFuncTankControls@@UAEHPAUentvars_s@@@Z 1003c420 f   func_tank.obj
 0001:0003b4d0       ?Use@CFuncTankControls@@UAEXPAVCBaseEntity@@0W4USE_TYPE@@M@Z 1003c4d0 f   func_tank.obj
 0001:0003b7d0       ?Spawn@CFuncTankControls@@UAEXXZ 1003c7d0 f   func_tank.obj
 0001:0003b880       _scripted_tanksequence     1003c880 f   func_tank.obj
 0001:0003b8d0       ?GetState@CTankSequence@@UAE?AW4STATE@@XZ 1003c8d0 f i func_tank.obj
 0001:0003b8e0       ?Save@CTankSequence@@UAEHAAVCSave@@@Z 1003c8e0 f   func_tank.obj
 0001:0003b950       ?Restore@CTankSequence@@UAEHAAVCRestore@@@Z 1003c950 f   func_tank.obj
 0001:0003b980       ?ObjectCaps@CTankSequence@@UAEHXZ 1003c980 f   func_tank.obj
 0001:0003b980       ?ObjectCaps@CTrainSequence@@UAEHXZ 1003c980 f   func_tank.obj
 0001:0003b9a0       ?KeyValue@CTankSequence@@UAEXPAUKeyValueData_s@@@Z 1003c9a0 f   func_tank.obj
 0001:0003bd60       ?Use@CTankSequence@@UAEXPAVCBaseEntity@@0W4USE_TYPE@@M@Z 1003cd60 f   func_tank.obj
 0001:0003bf20       ?FacingNotify@CTankSequence@@QAEXXZ 1003cf20 f   func_tank.obj
 0001:0003bf60       ?DeadEnemyNotify@CTankSequence@@QAEXXZ 1003cf60 f   func_tank.obj
 0001:0003bf80       ?EndThink@CTankSequence@@QAEXXZ 1003cf80 f   func_tank.obj
 0001:0003bfc0       ?TimeOutThink@CTankSequence@@QAEXXZ 1003cfc0 f   func_tank.obj
 0001:0003c000       ?StopSequence@CTankSequence@@QAEXXZ 1003d000 f   func_tank.obj
 0001:0003c2e0       ?GameDLLInit@@YAXXZ        1003d2e0 f   game.obj
 0001:0003d300       ?CanHaveAmmo@CGameRules@@UAEHPAVCBasePlayer@@PBDH@Z 1003e300 f   gamerules.obj
 0001:0003d340       ?GetPlayerSpawnSpot@CGameRules@@UAEPAUedict_s@@PAVCBasePlayer@@@Z 1003e340 f   gamerules.obj
 0001:0003d440       ?CanHavePlayerItem@CGameRules@@UAEHPAVCBasePlayer@@PAVCBasePlayerItem@@@Z 1003e440 f   gamerules.obj
 0001:0003d4b0       ?RefreshSkillData@CGameRules@@UAEXXZ 1003e4b0 f   gamerules.obj
 0001:0003dc30       ?InstallGameRules@@YAPAVCGameRules@@XZ 1003ec30 f   gamerules.obj
 0001:0003dd00       _streak_spiral             1003ed00 f   gargantua.obj
 0001:0003dd50       _garg_stomp                1003ed50 f   gargantua.obj
 0001:0003dda0       ?StompCreate@CStomp@@SAPAV1@ABVVector@@0M@Z 1003eda0 f   gargantua.obj
 0001:0003def0       ?Spawn@CStomp@@UAEXXZ      1003eef0 f   gargantua.obj
 0001:0003df90       ?Think@CStomp@@UAEXXZ      1003ef90 f   gargantua.obj
 0001:0003e330       ?StreakSplash@@YAXABVVector@@0HHHH@Z 1003f330 f   gargantua.obj
 0001:0003e3c0       _monster_gargantua         1003f3c0 f   gargantua.obj
 0001:0003e420       ?SetObjectCollisionBox@CGargantua@@UAEXXZ 1003f420 f i gargantua.obj
 0001:0003e4c0       ?Save@CGargantua@@UAEHAAVCSave@@@Z 1003f4c0 f   gargantua.obj
 0001:0003e530       ?Restore@CGargantua@@UAEHAAVCRestore@@@Z 1003f530 f   gargantua.obj
 0001:0003e560       ?ScheduleFromName@CGargantua@@UAEPAUSchedule_t@@PBD@Z 1003f560 f   gargantua.obj
 0001:0003e590       ?EyeOn@CGargantua@@QAEXH@Z 1003f590 f   gargantua.obj
 0001:0003e5a0       ?EyeOff@CGargantua@@QAEXXZ 1003f5a0 f   gargantua.obj
 0001:0003e5b0       ?EyeUpdate@CGargantua@@QAEXXZ 1003f5b0 f   gargantua.obj
 0001:0003e640       ?StompAttack@CGargantua@@QAEXXZ 1003f640 f   gargantua.obj
 0001:0003e820       ?FlameCreate@CGargantua@@QAEXXZ 1003f820 f   gargantua.obj
 0001:0003ea50       ?FlameControls@CGargantua@@QAEXMM@Z 1003fa50 f   gargantua.obj
 0001:0003eb30       ?FlameUpdate@CGargantua@@QAEXXZ 1003fb30 f   gargantua.obj
 0001:0003ee60       ?FlameDamage@CGargantua@@QAEXVVector@@0PAUentvars_s@@1MHH@Z 1003fe60 f   gargantua.obj
 0001:0003f270       ?FlameDestroy@CGargantua@@QAEXXZ 10040270 f   gargantua.obj
 0001:0003f2d0       ?PrescheduleThink@CGargantua@@UAEXXZ 100402d0 f   gargantua.obj
 0001:0003f320       ?SetYawSpeed@CGargantua@@UAEXXZ 10040320 f   gargantua.obj
 0001:0003f390       ?Spawn@CGargantua@@UAEXXZ  10040390 f   gargantua.obj
 0001:0003f560       ?Precache@CGargantua@@UAEXXZ 10040560 f   gargantua.obj
 0001:0003f710       ?TraceAttack@CGargantua@@UAEXPAUentvars_s@@MVVector@@PAUTraceResult@@H@Z 10040710 f   gargantua.obj
 0001:0003f870       ?TakeDamage@CGargantua@@UAEHPAUentvars_s@@0MH@Z 10040870 f   gargantua.obj
 0001:0003f8e0       ?DeathEffect@CGargantua@@QAEXXZ 100408e0 f   gargantua.obj
 0001:0003fa40       ?Killed@CGargantua@@UAEXPAUentvars_s@@H@Z 10040a40 f   gargantua.obj
 0001:0003fa80       ?CheckMeleeAttack1@CGargantua@@UAEHMM@Z 10040a80 f   gargantua.obj
 0001:0003fab0       ?CheckMeleeAttack2@CGargantua@@UAEHMM@Z 10040ab0 f   gargantua.obj
 0001:0003fb10       ?CheckRangeAttack1@CGargantua@@UAEHMM@Z 10040b10 f   gargantua.obj
 0001:0003fb60       ?HandleAnimEvent@CGargantua@@UAEXPAUMonsterEvent_t@@@Z 10040b60 f   gargantua.obj
 0001:0003fdf0       ?GargantuaCheckTraceHullAttack@CGargantua@@AAEPAVCBaseEntity@@MHH@Z 10040df0 f   gargantua.obj
 0001:0003ff40       ?GetScheduleOfType@CGargantua@@UAEPAUSchedule_t@@H@Z 10040f40 f   gargantua.obj
 0001:0003ff80       ?StartTask@CGargantua@@UAEXPAUTask_t@@@Z 10040f80 f   gargantua.obj
 0001:00040140       ?RunTask@CGargantua@@UAEXPAUTask_t@@@Z 10041140 f   gargantua.obj
 0001:00040650       _env_smoker                10041650 f   gargantua.obj
 0001:000406a0       ?Think@CSmoker@@UAEXXZ     100416a0 f   gargantua.obj
 0001:000407e0       ?Spawn@CSpiral@@UAEXXZ     100417e0 f   gargantua.obj
 0001:000407e0       ?Spawn@CSmoker@@UAEXXZ     100417e0 f   gargantua.obj
 0001:00040850       ?Create@CSpiral@@SAPAV1@ABVVector@@MMM@Z 10041850 f   gargantua.obj
 0001:00040940       ?Think@CSpiral@@UAEXXZ     10041940 f   gargantua.obj
 0001:00040b30       ?SpawnExplosion@@YAXVVector@@MMH@Z 10041b30 f   gargantua.obj
 0001:00040c10       _weapon_gauss              10041c10 f   gauss.obj
 0001:00040c60       ?GetFullChargeTime@CGauss@@QAEMXZ 10041c60 f   gauss.obj
 0001:00040c80       ?Spawn@CGauss@@UAEXXZ      10041c80 f   gauss.obj
 0001:00040cc0       ?Precache@CGauss@@UAEXXZ   10041cc0 f   gauss.obj
 0001:00040d90       ?GetItemInfo@CGauss@@UAEHPAUItemInfo@@@Z 10041d90 f   gauss.obj
 0001:00040e00       ?Deploy@CGauss@@UAEHXZ     10041e00 f   gauss.obj
 0001:00040e30       ?Holster@CGauss@@UAEXH@Z   10041e30 f   gauss.obj
 0001:00040eb0       ?PrimaryAttack@CGauss@@UAEXXZ 10041eb0 f   gauss.obj
 0001:00040fa0       ?SecondaryAttack@CGauss@@UAEXXZ 10041fa0 f   gauss.obj
 0001:000414b0       ?StartFire@CGauss@@QAEXXZ  100424b0 f   gauss.obj
 0001:000416c0       ?Fire@CGauss@@QAEXVVector@@0M@Z 100426c0 f   gauss.obj
 0001:00041e20       ?WeaponIdle@CGauss@@UAEXXZ 10042e20 f   gauss.obj
 0001:00042030       _ammo_gaussclip            10043030 f   gauss.obj
 0001:00042080       ?Spawn@CGaussAmmo@@EAEXXZ  10043080 f i gauss.obj
 0001:000420b0       ?Precache@CGaussAmmo@@EAEXXZ 100430b0 f i gauss.obj
 0001:000420d0       ?AddAmmo@CEgonAmmo@@EAEHPAVCBaseEntity@@@Z 100430d0 f i gauss.obj
 0001:000420d0       ?AddAmmo@CGaussAmmo@@EAEHPAVCBaseEntity@@@Z 100430d0 f i gauss.obj
 0001:00042130       _monster_generic           10043130 f   genericmonster.obj
 0001:00042190       ?GetState@CCineMonster@@UAE?AW4STATE@@XZ 10043190 f i genericmonster.obj
 0001:00042190       ?HasCustomGibs@CDeadGenericMonster@@UAEHXZ 10043190 f i genericmonster.obj
 0001:00042190       ?HasCustomGibs@CGenericMonster@@UAEHXZ 10043190 f i genericmonster.obj
 0001:000421a0       ?Save@CGenericMonster@@UAEHAAVCSave@@@Z 100431a0 f   genericmonster.obj
 0001:00042210       ?Restore@CGenericMonster@@UAEHAAVCRestore@@@Z 10043210 f   genericmonster.obj
 0001:00042240       ?HandleAnimEvent@CGMan@@UAEXPAUMonsterEvent_t@@@Z 10043240 f   genericmonster.obj
 0001:00042240       ?HandleAnimEvent@CGenericMonster@@UAEXPAUMonsterEvent_t@@@Z 10043240 f   genericmonster.obj
 0001:00042250       ?Spawn@CGenericMonster@@UAEXXZ 10043250 f   genericmonster.obj
 0001:00042580       _monster_generic_dead      10043580 f   genericmonster.obj
 0001:000425e0       ?Save@CDeadGenericMonster@@UAEHAAVCSave@@@Z 100435e0 f   genericmonster.obj
 0001:00042650       ?Restore@CDeadGenericMonster@@UAEHAAVCRestore@@@Z 10043650 f   genericmonster.obj
 0001:00042680       ?KeyValue@CDeadGenericMonster@@UAEXPAUKeyValueData_s@@@Z 10043680 f   genericmonster.obj
 0001:00042680       ?KeyValue@CGenericMonster@@UAEXPAUKeyValueData_s@@@Z 10043680 f   genericmonster.obj
 0001:00042750       ?Spawn@CDeadGenericMonster@@UAEXXZ 10043750 f   genericmonster.obj
 0001:00042850       ?Precache@CGenericMonster@@UAEXXZ 10043850 f   genericmonster.obj
 0001:00042850       ?Precache@CDeadGenericMonster@@UAEXXZ 10043850 f   genericmonster.obj
 0001:000428a0       _grenade                   100438a0 f   ggrenade.obj
 0001:00042900       ?Explode@CGrenade@@QAEXVVector@@0@Z 10043900 f   ggrenade.obj
 0001:00042960       ?Explode@CGrenade@@QAEXPAUTraceResult@@H@Z 10043960 f   ggrenade.obj
 0001:00042ca0       ?Smoke@CGrenade@@QAEXXZ    10043ca0 f   ggrenade.obj
 0001:00042dc0       ?Killed@CGrenade@@UAEXPAUentvars_s@@H@Z 10043dc0 f   ggrenade.obj
 0001:00042dd0       ?DetonateUse@CGrenade@@QAEXPAVCBaseEntity@@0W4USE_TYPE@@M@Z 10043dd0 f   ggrenade.obj
 0001:00042df0       ?PreDetonate@CGrenade@@QAEXXZ 10043df0 f   ggrenade.obj
 0001:00042e30       ?Detonate@CGrenade@@QAEXXZ 10043e30 f   ggrenade.obj
 0001:00042ec0       ?ExplodeTouch@CGrenade@@QAEXPAVCBaseEntity@@@Z 10043ec0 f   ggrenade.obj
 0001:000430b0       ?DangerSoundThink@CGrenade@@QAEXXZ 100440b0 f   ggrenade.obj
 0001:000431c0       ?BounceTouch@CGrenade@@QAEXPAVCBaseEntity@@@Z 100441c0 f   ggrenade.obj
 0001:00043420       ?SlideTouch@CGrenade@@QAEXPAVCBaseEntity@@@Z 10044420 f   ggrenade.obj
 0001:000434a0       ?BounceSound@CGrenade@@UAEXXZ 100444a0 f   ggrenade.obj
 0001:00043540       ?TumbleThink@CGrenade@@QAEXXZ 10044540 f   ggrenade.obj
 0001:00043670       ?Spawn@CGrenade@@UAEXXZ    10044670 f   ggrenade.obj
 0001:00043720       ?ShootContact@CGrenade@@SAPAV1@PAUentvars_s@@VVector@@1@Z 10044720 f   ggrenade.obj
 0001:00043830       ?ShootTimed@CGrenade@@SAPAV1@PAUentvars_s@@VVector@@1M@Z 10044830 f   ggrenade.obj
 0001:00043a70       _monster_gman              10044a70 f   gman.obj
 0001:00043ad0       ?Save@CGMan@@UAEHAAVCSave@@@Z 10044ad0 f   gman.obj
 0001:00043b40       ?Restore@CGMan@@UAEHAAVCRestore@@@Z 10044b40 f   gman.obj
 0001:00043b70       ?Classify@CGMan@@UAEHXZ    10044b70 f   gman.obj
 0001:00043b70       ?Classify@CFurniture@@UAEHXZ 10044b70 f   gman.obj
 0001:00043b80       ?SetYawSpeed@CGMan@@UAEXXZ 10044b80 f   gman.obj
 0001:00043b80       ?SetYawSpeed@CGenericMonster@@UAEXXZ 10044b80 f   gman.obj
 0001:00043b90       ?IsDeathmatch@CHalfLifeRules@@UAEHXZ 10044b90 f   gman.obj
 0001:00043b90       ?FCanActiveIdle@CBaseMonster@@UAEHXZ 10044b90 f   gman.obj
 0001:00043b90       ?Classify@CCrossbowBolt@@EAEHXZ 10044b90 f   gman.obj
 0001:00043b90       ?IsMultiplayer@CHalfLifeRules@@UAEHXZ 10044b90 f   gman.obj
 0001:00043b90       ?ISoundMask@CGMan@@UAEHXZ  10044b90 f   gman.obj
 0001:00043b90       ?IsCoOp@CHalfLifeRules@@UAEHXZ 10044b90 f   gman.obj
 0001:00043b90       ?ISoundMask@CGenericMonster@@UAEHXZ 10044b90 f   gman.obj
 0001:00043ba0       ?Spawn@CGMan@@UAEXXZ       10044ba0 f   gman.obj
 0001:00043c80       ?Precache@CGMan@@UAEXXZ    10044c80 f   gman.obj
 0001:00043cc0       ?StartTask@CGMan@@UAEXPAUTask_t@@@Z 10044cc0 f   gman.obj
 0001:00043d10       ?RunTask@CGMan@@UAEXPAUTask_t@@@Z 10044d10 f   gman.obj
 0001:00043eb0       ?TakeDamage@CGMan@@UAEHPAUentvars_s@@0MH@Z 10044eb0 f   gman.obj
 0001:00043f10       ?TraceAttack@CGMan@@UAEXPAUentvars_s@@MVVector@@PAUTraceResult@@H@Z 10044f10 f   gman.obj
 0001:00043f50       ?PlayScriptedSentence@CGMan@@UAEXPBDMMMHPAVCBaseEntity@@@Z 10044f50 f   gman.obj
 0001:00043fa0       ?FBoxVisible@@YAHPAUentvars_s@@0AAVVector@@M@Z 10044fa0 f   h_ai.obj
 0001:00044110       ?VecCheckToss@@YA?AVVector@@PAUentvars_s@@ABV1@V1@M@Z 10045110 f   h_ai.obj
 0001:000445a0       ?VecCheckThrow@@YA?AVVector@@PAUentvars_s@@ABV1@V1@MM@Z 100455a0 f   h_ai.obj
 0001:00044780       ?Save@CRecharge@@UAEHAAVCSave@@@Z 10045780 f   h_battery.obj
 0001:000447f0       ?Restore@CRecharge@@UAEHAAVCRestore@@@Z 100457f0 f   h_battery.obj
 0001:00044820       _func_recharge             10045820 f   h_battery.obj
 0001:00044870       ?Spawn@CRecharge@@UAEXXZ   10045870 f   h_battery.obj
 0001:00044900       ?Precache@CRecharge@@UAEXXZ 10045900 f   h_battery.obj
 0001:00044930       ?Use@CRecharge@@UAEXPAVCBaseEntity@@0W4USE_TYPE@@M@Z 10045930 f   h_battery.obj
 0001:00044ba0       ?Recharge@CRecharge@@QAEXXZ 10045ba0 f   h_battery.obj
 0001:00044bd0       ?Off@CRecharge@@QAEXXZ     10045bd0 f   h_battery.obj
 0001:00044c60       _monster_cine_scientist    10045c60 f   h_cine.obj
 0001:00044cc0       ?Spawn@CCineScientist@@UAEXXZ 10045cc0 f i h_cine.obj
 0001:00044cd0       _monster_cine_panther      10045cd0 f   h_cine.obj
 0001:00044d30       ?Spawn@CCinePanther@@UAEXXZ 10045d30 f i h_cine.obj
 0001:00044d40       _monster_cine_barney       10045d40 f   h_cine.obj
 0001:00044da0       ?Spawn@CCineBarney@@UAEXXZ 10045da0 f i h_cine.obj
 0001:00044db0       _monster_cine2_scientist   10045db0 f   h_cine.obj
 0001:00044e10       ?Spawn@CCine2Scientist@@UAEXXZ 10045e10 f i h_cine.obj
 0001:00044e20       _monster_cine2_hvyweapons  10045e20 f   h_cine.obj
 0001:00044e80       ?Spawn@CCine2HeavyWeapons@@UAEXXZ 10045e80 f i h_cine.obj
 0001:00044e90       _monster_cine2_slave       10045e90 f   h_cine.obj
 0001:00044ef0       ?Spawn@CCine2Slave@@UAEXXZ 10045ef0 f i h_cine.obj
 0001:00044f00       _monster_cine3_scientist   10045f00 f   h_cine.obj
 0001:00044f60       ?Spawn@CCine3Scientist@@UAEXXZ 10045f60 f i h_cine.obj
 0001:00044f70       _monster_cine3_barney      10045f70 f   h_cine.obj
 0001:00044fd0       ?Spawn@CCine3Barney@@UAEXXZ 10045fd0 f i h_cine.obj
 0001:00044fe0       ?CineSpawn@CLegacyCineMonster@@QAEXPAD@Z 10045fe0 f   h_cine.obj
 0001:000450e0       ?Use@CLegacyCineMonster@@UAEXPAVCBaseEntity@@0W4USE_TYPE@@M@Z 100460e0 f   h_cine.obj
 0001:00045100       ?Die@CLegacyCineMonster@@QAEXXZ 10046100 f   h_cine.obj
 0001:00045110       ?CineThink@CLegacyCineMonster@@QAEXXZ 10046110 f   h_cine.obj
 0001:00045170       _cine_blood                10046170 f   h_cine.obj
 0001:000451c0       ?BloodGush@CCineBlood@@QAEXXZ 100461c0 f   h_cine.obj
 0001:00045410       ?BloodStart@CCineBlood@@QAEXPAVCBaseEntity@@0W4USE_TYPE@@M@Z 10046410 f   h_cine.obj
 0001:00045430       ?Spawn@CCineBlood@@UAEXXZ  10046430 f   h_cine.obj
 0001:00045460       ?Save@CCycler@@UAEHAAVCSave@@@Z 10046460 f   h_cycler.obj
 0001:000454d0       ?Restore@CCycler@@UAEHAAVCRestore@@@Z 100464d0 f   h_cycler.obj
 0001:00045500       _cycler                    10046500 f   h_cycler.obj
 0001:00045560       ?ObjectCaps@CCycler@@UAEHXZ 10046560 f i h_cycler.obj
 0001:00045580       ?Spawn@CGenericCycler@@UAEXXZ 10046580 f i h_cycler.obj
 0001:000455e0       _cycler_prdroid            100465e0 f   h_cycler.obj
 0001:00045640       ?Spawn@CCyclerProbe@@UAEXXZ 10046640 f   h_cycler.obj
 0001:000456c0       ?GenericCyclerSpawn@CCycler@@QAEXPADVVector@@1@Z 100466c0 f   h_cycler.obj
 0001:00045770       ?Spawn@CCycler@@UAEXXZ     10046770 f   h_cycler.obj
 0001:00045850       ?Think@CCycler@@UAEXXZ     10046850 f   h_cycler.obj
 0001:000458f0       ?Use@CCycler@@UAEXPAVCBaseEntity@@0W4USE_TYPE@@M@Z 100468f0 f   h_cycler.obj
 0001:00045930       ?TakeDamage@CCycler@@UAEHPAUentvars_s@@0MH@Z 10046930 f   h_cycler.obj
 0001:000459f0       _cycler_sprite             100469f0 f   h_cycler.obj
 0001:00045a40       ?ObjectCaps@CCyclerSprite@@UAEHXZ 10046a40 f i h_cycler.obj
 0001:00045a60       ?Save@CCyclerSprite@@UAEHAAVCSave@@@Z 10046a60 f   h_cycler.obj
 0001:00045ad0       ?Restore@CCyclerSprite@@UAEHAAVCRestore@@@Z 10046ad0 f   h_cycler.obj
 0001:00045b00       ?Spawn@CCyclerSprite@@UAEXXZ 10046b00 f   h_cycler.obj
 0001:00045bd0       ?Think@CCyclerSprite@@UAEXXZ 10046bd0 f   h_cycler.obj
 0001:00045c30       ?Use@CCyclerSprite@@UAEXPAVCBaseEntity@@0W4USE_TYPE@@M@Z 10046c30 f   h_cycler.obj
 0001:00045c70       ?TakeDamage@CCyclerSprite@@UAEHPAUentvars_s@@0MH@Z 10046c70 f   h_cycler.obj
 0001:00045ca0       ?Animate@CCyclerSprite@@QAEXM@Z 10046ca0 f   h_cycler.obj
 0001:00045cf0       _cycler_weapon             10046cf0 f   h_cycler.obj
 0001:00045d40       ?Spawn@CWeaponCycler@@UAEXXZ 10046d40 f   h_cycler.obj
 0001:00045e20       ?Deploy@CWeaponCycler@@UAEHXZ 10046e20 f   h_cycler.obj
 0001:00045e70       ?Holster@CWeaponCycler@@UAEXH@Z 10046e70 f   h_cycler.obj
 0001:00045e90       ?PrimaryAttack@CWeaponCycler@@UAEXXZ 10046e90 f   h_cycler.obj
 0001:00045ec0       ?SecondaryAttack@CWeaponCycler@@UAEXXZ 10046ec0 f   h_cycler.obj
 0001:00045f70       ?Save@CWreckage@@EAEHAAVCSave@@@Z 10046f70 f   h_cycler.obj
 0001:00045fe0       ?Restore@CWreckage@@EAEHAAVCRestore@@@Z 10046fe0 f   h_cycler.obj
 0001:00046010       _cycler_wreckage           10047010 f   h_cycler.obj
 0001:00046070       ?Spawn@CWreckage@@EAEXXZ   10047070 f   h_cycler.obj
 0001:00046110       ?Precache@CWreckage@@EAEXXZ 10047110 f   h_cycler.obj
 0001:00046140       ?Think@CWreckage@@EAEXXZ   10047140 f   h_cycler.obj
 0001:000462a0       _DllMain@12                100472a0 f   h_export.obj
 0001:000462b0       ?GiveFnptrsToDll@@YGXPAUenginefuncs_s@@PAUglobalvars_t@@@Z 100472b0 f   h_export.obj
 0001:000462d0       _weapon_handgrenade        100472d0 f   handgrenade.obj
 0001:00046320       ?Spawn@CHandGrenade@@UAEXXZ 10047320 f   handgrenade.obj
 0001:00046370       ?Precache@CHandGrenade@@UAEXXZ 10047370 f   handgrenade.obj
 0001:000463a0       ?GetItemInfo@CHandGrenade@@UAEHPAUItemInfo@@@Z 100473a0 f   handgrenade.obj
 0001:00046410       ?Deploy@CHandGrenade@@UAEHXZ 10047410 f   handgrenade.obj
 0001:00046440       ?CanHolster@CHandGrenade@@UAEHXZ 10047440 f   handgrenade.obj
 0001:00046460       ?Holster@CHandGrenade@@UAEXH@Z 10047460 f   handgrenade.obj
 0001:00046500       ?PrimaryAttack@CHandGrenade@@UAEXXZ 10047500 f   handgrenade.obj
 0001:00046570       ?WeaponIdle@CHandGrenade@@UAEXXZ 10047570 f   handgrenade.obj
 0001:000468f0       _monster_human_assassin    100478f0 f   hassassin.obj
 0001:00046950       ?Save@CHAssassin@@UAEHAAVCSave@@@Z 10047950 f   hassassin.obj
 0001:000469c0       ?Restore@CHAssassin@@UAEHAAVCRestore@@@Z 100479c0 f   hassassin.obj
 0001:000469f0       ?Classify@CHGrunt@@UAEHXZ  100479f0 f   hassassin.obj
 0001:000469f0       ?Classify@CHAssassin@@UAEHXZ 100479f0 f   hassassin.obj
 0001:00046a00       ?SetYawSpeed@CHAssassin@@UAEXXZ 10047a00 f   hassassin.obj
 0001:00046a20       ?Shoot@CHAssassin@@QAEXXZ  10047a20 f   hassassin.obj
 0001:00046d90       ?HandleAnimEvent@CHAssassin@@UAEXPAUMonsterEvent_t@@@Z 10047d90 f   hassassin.obj
 0001:00047370       ?Spawn@CHAssassin@@UAEXXZ  10048370 f   hassassin.obj
 0001:000474e0       ?Precache@CHAssassin@@UAEXXZ 100484e0 f   hassassin.obj
 0001:00047550       ?ScheduleFromName@CHAssassin@@UAEPAUSchedule_t@@PBD@Z 10048550 f   hassassin.obj
 0001:00047580       ?CheckMeleeAttack1@CHAssassin@@UAEHMM@Z 10048580 f   hassassin.obj
 0001:00047730       ?CheckRangeAttack1@CHAssassin@@UAEHMM@Z 10048730 f   hassassin.obj
 0001:00047800       ?CheckRangeAttack2@CHAssassin@@UAEHMM@Z 10048800 f   hassassin.obj
 0001:00047930       ?RunAI@CHAssassin@@UAEXXZ  10048930 f   hassassin.obj
 0001:00047b60       ?StartTask@CHAssassin@@UAEXPAUTask_t@@@Z 10048b60 f   hassassin.obj
 0001:00047ba0       ?RunTask@CHAssassin@@UAEXPAUTask_t@@@Z 10048ba0 f   hassassin.obj
 0001:00047cc0       ?GetSchedule@CHAssassin@@UAEPAUSchedule_t@@XZ 10048cc0 f   hassassin.obj
 0001:00047e70       ?GetScheduleOfType@CHAssassin@@UAEPAUSchedule_t@@H@Z 10048e70 f   hassassin.obj
 0001:00047fa0       _monster_headcrab          10048fa0 f   headcrab.obj
 0001:00048000       ?GetDamageAmount@CHeadCrab@@UAEMXZ 10049000 f i headcrab.obj
 0001:00048010       ?GetVoicePitch@CHeadCrab@@UAEHXZ 10049010 f i headcrab.obj
 0001:00048020       ?HearingSensitivity@CBaseMonster@@UAEMXZ 10049020 f i headcrab.obj
 0001:00048020       ?GetSoundVolue@CHeadCrab@@UAEMXZ 10049020 f i headcrab.obj
 0001:00048030       ?ScheduleFromName@CHeadCrab@@UAEPAUSchedule_t@@PBD@Z 10049030 f   headcrab.obj
 0001:00048060       ?Classify@CHeadCrab@@UAEHXZ 10049060 f   headcrab.obj
 0001:00048070       ?Center@CHeadCrab@@UAE?AVVector@@XZ 10049070 f   headcrab.obj
 0001:000480a0       ?BodyTarget@CHeadCrab@@UAE?AVVector@@ABV2@@Z 100490a0 f   headcrab.obj
 0001:000480c0       ?SetYawSpeed@CHeadCrab@@UAEXXZ 100490c0 f   headcrab.obj
 0001:00048150       ?HandleAnimEvent@CHeadCrab@@UAEXPAUMonsterEvent_t@@@Z 10049150 f   headcrab.obj
 0001:00048430       ?Spawn@CHeadCrab@@UAEXXZ   10049430 f   headcrab.obj
 0001:00048580       ?Precache@CHeadCrab@@UAEXXZ 10049580 f   headcrab.obj
 0001:00048650       ?RunTask@CHeadCrab@@UAEXPAUTask_t@@@Z 10049650 f   headcrab.obj
 0001:000486a0       ?LeapTouch@CHeadCrab@@QAEXPAVCBaseEntity@@@Z 100496a0 f   headcrab.obj
 0001:00048760       ?PrescheduleThink@CHeadCrab@@UAEXXZ 10049760 f   headcrab.obj
 0001:000487a0       ?StartTask@CHeadCrab@@UAEXPAUTask_t@@@Z 100497a0 f   headcrab.obj
 0001:00048820       ?CheckRangeAttack1@CHeadCrab@@UAEHMM@Z 10049820 f   headcrab.obj
 0001:00048860       ?TakeDamage@CHeadCrab@@UAEHPAUentvars_s@@0MH@Z 10049860 f   headcrab.obj
 0001:00048890       ?IdleSound@CHeadCrab@@UAEXXZ 10049890 f   headcrab.obj
 0001:000488e0       ?AlertSound@CHeadCrab@@UAEXXZ 100498e0 f   headcrab.obj
 0001:00048930       ?PainSound@CHeadCrab@@UAEXXZ 10049930 f   headcrab.obj
 0001:00048980       ?DeathSound@CHeadCrab@@UAEXXZ 10049980 f   headcrab.obj
 0001:000489d0       ?GetScheduleOfType@CHeadCrab@@UAEPAUSchedule_t@@H@Z 100499d0 f   headcrab.obj
 0001:000489f0       _monster_babycrab          100499f0 f   headcrab.obj
 0001:00048a50       ?GetDamageAmount@CBabyCrab@@UAEMXZ 10049a50 f i headcrab.obj
 0001:00048a60       ?GetVoicePitch@CBabyCrab@@UAEHXZ 10049a60 f i headcrab.obj
 0001:00048a80       ?GetSoundVolue@CBabyCrab@@UAEMXZ 10049a80 f i headcrab.obj
 0001:00048a90       ?Spawn@CBabyCrab@@UAEXXZ   10049a90 f   headcrab.obj
 0001:00048b50       ?Precache@CBabyCrab@@UAEXXZ 10049b50 f   headcrab.obj
 0001:00048ba0       ?CheckRangeAttack1@CBabyCrab@@UAEHMM@Z 10049ba0 f   headcrab.obj
 0001:00048c00       ?GetScheduleOfType@CBabyCrab@@UAEPAUSchedule_t@@H@Z 10049c00 f   headcrab.obj
 0001:00048c40       _item_healthkit            10049c40 f   healthkit.obj
 0001:00048c90       ?Spawn@CHealthKit@@EAEXXZ  10049c90 f   healthkit.obj
 0001:00048cc0       ?Precache@CHealthKit@@EAEXXZ 10049cc0 f   healthkit.obj
 0001:00048ce0       ?MyTouch@CHealthKit@@EAEHPAVCBasePlayer@@@Z 10049ce0 f   healthkit.obj
 0001:00048dc0       _item_bighealthkit         10049dc0 f   healthkit.obj
 0001:00048e10       ?Spawn@CBigHealthKit@@UAEXXZ 10049e10 f i healthkit.obj
 0001:00048e70       ?Precache@CBigHealthKit@@UAEXXZ 10049e70 f i healthkit.obj
 0001:00048eb0       ?MyTouch@CBigHealthKit@@UAEHPAVCBasePlayer@@@Z 10049eb0 f i healthkit.obj
 0001:00048f90       ?Save@CWallHealth@@UAEHAAVCSave@@@Z 10049f90 f   healthkit.obj
 0001:00049000       ?Restore@CWallHealth@@UAEHAAVCRestore@@@Z 1004a000 f   healthkit.obj
 0001:00049030       _func_healthcharger        1004a030 f   healthkit.obj
 0001:00049080       ?KeyValue@CWallHealth@@UAEXPAUKeyValueData_s@@@Z 1004a080 f   healthkit.obj
 0001:00049080       ?KeyValue@CRecharge@@UAEXPAUKeyValueData_s@@@Z 1004a080 f   healthkit.obj
 0001:00049200       ?Spawn@CWallHealth@@UAEXXZ 1004a200 f   healthkit.obj
 0001:00049290       ?Precache@CWallHealth@@UAEXXZ 1004a290 f   healthkit.obj
 0001:000492c0       ?Use@CWallHealth@@UAEXPAVCBaseEntity@@0W4USE_TYPE@@M@Z 1004a2c0 f   healthkit.obj
 0001:00049470       ?Recharge@CWallHealth@@QAEXXZ 1004a470 f   healthkit.obj
 0001:000494d0       ?Off@CWallHealth@@QAEXXZ   1004a4d0 f   healthkit.obj
 0001:00049560       ?GetState@CWallHealth@@UAE?AW4STATE@@XZ 1004a560 f   healthkit.obj
 0001:00049560       ?GetState@CRecharge@@UAE?AW4STATE@@XZ 1004a560 f   healthkit.obj
 0001:00049580       ?ItemUse@CItem@@QAEXPAVCBaseEntity@@0W4USE_TYPE@@M@Z 1004a580 f i healthkit.obj
 0001:00049590       ?ObjectCaps@CHGrunt@@UAEHXZ 1004a590 f i hgrunt.obj
 0001:000495d0       ?EyePosition@CMilitary@@UAE?AVVector@@XZ 1004a5d0 f i hgrunt.obj
 0001:000495d0       ?EyePosition@CHGrunt@@UAE?AVVector@@XZ 1004a5d0 f i hgrunt.obj
 0001:00049630       _monster_diversant         1004a630 f   hgrunt.obj
 0001:00049630       _monster_human_grunt       1004a630 f   hgrunt.obj
 0001:00049690       ?Save@CHGrunt@@UAEHAAVCSave@@@Z 1004a690 f   hgrunt.obj
 0001:00049700       ?Restore@CHGrunt@@UAEHAAVCRestore@@@Z 1004a700 f   hgrunt.obj
 0001:00049730       ?ResetSequenceInfo@CHGrunt@@QAEXXZ 1004a730 f   hgrunt.obj
 0001:00049790       ?SpeakSentence@CHGrunt@@UAEXXZ 1004a790 f   hgrunt.obj
 0001:000497f0       ?IRelationship@CHGrunt@@UAEHPAVCBaseEntity@@@Z 1004a7f0 f   hgrunt.obj
 0001:000498b0       ?GibMonster@CHGrunt@@UAEXXZ 1004a8b0 f   hgrunt.obj
 0001:00049ac0       ?FOkToSpeak@CHGrunt@@QAEHXZ 1004aac0 f   hgrunt.obj
 0001:00049b00       ?JustSpoke@CHGrunt@@QAEXXZ 1004ab00 f   hgrunt.obj
 0001:00049b30       ?PrescheduleThink@CHGrunt@@UAEXXZ 1004ab30 f   hgrunt.obj
 0001:00049bc0       ?CheckMeleeAttack1@CHGrunt@@UAEHMM@Z 1004abc0 f   hgrunt.obj
 0001:00049c40       ?CheckRangeAttack1@CHGrunt@@UAEHMM@Z 1004ac40 f   hgrunt.obj
 0001:00049ea0       ?CheckRangeAttack2@CHGrunt@@UAEHMM@Z 1004aea0 f   hgrunt.obj
 0001:0004a360       ?TraceAttack@CHGrunt@@UAEXPAUentvars_s@@MVVector@@PAUTraceResult@@H@Z 1004b360 f   hgrunt.obj
 0001:0004a360       ?TraceAttack@CMilitary@@UAEXPAUentvars_s@@MVVector@@PAUTraceResult@@H@Z 1004b360 f   hgrunt.obj
 0001:0004a3b0       ?TakeDamage@CHGrunt@@UAEHPAUentvars_s@@0MH@Z 1004b3b0 f   hgrunt.obj
 0001:0004a3e0       ?SetYawSpeed@CHGrunt@@UAEXXZ 1004b3e0 f   hgrunt.obj
 0001:0004a4c0       ?IdleSound@CHGrunt@@UAEXXZ 1004b4c0 f   hgrunt.obj
 0001:0004a630       ?Kick@CHGrunt@@QAEPAVCBaseEntity@@XZ 1004b630 f   hgrunt.obj
 0001:0004a6f0       ?GetGunPosition@CHGrunt@@UAE?AVVector@@XZ 1004b6f0 f   hgrunt.obj
 0001:0004a740       ?Shoot@CHGrunt@@UAEXXZ     1004b740 f   hgrunt.obj
 0001:0004a920       ?Shotgun@CHGrunt@@QAEXXZ   1004b920 f   hgrunt.obj
 0001:0004ab10       ?HandleAnimEvent@CHGrunt@@UAEXPAUMonsterEvent_t@@@Z 1004bb10 f   hgrunt.obj
 0001:0004b4f0       ?Spawn@CHGrunt@@UAEXXZ     1004c4f0 f   hgrunt.obj
 0001:0004b730       ?Precache@CHGrunt@@UAEXXZ  1004c730 f   hgrunt.obj
 0001:0004b880       ?StartTask@CHGrunt@@UAEXPAUTask_t@@@Z 1004c880 f   hgrunt.obj
 0001:0004ba10       ?RunTask@CHGrunt@@UAEXPAUTask_t@@@Z 1004ca10 f   hgrunt.obj
 0001:0004bb70       ?PainSound@CHGrunt@@UAEXXZ 1004cb70 f   hgrunt.obj
 0001:0004bc80       ?DeathSound@CHGrunt@@UAEXXZ 1004cc80 f   hgrunt.obj
 0001:0004bd20       ?ScheduleFromName@CHGrunt@@UAEPAUSchedule_t@@PBD@Z 1004cd20 f   hgrunt.obj
 0001:0004bd50       ?SetActivity@CHGrunt@@UAEXW4Activity@@@Z 1004cd50 f   hgrunt.obj
 0001:0004bf60       ?GetSchedule@CHGrunt@@UAEPAUSchedule_t@@XZ 1004cf60 f   hgrunt.obj
 0001:0004c4e0       ?GetScheduleOfType@CHGrunt@@UAEPAUSchedule_t@@H@Z 1004d4e0 f   hgrunt.obj
 0001:0004c890       _monster_grunt_repel       1004d890 f   hgrunt.obj
 0001:0004c8f0       ?Spawn@CHGruntRepel@@UAEXXZ 1004d8f0 f   hgrunt.obj
 0001:0004c910       ?Precache@CHGruntRepel@@UAEXXZ 1004d910 f   hgrunt.obj
 0001:0004c940       ?RepelUse@CHGruntRepel@@QAEXPAVCBaseEntity@@0W4USE_TYPE@@M@Z 1004d940 f   hgrunt.obj
 0001:0004cae0       _monster_hgrunt_dead       1004dae0 f   hgrunt.obj
 0001:0004cb40       ?Spawn@CDeadHGrunt@@UAEXXZ 1004db40 f   hgrunt.obj
 0001:0004cc20       ?SetEyePosition@CHGrunt@@UAEXXZ 1004dc20 f   hgrunt.obj
 0001:0004ccd0       ?DeadUse@CHGrunt@@QAEXPAVCBaseEntity@@0W4USE_TYPE@@M@Z 1004dcd0 f   hgrunt.obj
 0001:0004cd80       ?Killed@CHGrunt@@UAEXPAUentvars_s@@H@Z 1004dd80 f   hgrunt.obj
 0001:0004cde0       _monster_diversant_pistol  1004dde0 f   hgrunt.obj
 0001:0004ce40       ?Spawn@CHGruntGlock@@UAEXXZ 1004de40 f   hgrunt.obj
 0001:0004d020       ?Precache@CHGruntGlock@@UAEXXZ 1004e020 f   hgrunt.obj
 0001:0004d150       ?HandleAnimEvent@CHGruntGlock@@UAEXPAUMonsterEvent_t@@@Z 1004e150 f   hgrunt.obj
 0001:0004d2d0       ?Shoot@CHGruntGlock@@UAEXXZ 1004e2d0 f   hgrunt.obj
 0001:0004d4a0       ?SetActivity@CHGruntGlock@@UAEXW4Activity@@@Z 1004e4a0 f   hgrunt.obj
 0001:0004d640       ?DeadUse@CHGruntGlock@@QAEXPAVCBaseEntity@@0W4USE_TYPE@@M@Z 1004e640 f   hgrunt.obj
 0001:0004d6b0       ?Killed@CHGruntGlock@@UAEXPAUentvars_s@@H@Z 1004e6b0 f   hgrunt.obj
 0001:0004d710       _monster_human_terror      1004e710 f   hgrunt.obj
 0001:0004d770       ?Classify@CTerror@@UAEHXZ  1004e770 f i hgrunt.obj
 0001:0004d780       ?Save@CTerror@@UAEHAAVCSave@@@Z 1004e780 f   hgrunt.obj
 0001:0004d7f0       ?Restore@CTerror@@UAEHAAVCRestore@@@Z 1004e7f0 f   hgrunt.obj
 0001:0004d820       ?Spawn@CTerror@@UAEXXZ     1004e820 f   hgrunt.obj
 0001:0004da30       ?Precache@CTerror@@UAEXXZ  1004ea30 f   hgrunt.obj
 0001:0004db90       ?CheckRangeAttack1@CTerror@@UAEHMM@Z 1004eb90 f   hgrunt.obj
 0001:0004de00       ?HandleAnimEvent@CTerror@@UAEXPAUMonsterEvent_t@@@Z 1004ee00 f   hgrunt.obj
 0001:0004dfd0       ?SetActivity@CTerror@@UAEXW4Activity@@@Z 1004efd0 f   hgrunt.obj
 0001:0004e1c0       ?PainSound@CTerror@@UAEXXZ 1004f1c0 f   hgrunt.obj
 0001:0004e2d0       ?DeathSound@CTerror@@UAEXXZ 1004f2d0 f   hgrunt.obj
 0001:0004e370       ?Shoot@CTerror@@UAEXXZ     1004f370 f   hgrunt.obj
 0001:0004e690       ?SpeakSentence@CTerror@@UAEXXZ 1004f690 f   hgrunt.obj
 0001:0004e6f0       ?GetSchedule@CTerror@@UAEPAUSchedule_t@@XZ 1004f6f0 f   hgrunt.obj
 0001:0004ec00       ?GetScheduleOfType@CTerror@@UAEPAUSchedule_t@@H@Z 1004fc00 f   hgrunt.obj
 0001:0004ecd0       ?TraceAttack@CTerror@@UAEXPAUentvars_s@@MVVector@@PAUTraceResult@@H@Z 1004fcd0 f   hgrunt.obj
 0001:0004ed10       ?TakeDamage@CTerror@@UAEHPAUentvars_s@@0MH@Z 1004fd10 f   hgrunt.obj
 0001:0004ed60       ?GibMonster@CTerror@@UAEXXZ 1004fd60 f   hgrunt.obj
 0001:0004ef70       ?IdleSound@CTerror@@UAEXXZ 1004ff70 f   hgrunt.obj
 0001:0004f0e0       ?DeadUse@CTerror@@QAEXPAVCBaseEntity@@0W4USE_TYPE@@M@Z 100500e0 f   hgrunt.obj
 0001:0004f190       ?Killed@CTerror@@UAEXPAUentvars_s@@H@Z 10050190 f   hgrunt.obj
 0001:0004f1f0       _monster_soldier_clone     100501f0 f   hgrunt.obj
 0001:0004f270       ?Classify@CClone@@UAEHXZ   10050270 f i hgrunt.obj
 0001:0004f280       ?Spawn@CClone@@UAEXXZ      10050280 f   hgrunt.obj
 0001:0004f480       ?Precache@CClone@@UAEXXZ   10050480 f   hgrunt.obj
 0001:0004f5e0       ?HandleAnimEvent@CClone@@UAEXPAUMonsterEvent_t@@@Z 100505e0 f   hgrunt.obj
 0001:0004f7b0       ?PainSound@CClone@@UAEXXZ  100507b0 f   hgrunt.obj
 0001:0004f8c0       ?DeathSound@CClone@@UAEXXZ 100508c0 f   hgrunt.obj
 0001:0004f960       ?SpeakSentence@CClone@@UAEXXZ 10050960 f   hgrunt.obj
 0001:0004f9c0       ?GetSchedule@CClone@@UAEPAUSchedule_t@@XZ 100509c0 f   hgrunt.obj
 0001:0004fe50       ?GetScheduleOfType@CClone@@UAEPAUSchedule_t@@H@Z 10050e50 f   hgrunt.obj
 0001:0004ff20       _monster_soldier_clone_heavy 10050f20 f   hgrunt.obj
 0001:00050010       ?Spawn@CCloneHeavy@@UAEXXZ 10051010 f   hgrunt.obj
 0001:00050210       ?Precache@CCloneHeavy@@UAEXXZ 10051210 f   hgrunt.obj
 0001:00050370       ??0CBaseAnimating@@QAE@XZ  10051370 f i hgrunt.obj
 0001:00050380       ??0CBaseDelay@@QAE@XZ      10051380 f i hgrunt.obj
 0001:00050390       _hornet                    10051390 f   hornet.obj
 0001:000503f0       ?Save@CHornet@@UAEHAAVCSave@@@Z 100513f0 f   hornet.obj
 0001:00050460       ?Restore@CHornet@@UAEHAAVCRestore@@@Z 10051460 f   hornet.obj
 0001:00050490       ?TakeDamage@CHornet@@UAEHPAUentvars_s@@0MH@Z 10051490 f   hornet.obj
 0001:000504c0       ?Spawn@CHornet@@UAEXXZ     100514c0 f   hornet.obj
 0001:00050660       ?Precache@CHornet@@UAEXXZ  10051660 f   hornet.obj
 0001:00050700       ?IRelationship@CHornet@@UAEHPAVCBaseEntity@@@Z 10051700 f   hornet.obj
 0001:00050730       ?Classify@CHornet@@UAEHXZ  10051730 f   hornet.obj
 0001:00050760       ?StartTrack@CHornet@@QAEXXZ 10051760 f   hornet.obj
 0001:00050790       ?StartDart@CHornet@@QAEXXZ 10051790 f   hornet.obj
 0001:000507c0       ?IgniteTrail@CHornet@@QAEXXZ 100517c0 f   hornet.obj
 0001:00050870       ?TrackTarget@CHornet@@QAEXXZ 10051870 f   hornet.obj
 0001:00050f60       ?TrackTouch@CHornet@@QAEXPAVCBaseEntity@@@Z 10051f60 f   hornet.obj
 0001:00051110       ?DartTouch@CHornet@@QAEXPAVCBaseEntity@@@Z 10052110 f   hornet.obj
 0001:00051120       ?DieTouch@CHornet@@QAEXPAVCBaseEntity@@@Z 10052120 f   hornet.obj
 0001:00051230       _weapon_hornetgun          10052230 f   hornetgun.obj
 0001:00051280       ?Spawn@CHgun@@UAEXXZ       10052280 f   hornetgun.obj
 0001:000512d0       ?Precache@CHgun@@UAEXXZ    100522d0 f   hornetgun.obj
 0001:00051320       ?AddToPlayer@CHgun@@UAEHPAVCBasePlayer@@@Z 10052320 f   hornetgun.obj
 0001:000513a0       ?GetItemInfo@CHgun@@UAEHPAUItemInfo@@@Z 100523a0 f   hornetgun.obj
 0001:00051410       ?Deploy@CHgun@@UAEHXZ      10052410 f   hornetgun.obj
 0001:00051430       ?Holster@CHgun@@UAEXH@Z    10052430 f   hornetgun.obj
 0001:000514a0       ?PrimaryAttack@CHgun@@UAEXXZ 100524a0 f   hornetgun.obj
 0001:00051730       ?SecondaryAttack@CHgun@@UAEXXZ 10052730 f   hornetgun.obj
 0001:00052000       ?Reload@CHgun@@UAEXXZ      10053000 f   hornetgun.obj
 0001:00052070       ?WeaponIdle@CHgun@@UAEXXZ  10053070 f   hornetgun.obj
 0001:00052120       _monster_houndeye          10053120 f   houndeye.obj
 0001:00052180       ?Save@CHoundeye@@UAEHAAVCSave@@@Z 10053180 f   houndeye.obj
 0001:000521f0       ?Restore@CHoundeye@@UAEHAAVCRestore@@@Z 100531f0 f   houndeye.obj
 0001:00052220       ?FValidateHintType@CHoundeye@@UAEHF@Z 10053220 f   houndeye.obj
 0001:00052260       ?FCanActiveIdle@CHoundeye@@UAEHXZ 10053260 f   houndeye.obj
 0001:000522d0       ?CheckRangeAttack1@CHoundeye@@UAEHMM@Z 100532d0 f   houndeye.obj
 0001:00052300       ?SetYawSpeed@CHoundeye@@UAEXXZ 10053300 f   houndeye.obj
 0001:00052390       ?SetActivity@CHoundeye@@UAEXW4Activity@@@Z 10053390 f   houndeye.obj
 0001:00052420       ?HandleAnimEvent@CHoundeye@@UAEXPAUMonsterEvent_t@@@Z 10053420 f   houndeye.obj
 0001:00052580       ?Spawn@CHoundeye@@UAEXXZ   10053580 f   houndeye.obj
 0001:000526b0       ?Precache@CHoundeye@@UAEXXZ 100536b0 f   houndeye.obj
 0001:000527e0       ?IdleSound@CHoundeye@@UAEXXZ 100537e0 f   houndeye.obj
 0001:00052880       ?WarmUpSound@CHoundeye@@QAEXXZ 10053880 f   houndeye.obj
 0001:000528f0       ?WarnSound@CHoundeye@@QAEXXZ 100538f0 f   houndeye.obj
 0001:00052990       ?AlertSound@CHoundeye@@UAEXXZ 10053990 f   houndeye.obj
 0001:00052a50       ?DeathSound@CHoundeye@@UAEXXZ 10053a50 f   houndeye.obj
 0001:00052af0       ?PainSound@CHoundeye@@UAEXXZ 10053af0 f   houndeye.obj
 0001:00052b90       ?WriteBeamColor@CHoundeye@@QAEXXZ 10053b90 f   houndeye.obj
 0001:00052c40       ?SonicAttack@CHoundeye@@QAEXXZ 10053c40 f   houndeye.obj
 0001:000530a0       ?StartTask@CHoundeye@@UAEXPAUTask_t@@@Z 100540a0 f   houndeye.obj
 0001:000531f0       ?RunTask@CHoundeye@@UAEXPAUTask_t@@@Z 100541f0 f   houndeye.obj
 0001:00053440       ?PrescheduleThink@CHoundeye@@UAEXXZ 10054440 f   houndeye.obj
 0001:000535a0       ?ScheduleFromName@CHoundeye@@UAEPAUSchedule_t@@PBD@Z 100545a0 f   houndeye.obj
 0001:000535d0       ?GetScheduleOfType@CHoundeye@@UAEPAUSchedule_t@@H@Z 100545d0 f   houndeye.obj
 0001:000537a0       ?GetSchedule@CHoundeye@@UAEPAUSchedule_t@@XZ 100547a0 f   houndeye.obj
 0001:000538e0       _monster_ichthyosaur       100548e0 f   ichthyosaur.obj
 0001:00053970       ?Save@CIchthyosaur@@UAEHAAVCSave@@@Z 10054970 f   ichthyosaur.obj
 0001:000539e0       ?Restore@CIchthyosaur@@UAEHAAVCRestore@@@Z 100549e0 f   ichthyosaur.obj
 0001:00053a10       ?IdleSound@CIchthyosaur@@UAEXXZ 10054a10 f   ichthyosaur.obj
 0001:00053a60       ?AlertSound@CIchthyosaur@@UAEXXZ 10054a60 f   ichthyosaur.obj
 0001:00053ab0       ?AttackSound@CIchthyosaur@@QAEXXZ 10054ab0 f   ichthyosaur.obj
 0001:00053b00       ?BiteSound@CIchthyosaur@@QAEXXZ 10054b00 f   ichthyosaur.obj
 0001:00053b50       ?DeathSound@CIchthyosaur@@UAEXXZ 10054b50 f   ichthyosaur.obj
 0001:00053ba0       ?PainSound@CIchthyosaur@@UAEXXZ 10054ba0 f   ichthyosaur.obj
 0001:00053bf0       ?ScheduleFromName@CIchthyosaur@@UAEPAUSchedule_t@@PBD@Z 10054bf0 f   ichthyosaur.obj
 0001:00053c20       ?CheckMeleeAttack1@CIchthyosaur@@UAEHMM@Z 10054c20 f   ichthyosaur.obj
 0001:00053c60       ?BiteTouch@CIchthyosaur@@QAEXPAVCBaseEntity@@@Z 10054c60 f   ichthyosaur.obj
 0001:00053c90       ?CombatUse@CIchthyosaur@@QAEXPAVCBaseEntity@@0W4USE_TYPE@@M@Z 10054c90 f   ichthyosaur.obj
 0001:00053cd0       ?CheckRangeAttack1@CIchthyosaur@@UAEHMM@Z 10054cd0 f   ichthyosaur.obj
 0001:00053d20       ?SetYawSpeed@CIchthyosaur@@UAEXXZ 10054d20 f   ichthyosaur.obj
 0001:00053d30       ?Killed@CIchthyosaur@@UAEXPAUentvars_s@@H@Z 10054d30 f   ichthyosaur.obj
 0001:00053d80       ?BecomeDead@CIchthyosaur@@UAEXXZ 10054d80 f   ichthyosaur.obj
 0001:00053db0       ?HandleAnimEvent@CIchthyosaur@@UAEXPAUMonsterEvent_t@@@Z 10054db0 f   ichthyosaur.obj
 0001:00054090       ?Spawn@CIchthyosaur@@UAEXXZ 10055090 f   ichthyosaur.obj
 0001:00054310       ?Precache@CIchthyosaur@@UAEXXZ 10055310 f   ichthyosaur.obj
 0001:000543f0       ?GetSchedule@CIchthyosaur@@UAEPAUSchedule_t@@XZ 100553f0 f   ichthyosaur.obj
 0001:000544a0       ?GetScheduleOfType@CIchthyosaur@@UAEPAUSchedule_t@@H@Z 100554a0 f   ichthyosaur.obj
 0001:00054540       ?StartTask@CIchthyosaur@@UAEXPAUTask_t@@@Z 10055540 f   ichthyosaur.obj
 0001:00054610       ?RunTask@CIchthyosaur@@UAEXPAUTask_t@@@Z 10055610 f   ichthyosaur.obj
 0001:00054d10       ?Move@CIchthyosaur@@UAEXM@Z 10055d10 f   ichthyosaur.obj
 0001:00054d20       ?ChangeYaw@CIchthyosaur@@UAEMH@Z 10055d20 f   ichthyosaur.obj
 0001:00054dc0       ?GetStoppedActivity@CIchthyosaur@@UAE?AW4Activity@@XZ 10055dc0 f   ichthyosaur.obj
 0001:00054de0       ?MoveExecute@CIchthyosaur@@UAEXPAVCBaseEntity@@ABVVector@@M@Z 10055de0 f   ichthyosaur.obj
 0001:00054e30       ?MonsterThink@CIchthyosaur@@UAEXXZ 10055e30 f   ichthyosaur.obj
 0001:00054ef0       ?Stop@CIchthyosaur@@UAEXXZ 10055ef0 f   ichthyosaur.obj
 0001:00054f10       ?Swim@CIchthyosaur@@QAEXXZ 10055f10 f   ichthyosaur.obj
 0001:000559b0       ?DoProbe@CIchthyosaur@@QAE?AVVector@@ABV2@@Z 100569b0 f   ichthyosaur.obj
 0001:00055ce0       _monster_vortigaunt        10056ce0 f   islave.obj
 0001:00055ce0       _monster_alien_slave       10056ce0 f   islave.obj
 0001:00055d40       ?Save@CISlave@@UAEHAAVCSave@@@Z 10056d40 f   islave.obj
 0001:00055db0       ?Restore@CISlave@@UAEHAAVCRestore@@@Z 10056db0 f   islave.obj
 0001:00055de0       ?IRelationship@CISlave@@UAEHPAVCBaseEntity@@@Z 10056de0 f   islave.obj
 0001:00055e20       ?CallForHelp@CISlave@@QAEXPADMVEHANDLE@@AAVVector@@@Z 10056e20 f   islave.obj
 0001:00055f10       ?AlertSound@CISlave@@UAEXXZ 10056f10 f   islave.obj
 0001:00055f80       ?IdleSound@CISlave@@UAEXXZ 10056f80 f   islave.obj
 0001:00055fd0       ?PainSound@CISlave@@UAEXXZ 10056fd0 f   islave.obj
 0001:00056030       ?DeathSound@CISlave@@UAEXXZ 10057030 f   islave.obj
 0001:00056070       ?Killed@CISlave@@UAEXPAUentvars_s@@H@Z 10057070 f   islave.obj
 0001:00056090       ?SetYawSpeed@CISlave@@UAEXXZ 10057090 f   islave.obj
 0001:000560f0       ?HandleAnimEvent@CISlave@@UAEXPAUMonsterEvent_t@@@Z 100570f0 f   islave.obj
 0001:00056620       ?CheckRangeAttack1@CISlave@@UAEHMM@Z 10057620 f   islave.obj
 0001:00056650       ?StartTask@CISlave@@UAEXPAUTask_t@@@Z 10057650 f   islave.obj
 0001:00056670       ?Spawn@CISlave@@UAEXXZ     10057670 f   islave.obj
 0001:000567d0       ?Precache@CISlave@@UAEXXZ  100577d0 f   islave.obj
 0001:000568e0       ?TakeDamage@CISlave@@UAEHPAUentvars_s@@0MH@Z 100578e0 f   islave.obj
 0001:00056960       ?TraceAttack@CISlave@@UAEXPAUentvars_s@@MVVector@@PAUTraceResult@@H@Z 10057960 f   islave.obj
 0001:000569a0       ?ScheduleFromName@CISlave@@UAEPAUSchedule_t@@PBD@Z 100579a0 f   islave.obj
 0001:000569d0       ?GetSchedule@CISlave@@UAEPAUSchedule_t@@XZ 100579d0 f   islave.obj
 0001:00056aa0       ?GetScheduleOfType@CISlave@@UAEPAUSchedule_t@@H@Z 10057aa0 f   islave.obj
 0001:00056ae0       ?ArmBeam@CISlave@@QAEXH@Z  10057ae0 f   islave.obj
 0001:00056f10       ?BeamGlow@CISlave@@QAEXXZ  10057f10 f   islave.obj
 0001:00056f80       ?WackBeam@CISlave@@QAEXHPAVCBaseEntity@@@Z 10057f80 f   islave.obj
 0001:000570c0       ?ZapBeam@CISlave@@QAEXH@Z  100580c0 f   islave.obj
 0001:00057480       ?ClearBeams@CISlave@@QAEXXZ 10058480 f   islave.obj
 0001:000574f0       ?SetColor@CBeam@@QAEXHHH@Z 100584f0 f i islave.obj
 0001:00057520       _world_items               10058520 f   items.obj
 0001:00057570       ?KeyValue@CWorldItem@@UAEXPAUKeyValueData_s@@@Z 10058570 f   items.obj
 0001:000576e0       ?Spawn@CWorldItem@@UAEXXZ  100586e0 f   items.obj
 0001:000577d0       ?Save@CItem@@UAEHAAVCSave@@@Z 100587d0 f   items.obj
 0001:00057840       ?Restore@CItem@@UAEHAAVCRestore@@@Z 10058840 f   items.obj
 0001:00057870       ?Spawn@CItem@@UAEXXZ       10058870 f   items.obj
 0001:00057970       ?ItemTouch@CItem@@QAEXPAVCBaseEntity@@@Z 10058970 f   items.obj
 0001:00057a40       ?Respawn@CItem@@UAEPAVCBaseEntity@@XZ 10058a40 f   items.obj
 0001:00057ad0       ?Materialize@CItem@@QAEXXZ 10058ad0 f   items.obj
 0001:00057b60       _item_suit                 10058b60 f   items.obj
 0001:00057bb0       ?Spawn@CItemSuit@@EAEXXZ   10058bb0 f i items.obj
 0001:00057be0       ?Precache@CItemSuit@@EAEXXZ 10058be0 f i items.obj
 0001:00057bf0       ?MyTouch@CItemSuit@@EAEHPAVCBasePlayer@@@Z 10058bf0 f i items.obj
 0001:00057c80       _item_battery              10058c80 f   items.obj
 0001:00057cd0       ?Spawn@CItemBattery@@EAEXXZ 10058cd0 f i items.obj
 0001:00057d30       ?Precache@CItemBattery@@EAEXXZ 10058d30 f i items.obj
 0001:00057da0       ?MyTouch@CItemBattery@@EAEHPAVCBasePlayer@@@Z 10058da0 f i items.obj
 0001:00057f50       _item_armour               10058f50 f   items.obj
 0001:00057fa0       ?Spawn@CItemArmour@@EAEXXZ 10058fa0 f i items.obj
 0001:00058000       ?Precache@CItemArmour@@EAEXXZ 10059000 f i items.obj
 0001:00058040       ?MyTouch@CItemArmour@@EAEHPAVCBasePlayer@@@Z 10059040 f i items.obj
 0001:000580f0       _item_antidote             100590f0 f   items.obj
 0001:00058140       ?Spawn@CItemAntidote@@EAEXXZ 10059140 f i items.obj
 0001:00058170       ?Precache@CItemAntidote@@EAEXXZ 10059170 f i items.obj
 0001:00058180       ?MyTouch@CItemAntidote@@EAEHPAVCBasePlayer@@@Z 10059180 f i items.obj
 0001:000581b0       _item_security             100591b0 f   items.obj
 0001:00058200       ?Spawn@CItemSecurity@@EAEXXZ 10059200 f i items.obj
 0001:00058230       ?Precache@CItemSecurity@@EAEXXZ 10059230 f i items.obj
 0001:00058240       ?MyTouch@CItemSecurity@@EAEHPAVCBasePlayer@@@Z 10059240 f i items.obj
 0001:00058260       _item_longjump             10059260 f   items.obj
 0001:000582b0       ?Spawn@CItemLongJump@@EAEXXZ 100592b0 f i items.obj
 0001:000582e0       ?Precache@CItemLongJump@@EAEXXZ 100592e0 f i items.obj
 0001:000582f0       ?MyTouch@CItemLongJump@@EAEHPAVCBasePlayer@@@Z 100592f0 f i items.obj
 0001:00058380       _item_gasmask              10059380 f   items.obj
 0001:000583d0       ?Spawn@CItemGasMask@@EAEXXZ 100593d0 f i items.obj
 0001:00058400       ?Precache@CItemGasMask@@EAEXXZ 10059400 f i items.obj
 0001:00058420       ?MyTouch@CItemGasMask@@EAEHPAVCBasePlayer@@@Z 10059420 f i items.obj
 0001:000584c0       _item_headshield           100594c0 f   items.obj
 0001:00058510       ?Spawn@CItemHeadShield@@EAEXXZ 10059510 f i items.obj
 0001:00058540       ?Precache@CItemHeadShield@@EAEXXZ 10059540 f i items.obj
 0001:00058560       ?MyTouch@CItemHeadShield@@EAEHPAVCBasePlayer@@@Z 10059560 f i items.obj
 0001:00058600       _monster_leech             10059600 f   leech.obj
 0001:00058660       ?Touch@CLeech@@UAEXPAVCBaseEntity@@@Z 10059660 f i leech.obj
 0001:000586c0       ?SetObjectCollisionBox@CLeech@@UAEXXZ 100596c0 f i leech.obj
 0001:00058760       ?Classify@CLeech@@UAEHXZ   10059760 f i leech.obj
 0001:00058770       ?Save@CLeech@@UAEHAAVCSave@@@Z 10059770 f   leech.obj
 0001:000587e0       ?Restore@CLeech@@UAEHAAVCRestore@@@Z 100597e0 f   leech.obj
 0001:00058810       ?Spawn@CLeech@@UAEXXZ      10059810 f   leech.obj
 0001:00058990       ?Activate@CLeech@@UAEXXZ   10059990 f   leech.obj
 0001:000589b0       ?RecalculateWaterlevel@CLeech@@QAEXXZ 100599b0 f   leech.obj
 0001:00058ad0       ?SwitchLeechState@CLeech@@QAEXXZ 10059ad0 f   leech.obj
 0001:00058ba0       ?IRelationship@CLeech@@UAEHPAVCBaseEntity@@@Z 10059ba0 f   leech.obj
 0001:00058bd0       ?AttackSound@CLeech@@QAEXXZ 10059bd0 f   leech.obj
 0001:00058c40       ?AlertSound@CLeech@@UAEXXZ 10059c40 f   leech.obj
 0001:00058c80       ?Precache@CLeech@@UAEXXZ   10059c80 f   leech.obj
 0001:00058cf0       ?TakeDamage@CLeech@@UAEHPAUentvars_s@@0MH@Z 10059cf0 f   leech.obj
 0001:00058e00       ?HandleAnimEvent@CLeech@@UAEXPAUMonsterEvent_t@@@Z 10059e00 f   leech.obj
 0001:00058fa0       ?MakeVectors@CLeech@@QAEXXZ 10059fa0 f   leech.obj
 0001:00058fe0       ?ObstacleDistance@CLeech@@QAEMPAVCBaseEntity@@@Z 10059fe0 f   leech.obj
 0001:00059380       ?DeadThink@CLeech@@QAEXXZ  1005a380 f   leech.obj
 0001:00059490       ?UpdateMotion@CLeech@@QAEXXZ 1005a490 f   leech.obj
 0001:00059710       ?SwimThink@CLeech@@QAEXXZ  1005a710 f   leech.obj
 0001:00059d80       ?Killed@CLeech@@UAEXPAUentvars_s@@H@Z 1005ad80 f   leech.obj
 0001:00059eb0       ?GetStdLightStyle@@YAHH@Z  1005aeb0 f   lights.obj
 0001:0005a080       ?GetState@CEnvState@@UAE?AW4STATE@@XZ 1005b080 f i lights.obj
 0001:0005a080       ?GetState@CLight@@UAE?AW4STATE@@XZ 1005b080 f i lights.obj
 0001:0005a080       ?GetState@CFade@@UAE?AW4STATE@@XZ 1005b080 f i lights.obj
 0001:0005a080       ?GetState@CEnvRain@@UAE?AW4STATE@@XZ 1005b080 f i lights.obj
 0001:0005a080       ?GetState@CMultiManager@@UAE?AW4STATE@@XZ 1005b080 f i lights.obj
 0001:0005a080       ?GetState@CShake@@UAE?AW4STATE@@XZ 1005b080 f i lights.obj
 0001:0005a090       ?Save@CLight@@UAEHAAVCSave@@@Z 1005b090 f   lights.obj
 0001:0005a100       ?Restore@CLight@@UAEHAAVCRestore@@@Z 1005b100 f   lights.obj
 0001:0005a130       ?KeyValue@CLight@@UAEXPAUKeyValueData_s@@@Z 1005b130 f   lights.obj
 0001:0005a540       ?SetStyle@CLight@@QAEXH@Z  1005b540 f   lights.obj
 0001:0005a590       ?SetCorrectStyle@CLight@@QAEXXZ 1005b590 f   lights.obj
 0001:0005a6a0       ?Think@CLight@@UAEXXZ      1005b6a0 f   lights.obj
 0001:0005a700       ?Spawn@CLight@@UAEXXZ      1005b700 f   lights.obj
 0001:0005a750       ?Use@CLight@@UAEXPAVCBaseEntity@@0W4USE_TYPE@@M@Z 1005b750 f   lights.obj
 0001:0005a830       _light_spot                1005b830 f   lights.obj
 0001:0005a830       _light                     1005b830 f   lights.obj
 0001:0005a880       _light_environment         1005b880 f   lights.obj
 0001:0005a8d0       ?KeyValue@CEnvLight@@UAEXPAUKeyValueData_s@@@Z 1005b8d0 f   lights.obj
 0001:0005aaa0       ?Spawn@CEnvLight@@UAEXXZ   1005baa0 f   lights.obj
 0001:0005ab50       _light_glow                1005bb50 f   lights.obj
 0001:0005aba0       ?Spawn@CLightDynamic@@UAEXXZ 1005bba0 f   lights.obj
 0001:0005ac00       ?Precache@CLightDynamic@@UAEXXZ 1005bc00 f   lights.obj
 0001:0005ac00       ?Precache@CParticle@@UAEXXZ 1005bc00 f   lights.obj
 0001:0005ac10       ?Use@CLightDynamic@@UAEXPAVCBaseEntity@@0W4USE_TYPE@@M@Z 1005bc10 f   lights.obj
 0001:0005ac80       ?SetEffects@CLightDynamic@@QAEXXZ 1005bc80 f   lights.obj
 0001:0005acf0       ?GetState@CLightDynamic@@UAE?AW4STATE@@XZ 1005bcf0 f   lights.obj
 0001:0005ad10       _lightfader                1005bd10 f   lights.obj
 0001:0005ad60       ?Save@CLightFader@@UAEHAAVCSave@@@Z 1005bd60 f   lights.obj
 0001:0005add0       ?Restore@CLightFader@@UAEHAAVCRestore@@@Z 1005bdd0 f   lights.obj
 0001:0005ae00       ?FadeThink@CLightFader@@QAEXXZ 1005be00 f   lights.obj
 0001:0005aee0       ?WaitThink@CLightFader@@QAEXXZ 1005bee0 f   lights.obj
 0001:0005af10       _trigger_lightstyle        1005bf10 f   lights.obj
 0001:0005af60       ?Save@CTriggerLightstyle@@UAEHAAVCSave@@@Z 1005bf60 f   lights.obj
 0001:0005afd0       ?Restore@CTriggerLightstyle@@UAEHAAVCRestore@@@Z 1005bfd0 f   lights.obj
 0001:0005b000       ?KeyValue@CTriggerLightstyle@@UAEXPAUKeyValueData_s@@@Z 1005c000 f   lights.obj
 0001:0005b210       ?Use@CTriggerLightstyle@@UAEXPAVCBaseEntity@@0W4USE_TYPE@@M@Z 1005c210 f   lights.obj
 0001:0005b500       ?CalcLocus_Position@@YA?AVVector@@PAVCBaseEntity@@0PBD@Z 1005c500 f   locus.obj
 0001:0005b5d0       ?CalcLocus_Velocity@@YA?AVVector@@PAVCBaseEntity@@0PBD@Z 1005c5d0 f   locus.obj
 0001:0005b6a0       ?CalcLocus_Ratio@@YAMPAVCBaseEntity@@PBD@Z 1005c6a0 f   locus.obj
 0001:0005b700       _locus_alias               1005c700 f   locus.obj
 0001:0005b750       ?Save@CLocusAlias@@UAEHAAVCSave@@@Z 1005c750 f   locus.obj
 0001:0005b7c0       ?Restore@CLocusAlias@@UAEHAAVCRestore@@@Z 1005c7c0 f   locus.obj
 0001:0005b7f0       ?PostSpawn@CLocusAlias@@UAEXXZ 1005c7f0 f   locus.obj
 0001:0005b830       ?Use@CLocusAlias@@UAEXPAVCBaseEntity@@0W4USE_TYPE@@M@Z 1005c830 f   locus.obj
 0001:0005b850       ?FlushChanges@CLocusAlias@@UAEXXZ 1005c850 f   locus.obj
 0001:0005b880       ?FollowAlias@CLocusAlias@@UAEPAVCBaseEntity@@PAV2@@Z 1005c880 f   locus.obj
 0001:0005b8f0       _locus_beam                1005c8f0 f   locus.obj
 0001:0005b940       ?Save@CLocusBeam@@UAEHAAVCSave@@@Z 1005c940 f   locus.obj
 0001:0005b9b0       ?Restore@CLocusBeam@@UAEHAAVCRestore@@@Z 1005c9b0 f   locus.obj
 0001:0005b9e0       ?KeyValue@CLocusBeam@@UAEXPAUKeyValueData_s@@@Z 1005c9e0 f   locus.obj
 0001:0005be90       ?Precache@CLocusBeam@@UAEXXZ 1005ce90 f   locus.obj
 0001:0005beb0       ?Use@CLocusBeam@@UAEXPAVCBaseEntity@@0W4USE_TYPE@@M@Z 1005ceb0 f   locus.obj
 0001:0005c310       ?Spawn@CLocusBeam@@UAEXXZ  1005d310 f   locus.obj
 0001:0005c380       _calc_position             1005d380 f   locus.obj
 0001:0005c3d0       ?CalcPosition@CCalcPosition@@UAE?AVVector@@PAVCBaseEntity@@@Z 1005d3d0 f   locus.obj
 0001:0005c7a0       _calc_ratio                1005d7a0 f   locus.obj
 0001:0005c7f0       ?CalcRatio@CCalcRatio@@UAEMPAVCBaseEntity@@@Z 1005d7f0 f   locus.obj
 0001:0005ca40       _calc_subvelocity          1005da40 f   locus.obj
 0001:0005ca90       ?CalcVelocity@CCalcSubVelocity@@UAE?AVVector@@PAVCBaseEntity@@@Z 1005da90 f   locus.obj
 0001:0005cbe0       ?Convert@CCalcSubVelocity@@AAE?AVVector@@PAVCBaseEntity@@V2@@Z 1005dbe0 f   locus.obj
 0001:0005cd20       ?ConvertAngles@CCalcSubVelocity@@AAE?AVVector@@PAVCBaseEntity@@V2@@Z 1005dd20 f   locus.obj
 0001:0005cd70       _calc_velocity_path        1005dd70 f   locus.obj
 0001:0005cdc0       ?CalcVelocity@CCalcVelocityPath@@UAE?AVVector@@PAVCBaseEntity@@@Z 1005ddc0 f   locus.obj
 0001:0005d150       _calc_velocity_polar       1005e150 f   locus.obj
 0001:0005d1a0       ?CalcVelocity@CCalcVelocityPolar@@UAE?AVVector@@PAVCBaseEntity@@@Z 1005e1a0 f   locus.obj
 0001:0005d2e0       ?Save@CLocusVariable@@UAEHAAVCSave@@@Z 1005e2e0 f   locus.obj
 0001:0005d350       ?Restore@CLocusVariable@@UAEHAAVCRestore@@@Z 1005e350 f   locus.obj
 0001:0005d380       _locus_variable            1005e380 f   locus.obj
 0001:0005d3d0       ?CalcRatio@CLocusVariable@@UAEMPAVCBaseEntity@@@Z 1005e3d0 f i locus.obj
 0001:0005d3d0       ?CalcRatio@CMark@@UAEMPAVCBaseEntity@@@Z 1005e3d0 f i locus.obj
 0001:0005d3e0       ?KeyValue@CLocusVariable@@UAEXPAUKeyValueData_s@@@Z 1005e3e0 f   locus.obj
 0001:0005d6f0       ?Spawn@CLocusVariable@@UAEXXZ 1005e6f0 f   locus.obj
 0001:0005d700       ?Use@CLocusVariable@@UAEXPAVCBaseEntity@@0W4USE_TYPE@@M@Z 1005e700 f   locus.obj
 0001:0005d950       ?CalcVelocity@CLocusVariable@@UAE?AVVector@@PAVCBaseEntity@@@Z 1005e950 f i locus.obj
 0001:0005d950       ?CalcVelocity@CMark@@UAE?AVVector@@PAVCBaseEntity@@@Z 1005e950 f i locus.obj
 0001:0005d970       ?Think@CMark@@UAEXXZ       1005e970 f i locus.obj
 0001:0005d980       ?Save@CRuleEntity@@UAEHAAVCSave@@@Z 1005e980 f   maprules.obj
 0001:0005d9f0       ?Restore@CRuleEntity@@UAEHAAVCRestore@@@Z 1005e9f0 f   maprules.obj
 0001:0005da20       ?Spawn@CRuleEntity@@UAEXXZ 1005ea20 f   maprules.obj
 0001:0005da50       ?KeyValue@CRuleEntity@@UAEXPAUKeyValueData_s@@@Z 1005ea50 f   maprules.obj
 0001:0005dbc0       ?CanFireForActivator@CRuleEntity@@IAEHPAVCBaseEntity@@@Z 1005ebc0 f   maprules.obj
 0001:0005dbf0       ?Spawn@CRulePointEntity@@UAEXXZ 1005ebf0 f   maprules.obj
 0001:0005dc10       ?Spawn@CRuleBrushEntity@@UAEXXZ 1005ec10 f   maprules.obj
 0001:0005dc50       _game_score                1005ec50 f   maprules.obj
 0001:0005dca0       ?Spawn@CGameScore@@UAEXXZ  1005eca0 f   maprules.obj
 0001:0005dcb0       ?KeyValue@CGameScore@@UAEXPAUKeyValueData_s@@@Z 1005ecb0 f   maprules.obj
 0001:0005dd30       ?Use@CGameScore@@UAEXPAVCBaseEntity@@0W4USE_TYPE@@M@Z 1005ed30 f   maprules.obj
 0001:0005dda0       _game_end                  1005eda0 f   maprules.obj
 0001:0005ddf0       ?Use@CGameEnd@@UAEXPAVCBaseEntity@@0W4USE_TYPE@@M@Z 1005edf0 f   maprules.obj
 0001:0005de10       _game_text                 1005ee10 f   maprules.obj
 0001:0005de60       ?Save@CGameText@@UAEHAAVCSave@@@Z 1005ee60 f   maprules.obj
 0001:0005ded0       ?Restore@CGameText@@UAEHAAVCRestore@@@Z 1005eed0 f   maprules.obj
 0001:0005df00       ?KeyValue@CGameText@@UAEXPAUKeyValueData_s@@@Z 1005ef00 f   maprules.obj
 0001:0005e2e0       ?Use@CGameText@@UAEXPAVCBaseEntity@@0W4USE_TYPE@@M@Z 1005f2e0 f   maprules.obj
 0001:0005e3c0       ?TriggerThink@CGameText@@QAEXXZ 1005f3c0 f   maprules.obj
 0001:0005e400       _game_team_master          1005f400 f   maprules.obj
 0001:0005e450       ?KeyValue@CGameTeamMaster@@UAEXPAUKeyValueData_s@@@Z 1005f450 f   maprules.obj
 0001:0005e550       ?Use@CGameTeamMaster@@UAEXPAVCBaseEntity@@0W4USE_TYPE@@M@Z 1005f550 f   maprules.obj
 0001:0005e600       ?TeamID@CGameTeamMaster@@UAEPBDXZ 1005f600 f   maprules.obj
 0001:0005e620       ?TeamMatch@CGameTeamMaster@@AAEHPAVCBaseEntity@@@Z 1005f620 f   maprules.obj
 0001:0005e670       _game_team_set             1005f670 f   maprules.obj
 0001:0005e6c0       ?Use@CGameTeamSet@@UAEXPAVCBaseEntity@@0W4USE_TYPE@@M@Z 1005f6c0 f   maprules.obj
 0001:0005e710       _game_zone_player          1005f710 f   maprules.obj
 0001:0005e760       ?Save@CGamePlayerZone@@UAEHAAVCSave@@@Z 1005f760 f   maprules.obj
 0001:0005e7d0       ?Restore@CGamePlayerZone@@UAEHAAVCRestore@@@Z 1005f7d0 f   maprules.obj
 0001:0005e800       ?KeyValue@CGamePlayerZone@@UAEXPAUKeyValueData_s@@@Z 1005f800 f   maprules.obj
 0001:0005e970       ?Use@CGamePlayerZone@@UAEXPAVCBaseEntity@@0W4USE_TYPE@@M@Z 1005f970 f   maprules.obj
 0001:0005eb20       _game_player_hurt          1005fb20 f   maprules.obj
 0001:0005eb70       ?Use@CGamePlayerHurt@@UAEXPAVCBaseEntity@@0W4USE_TYPE@@M@Z 1005fb70 f   maprules.obj
 0001:0005ec00       _game_counter              1005fc00 f   maprules.obj
 0001:0005ec50       ?Spawn@CGameCounter@@UAEXXZ 1005fc50 f   maprules.obj
 0001:0005ec80       ?Use@CGameCounter@@UAEXPAVCBaseEntity@@0W4USE_TYPE@@M@Z 1005fc80 f   maprules.obj
 0001:0005ed60       _game_counter_set          1005fd60 f   maprules.obj
 0001:0005edb0       ?Use@CGameCounterSet@@UAEXPAVCBaseEntity@@0W4USE_TYPE@@M@Z 1005fdb0 f   maprules.obj
 0001:0005edf0       _game_player_equip         1005fdf0 f   maprules.obj
 0001:0005ee40       ?KeyValue@CGamePlayerEquip@@UAEXPAUKeyValueData_s@@@Z 1005fe40 f   maprules.obj
 0001:0005eee0       ?Touch@CGamePlayerEquip@@UAEXPAVCBaseEntity@@@Z 1005fee0 f   maprules.obj
 0001:0005ef10       ?EquipPlayer@CGamePlayerEquip@@AAEXPAVCBaseEntity@@@Z 1005ff10 f   maprules.obj
 0001:0005ef80       ?Use@CGamePlayerEquip@@UAEXPAVCBaseEntity@@0W4USE_TYPE@@M@Z 1005ff80 f   maprules.obj
 0001:0005ef90       _game_player_team          1005ff90 f   maprules.obj
 0001:0005efe0       ?TargetTeamName@CGamePlayerTeam@@AAEPBDPBD@Z 1005ffe0 f   maprules.obj
 0001:0005f070       ?Use@CGamePlayerTeam@@UAEXPAVCBaseEntity@@0W4USE_TYPE@@M@Z 10060070 f   maprules.obj
 0001:0005f100       _monstermaker              10060100 f   monstermaker.obj
 0001:0005f160       ?Save@CMonsterMaker@@UAEHAAVCSave@@@Z 10060160 f   monstermaker.obj
 0001:0005f1d0       ?Restore@CMonsterMaker@@UAEHAAVCRestore@@@Z 100601d0 f   monstermaker.obj
 0001:0005f200       ?KeyValue@CMonsterMaker@@UAEXPAUKeyValueData_s@@@Z 10060200 f   monstermaker.obj
 0001:0005f370       ?Spawn@CMonsterMaker@@UAEXXZ 10060370 f   monstermaker.obj
 0001:0005f430       ?Precache@CMonsterMaker@@UAEXXZ 10060430 f   monstermaker.obj
 0001:0005f450       ?TryMakeMonster@CMonsterMaker@@QAEXXZ 10060450 f   monstermaker.obj
 0001:0005f5d0       ?MakeMonsterThink@CMonsterMaker@@QAEXXZ 100605d0 f   monstermaker.obj
 0001:0005f5e0       ?MakeMonster@CMonsterMaker@@QAEPAVCBaseMonster@@XZ 100605e0 f   monstermaker.obj
 0001:0005f770       ?CyclicUse@CMonsterMaker@@QAEXPAVCBaseEntity@@0W4USE_TYPE@@M@Z 10060770 f   monstermaker.obj
 0001:0005f780       ?ToggleUse@CMonsterMaker@@QAEXPAVCBaseEntity@@0W4USE_TYPE@@M@Z 10060780 f   monstermaker.obj
 0001:0005f7e0       ?MakerThink@CMonsterMaker@@QAEXXZ 100607e0 f   monstermaker.obj
 0001:0005f800       ?DeathNotice@CMonsterMaker@@UAEXPAUentvars_s@@@Z 10060800 f   monstermaker.obj
 0001:0005f830       ?Save@CBaseMonster@@UAEHAAVCSave@@@Z 10060830 f   monsters.obj
 0001:0005f8a0       ?Restore@CBaseMonster@@UAEHAAVCRestore@@@Z 100608a0 f   monsters.obj
 0001:0005f910       ?Eat@CBaseMonster@@QAEXM@Z 10060910 f   monsters.obj
 0001:0005f930       ?FShouldEat@CBaseMonster@@QAEHXZ 10060930 f   monsters.obj
 0001:0005f950       ?BarnacleVictimBitten@CBaseMonster@@UAEXPAUentvars_s@@@Z 10060950 f   monsters.obj
 0001:0005f970       ?BarnacleVictimReleased@CBaseMonster@@UAEXXZ 10060970 f   monsters.obj
 0001:0005f9b0       ?Listen@CBaseMonster@@QAEXXZ 100609b0 f   monsters.obj
 0001:0005faf0       ?FLSoundVolume@CBaseMonster@@QAEMPAVCSound@@@Z 10060af0 f   monsters.obj
 0001:0005fb30       ?FValidateHintType@CBaseMonster@@UAEHF@Z 10060b30 f   monsters.obj
 0001:0005fb40       ?Look@CBaseMonster@@UAEXH@Z 10060b40 f   monsters.obj
 0001:0005fe70       ?ISoundMask@CBaseMonster@@UAEHXZ 10060e70 f   monsters.obj
 0001:0005fe80       ?PBestSound@CBaseMonster@@UAEPAVCSound@@XZ 10060e80 f   monsters.obj
 0001:0005ff50       ?PBestScent@CBaseMonster@@UAEPAVCSound@@XZ 10060f50 f   monsters.obj
 0001:00060000       ?MonsterThink@CBaseMonster@@UAEXXZ 10061000 f   monsters.obj
 0001:000600a0       ?MonsterUse@CBaseMonster@@QAEXPAVCBaseEntity@@0W4USE_TYPE@@M@Z 100610a0 f   monsters.obj
 0001:000600b0       ?IgnoreConditions@CBaseMonster@@UAEHXZ 100610b0 f   monsters.obj
 0001:000600f0       ?RouteClear@CBaseMonster@@QAEXXZ 100610f0 f   monsters.obj
 0001:00060130       ?RouteNew@CBaseMonster@@QAEXXZ 10061130 f   monsters.obj
 0001:00060140       ?FRouteClear@CBaseMonster@@QAEHXZ 10061140 f   monsters.obj
 0001:00060170       ?FRefreshRoute@CBaseMonster@@QAEHXZ 10061170 f   monsters.obj
 0001:000602f0       ?MoveToLocation@CBaseMonster@@QAEHW4Activity@@MABVVector@@@Z 100612f0 f   monsters.obj
 0001:00060340       ?MoveToTarget@CBaseMonster@@QAEHW4Activity@@M@Z 10061340 f   monsters.obj
 0001:00060370       ?ShouldSimplify@@YAHH@Z    10061370 f   monsters.obj
 0001:00060390       ?RouteSimplify@CBaseMonster@@QAEXPAVCBaseEntity@@@Z 10061390 f   monsters.obj
 0001:000607d0       ?FBecomeProne@CBaseMonster@@UAEHXZ 100617d0 f   monsters.obj
 0001:00060800       ?CheckRangeAttack1@CBaseMonster@@UAEHMM@Z 10061800 f   monsters.obj
 0001:00060840       ?CheckRangeAttack2@CBaseMonster@@UAEHMM@Z 10061840 f   monsters.obj
 0001:00060880       ?CheckMeleeAttack1@CBaseMonster@@UAEHMM@Z 10061880 f   monsters.obj
 0001:000608e0       ?CheckMeleeAttack2@CBaseMonster@@UAEHMM@Z 100618e0 f   monsters.obj
 0001:00060910       ?CheckAttacks@CBaseMonster@@QAEXPAVCBaseEntity@@M@Z 10061910 f   monsters.obj
 0001:00060a70       ?FCanCheckAttacks@CBaseMonster@@UAEHXZ 10061a70 f   monsters.obj
 0001:00060a90       ?CheckEnemy@CBaseMonster@@UAEHPAVCBaseEntity@@@Z 10061a90 f   monsters.obj
 0001:00060e70       ?PushEnemy@CBaseMonster@@QAEXPAVCBaseEntity@@AAVVector@@@Z 10061e70 f   monsters.obj
 0001:00060ef0       ?PopEnemy@CBaseMonster@@QAEHXZ 10061ef0 f   monsters.obj
 0001:00060f80       ?SetActivity@CBaseMonster@@UAEXW4Activity@@@Z 10061f80 f   monsters.obj
 0001:00061040       ?SetSequenceByName@CBaseMonster@@QAEXPAD@Z 10062040 f   monsters.obj
 0001:000610d0       ?CheckLocalMove@CBaseMonster@@UAEHABVVector@@0PAVCBaseEntity@@PAM@Z 100620d0 f   monsters.obj
 0001:000612a0       ?OpenDoorAndWait@CBaseMonster@@QAEMPAUentvars_s@@@Z 100622a0 f   monsters.obj
 0001:000613d0       ?AdvanceRoute@CBaseMonster@@QAEXM@Z 100623d0 f   monsters.obj
 0001:00061530       ?RouteClassify@CBaseMonster@@QAEHH@Z 10062530 f   monsters.obj
 0001:00061580       ?BuildRoute@CBaseMonster@@QAEHABVVector@@HPAVCBaseEntity@@@Z 10062580 f   monsters.obj
 0001:000616f0       ?InsertWaypoint@CBaseMonster@@QAEXVVector@@H@Z 100626f0 f   monsters.obj
 0001:00061780       ?FTriangulate@CBaseMonster@@UAEHABVVector@@0MPAVCBaseEntity@@PAV2@@Z 10062780 f   monsters.obj
 0001:00062060       ?Move@CBaseMonster@@UAEXM@Z 10063060 f   monsters.obj
 0001:00062550       ?ShouldAdvanceRoute@CBaseMonster@@UAEHM@Z 10063550 f   monsters.obj
 0001:00062570       ?MoveExecute@CBaseMonster@@UAEXPAVCBaseEntity@@ABVVector@@M@Z 10063570 f   monsters.obj
 0001:000626b0       ?MonsterInit@CBaseMonster@@UAEXXZ 100636b0 f   monsters.obj
 0001:000627e0       ?MonsterInitThink@CBaseMonster@@QAEXXZ 100637e0 f   monsters.obj
 0001:000627f0       ?StartPatrol@CBaseMonster@@QAEXPAVCBaseEntity@@@Z 100637f0 f   monsters.obj
 0001:000628a0       ?StartMonster@CBaseMonster@@UAEXXZ 100638a0 f   monsters.obj
 0001:00062ab0       ?MovementComplete@CBaseMonster@@QAEXXZ 10063ab0 f   monsters.obj
 0001:00062b30       ?TaskIsRunning@CBaseMonster@@QAEHXZ 10063b30 f   monsters.obj
 0001:00062b50       ?IRelationship@CBaseMonster@@UAEHPAVCBaseEntity@@@Z 10063b50 f   monsters.obj
 0001:00062bc0       ?FindCover@CBaseMonster@@UAEHVVector@@0MM@Z 10063bc0 f   monsters.obj
 0001:00062e90       ?BuildNearestRoute@CBaseMonster@@UAEHVVector@@0MM@Z 10063e90 f   monsters.obj
 0001:00063100       ?BestVisibleEnemy@CBaseMonster@@UAEPAVCBaseEntity@@XZ 10064100 f   monsters.obj
 0001:00063200       ?MakeIdealYaw@CBaseMonster@@QAEXVVector@@@Z 10064200 f   monsters.obj
 0001:000632f0       ?FlYawDiff@CBaseMonster@@QAEMXZ 100642f0 f   monsters.obj
 0001:00063350       ?ChangeYaw@CBaseMonster@@UAEMH@Z 10064350 f   monsters.obj
 0001:000634c0       ?VecToYaw@CBaseMonster@@QAEMVVector@@@Z 100644c0 f   monsters.obj
 0001:00063510       ?SetEyePosition@CBaseMonster@@UAEXXZ 10064510 f   monsters.obj
 0001:000635c0       ?HandleAnimEvent@CBaseMonster@@UAEXPAUMonsterEvent_t@@@Z 100645c0 f   monsters.obj
 0001:00063880       ?GetGunPosition@CBaseMonster@@UAE?AVVector@@XZ 10064880 f   monsters.obj
 0001:00063970       ?FGetNodeRoute@CBaseMonster@@QAEHVVector@@@Z 10064970 f   monsters.obj
 0001:00063aa0       ?FindHintNode@CBaseMonster@@QAEHXZ 10064aa0 f   monsters.obj
 0001:00063c00       ?ReportAIState@CBaseMonster@@UAEXXZ 10064c00 f   monsters.obj
 0001:00063ea0       ?KeyValue@CBaseMonster@@UAEXPAUKeyValueData_s@@@Z 10064ea0 f   monsters.obj
 0001:00064070       ?FCheckAITrigger@CBaseMonster@@QAEHXZ 10065070 f   monsters.obj
 0001:00064210       ?CanPlaySequence@CBaseMonster@@UAEHH@Z 10065210 f   monsters.obj
 0001:000642e0       ?FindLateralCover@CBaseMonster@@QAEHABVVector@@0@Z 100652e0 f   monsters.obj
 0001:00064590       ?ShootAtEnemy@CBaseMonster@@UAE?AVVector@@ABV2@@Z 10065590 f   monsters.obj
 0001:000647e0       ?FacingIdeal@CBaseMonster@@QAEHXZ 100657e0 f   monsters.obj
 0001:00064800       ?PlaySentence@CBaseMonster@@UAEXPBDMMM@Z 10065800 f   monsters.obj
 0001:00064870       ?PlayScriptedSentence@CBaseMonster@@UAEXPBDMMMHPAVCBaseEntity@@@Z 10065870 f   monsters.obj
 0001:00064890       ?SentenceStop@CBaseMonster@@UAEXXZ 10065890 f   monsters.obj
 0001:000648c0       ?CorpseFallThink@CBaseMonster@@QAEXXZ 100658c0 f   monsters.obj
 0001:00064900       ?MonsterInitDead@CBaseMonster@@UAEXXZ 10065900 f   monsters.obj
 0001:000649b0       ?BBoxFlat@CBaseMonster@@QAEHXZ 100659b0 f   monsters.obj
 0001:00064ca0       ?GetEnemy@CBaseMonster@@UAEHXZ 10065ca0 f   monsters.obj
 0001:00064e20       ?DropItem@CBaseMonster@@QAEPAVCBaseEntity@@PADABVVector@@1@Z 10065e20 f   monsters.obj
 0001:00064ee0       ?ShouldFadeOnDeath@CBaseMonster@@UAEHXZ 10065ee0 f   monsters.obj
 0001:00064f10       _monster_target            10065f10 f   monsters.obj
 0001:00064f60       ?Classify@CMonsterTarget@@UAEHXZ 10065f60 f i monsters.obj
 0001:00064f70       ?GetState@CMonsterTarget@@UAE?AW4STATE@@XZ 10065f70 f i monsters.obj
 0001:00064f90       ?Spawn@CMonsterTarget@@UAEXXZ 10065f90 f   monsters.obj
 0001:00064fd0       ?Use@CMonsterTarget@@UAEXPAVCBaseEntity@@0W4USE_TYPE@@M@Z 10065fd0 f   monsters.obj
 0001:00065020       ?SetState@CBaseMonster@@QAEXW4MONSTERSTATE@@@Z 10066020 f   monsterstate.obj
 0001:00065070       ?RunAI@CBaseMonster@@UAEXXZ 10066070 f   monsterstate.obj
 0001:00065180       ?GetIdealState@CBaseMonster@@UAE?AW4MONSTERSTATE@@XZ 10066180 f   monsterstate.obj
 0001:00065360       _func_mortar_field         10066360 f   mortar.obj
 0001:000653b0       ?Save@CFuncMortarField@@UAEHAAVCSave@@@Z 100663b0 f   mortar.obj
 0001:00065420       ?Restore@CFuncMortarField@@UAEHAAVCRestore@@@Z 10066420 f   mortar.obj
 0001:00065450       ?KeyValue@CFuncMortarField@@UAEXPAUKeyValueData_s@@@Z 10066450 f   mortar.obj
 0001:00065610       ?Spawn@CFuncMortarField@@UAEXXZ 10066610 f   mortar.obj
 0001:00065680       ?Precache@CFuncMortarField@@UAEXXZ 10066680 f   mortar.obj
 0001:000656b0       ?FieldUse@CFuncMortarField@@QAEXPAVCBaseEntity@@0W4USE_TYPE@@M@Z 100666b0 f   mortar.obj
 0001:00065940       _monster_mortar            10066940 f   mortar.obj
 0001:000659a0       ?Spawn@CMortar@@UAEXXZ     100669a0 f   mortar.obj
 0001:000659e0       ?Precache@CMortar@@UAEXXZ  100669e0 f   mortar.obj
 0001:00065a00       ?MortarExplode@CMortar@@QAEXXZ 10066a00 f   mortar.obj
 0001:00065b80       ?UTIL_AddToAssistList@@YAXPAVCBaseEntity@@@Z 10066b80 f   movewith.obj
 0001:00065be0       ?HandlePostAssist@@YAXPAVCBaseEntity@@@Z 10066be0 f   movewith.obj
 0001:00065c90       ?ApplyDesiredSettings@@YAHPAVCBaseEntity@@@Z 10066c90 f   movewith.obj
 0001:00065d90       ?AssistChildren@@YAXPAVCBaseEntity@@VVector@@1@Z 10066d90 f   movewith.obj
 0001:00065eb0       ?TryAssistEntity@@YAHPAVCBaseEntity@@@Z 10066eb0 f   movewith.obj
 0001:000661a0       ?CheckAssistList@@YAXXZ    100671a0 f   movewith.obj
 0001:00066200       ?CheckDesiredList@@YAXXZ   10067200 f   movewith.obj
 0001:00066290       ?UTIL_MarkForAssist@@YAXPAVCBaseEntity@@H@Z 10067290 f   movewith.obj
 0001:000662c0       ?UTIL_MarkForDesired@@YAXPAVCBaseEntity@@@Z 100672c0 f   movewith.obj
 0001:000662f0       ?UTIL_DesiredAction@@YAXPAVCBaseEntity@@@Z 100672f0 f   movewith.obj
 0001:00066310       ?UTIL_DesiredPostAssist@@YAXPAVCBaseEntity@@@Z 10067310 f   movewith.obj
 0001:00066330       ?UTIL_DesiredThink@@YAXPAVCBaseEntity@@@Z 10067330 f   movewith.obj
 0001:00066350       ?UTIL_AssignOrigin@@YAXPAVCBaseEntity@@VVector@@@Z 10067350 f   movewith.obj
 0001:00066370       ?UTIL_AssignOrigin@@YAXPAVCBaseEntity@@VVector@@H@Z 10067370 f   movewith.obj
 0001:00066570       ?UTIL_SetAngles@@YAXPAVCBaseEntity@@VVector@@@Z 10067570 f   movewith.obj
 0001:00066590       ?UTIL_SetAngles@@YAXPAVCBaseEntity@@VVector@@H@Z 10067590 f   movewith.obj
 0001:00066790       ?UTIL_SetMoveWithVelocity@@YAXPAVCBaseEntity@@VVector@@H@Z 10067790 f   movewith.obj
 0001:000668b0       ?UTIL_SetVelocity@@YAXPAVCBaseEntity@@VVector@@@Z 100678b0 f   movewith.obj
 0001:00066980       ?UTIL_SetMoveWithAvelocity@@YAXPAVCBaseEntity@@VVector@@H@Z 10067980 f   movewith.obj
 0001:00066a80       ?UTIL_SetAvelocity@@YAXPAVCBaseEntity@@VVector@@@Z 10067a80 f   movewith.obj
 0001:00066b50       _weapon_9mmAR              10067b50 f   mp5.obj
 0001:00066b50       _weapon_mp5                10067b50 f   mp5.obj
 0001:00066bb0       ?Save@CMP5@@UAEHAAVCSave@@@Z 10067bb0 f   mp5.obj
 0001:00066c20       ?Restore@CMP5@@UAEHAAVCRestore@@@Z 10067c20 f   mp5.obj
 0001:00066c50       ?SecondaryAmmoIndex@CMP5@@UAEHXZ 10067c50 f   mp5.obj
 0001:00066c60       ?Spawn@CMP5@@UAEXXZ        10067c60 f   mp5.obj
 0001:00066cd0       ?Precache@CMP5@@UAEXXZ     10067cd0 f   mp5.obj
 0001:00066db0       ?GetItemInfo@CMP5@@UAEHPAUItemInfo@@@Z 10067db0 f   mp5.obj
 0001:00066e20       ?IsUseable@CMP5@@UAEHXZ    10067e20 f   mp5.obj
 0001:00066ea0       ?Deploy@CMP5@@UAEHXZ       10067ea0 f   mp5.obj
 0001:00066f20       ?PrimaryAttack@CMP5@@UAEXXZ 10067f20 f   mp5.obj
 0001:00067160       ?SecondaryAttack@CMP5@@UAEXXZ 10068160 f   mp5.obj
 0001:000673b0       ?Reload@CMP5@@UAEXXZ       100683b0 f   mp5.obj
 0001:00067420       ?WeaponIdle@CMP5@@UAEXXZ   10068420 f   mp5.obj
 0001:00067480       ?Idle1@CMP5@@UAEXXZ        10068480 f   mp5.obj
 0001:000674d0       _ammo_mp5                  100684d0 f   mp5.obj
 0001:000674d0       _ammo_9mmAR                100684d0 f   mp5.obj
 0001:00067520       ?Spawn@CMP5AmmoClip@@EAEXXZ 10068520 f i mp5.obj
 0001:00067550       ?Precache@CMP5AmmoClip@@EAEXXZ 10068550 f i mp5.obj
 0001:00067570       ?AddAmmo@CMP5AmmoClip@@EAEHPAVCBaseEntity@@@Z 10068570 f i mp5.obj
 0001:000675d0       _ammo_mp5box               100685d0 f   mp5.obj
 0001:000675d0       _ammo_9mmbox               100685d0 f   mp5.obj
 0001:00067620       ?Spawn@CMP5Chainammo@@EAEXXZ 10068620 f i mp5.obj
 0001:00067650       ?Precache@CMP5Chainammo@@EAEXXZ 10068650 f i mp5.obj
 0001:00067670       ?AddAmmo@CMP5Chainammo@@EAEHPAVCBaseEntity@@@Z 10068670 f i mp5.obj
 0001:000676d0       _ammo_mp5grenades          100686d0 f   mp5.obj
 0001:000676d0       _ammo_ARgrenades           100686d0 f   mp5.obj
 0001:00067720       ?Spawn@CMP5AmmoGrenade@@EAEXXZ 10068720 f i mp5.obj
 0001:00067750       ?Precache@CMP5AmmoGrenade@@EAEXXZ 10068750 f i mp5.obj
 0001:00067770       ?AddAmmo@CMP5AmmoGrenade@@EAEHPAVCBaseEntity@@@Z 10068770 f i mp5.obj
 0001:00067830       ?CanPlayerHearPlayer@CMultiplayGameMgrHelper@@UAE_NPAVCBasePlayer@@0@Z 10068830 f i multiplay_gamerules.obj
 0001:00067880       ??0CHalfLifeMultiplay@@QAE@XZ 10068880 f   multiplay_gamerules.obj
 0001:00067980       ?ClientCommand@CHalfLifeMultiplay@@UAEHPAVCBasePlayer@@PBD@Z 10068980 f   multiplay_gamerules.obj
 0001:000679a0       ?RefreshSkillData@CHalfLifeMultiplay@@UAEXXZ 100689a0 f   multiplay_gamerules.obj
 0001:00067a40       ?Think@CHalfLifeMultiplay@@UAEXXZ 10068a40 f   multiplay_gamerules.obj
 0001:00067c50       ?IsCoOp@CHalfLifeMultiplay@@UAEHXZ 10068c50 f   multiplay_gamerules.obj
 0001:00067c60       ?FShouldSwitchWeapon@CHalfLifeMultiplay@@UAEHPAVCBasePlayer@@PAVCBasePlayerItem@@@Z 10068c60 f   multiplay_gamerules.obj
 0001:00067ce0       ?GetNextBestWeapon@CHalfLifeMultiplay@@UAEHPAVCBasePlayer@@PAVCBasePlayerItem@@@Z 10068ce0 f   multiplay_gamerules.obj
 0001:00067ce0       ?GetNextBestWeapon@CHalfLifeRules@@UAEHPAVCBasePlayer@@PAVCBasePlayerItem@@@Z 10068ce0 f   multiplay_gamerules.obj
 0001:00067df0       ?ClientConnected@CHalfLifeMultiplay@@UAEHPAUedict_s@@PBD1QAD@Z 10068df0 f   multiplay_gamerules.obj
 0001:00067e10       ?UpdateGameMode@CHalfLifeMultiplay@@UAEXPAVCBasePlayer@@@Z 10068e10 f   multiplay_gamerules.obj
 0001:00067e50       ?InitHUD@CHalfLifeMultiplay@@UAEXPAVCBasePlayer@@@Z 10068e50 f   multiplay_gamerules.obj
 0001:000680a0       ?ClientDisconnected@CHalfLifeMultiplay@@UAEXPAUedict_s@@@Z 100690a0 f   multiplay_gamerules.obj
 0001:00068190       ?FlPlayerFallDamage@CHalfLifeMultiplay@@UAEMPAVCBasePlayer@@@Z 10069190 f   multiplay_gamerules.obj
 0001:000681d0       ?FPlayerCanTakeDamage@CHalfLifeMultiplay@@UAEHPAVCBasePlayer@@PAVCBaseEntity@@@Z 100691d0 f   multiplay_gamerules.obj
 0001:00068220       ?PlayerThink@CHalfLifeMultiplay@@UAEXPAVCBasePlayer@@@Z 10069220 f   multiplay_gamerules.obj
 0001:00068260       ?PlayerSpawn@CHalfLifeMultiplay@@UAEXPAVCBasePlayer@@@Z 10069260 f   multiplay_gamerules.obj
 0001:000682e0       ?FlPlayerSpawnTime@CHalfLifeRules@@UAEMPAVCBasePlayer@@@Z 100692e0 f   multiplay_gamerules.obj
 0001:000682e0       ?FlPlayerSpawnTime@CHalfLifeMultiplay@@UAEMPAVCBasePlayer@@@Z 100692e0 f   multiplay_gamerules.obj
 0001:000682f0       ?AllowAutoTargetCrosshair@CHalfLifeMultiplay@@UAEHXZ 100692f0 f   multiplay_gamerules.obj
 0001:00068310       ?PlayerKilled@CHalfLifeMultiplay@@UAEXPAVCBasePlayer@@PAUentvars_s@@1@Z 10069310 f   multiplay_gamerules.obj
 0001:00068550       ?DeathNotice@CHalfLifeMultiplay@@UAEXPAVCBasePlayer@@PAUentvars_s@@1@Z 10069550 f   multiplay_gamerules.obj
 0001:00068a20       ?FlWeaponRespawnTime@CHalfLifeMultiplay@@UAEMPAVCBasePlayerItem@@@Z 10069a20 f   multiplay_gamerules.obj
 0001:00068a70       ?FlWeaponTryRespawn@CHalfLifeMultiplay@@UAEMPAVCBasePlayerItem@@@Z 10069a70 f   multiplay_gamerules.obj
 0001:00068ad0       ?WeaponShouldRespawn@CHalfLifeMultiplay@@UAEHPAVCBasePlayerItem@@@Z 10069ad0 f   multiplay_gamerules.obj
 0001:00068af0       ?CanHavePlayerItem@CHalfLifeMultiplay@@UAEHPAVCBasePlayer@@PAVCBasePlayerItem@@@Z 10069af0 f   multiplay_gamerules.obj
 0001:00068b80       ?ItemShouldRespawn@CHalfLifeMultiplay@@UAEHPAVCItem@@@Z 10069b80 f   multiplay_gamerules.obj
 0001:00068ba0       ?FlItemRespawnTime@CHalfLifeMultiplay@@UAEMPAVCItem@@@Z 10069ba0 f   multiplay_gamerules.obj
 0001:00068bb0       ?AmmoShouldRespawn@CHalfLifeMultiplay@@UAEHPAVCBasePlayerAmmo@@@Z 10069bb0 f   multiplay_gamerules.obj
 0001:00068bd0       ?FlAmmoRespawnTime@CHalfLifeMultiplay@@UAEMPAVCBasePlayerAmmo@@@Z 10069bd0 f   multiplay_gamerules.obj
 0001:00068be0       ?FlHealthChargerRechargeTime@CHalfLifeMultiplay@@UAEMXZ 10069be0 f   multiplay_gamerules.obj
 0001:00068bf0       ?FlHEVChargerRechargeTime@CHalfLifeMultiplay@@UAEMXZ 10069bf0 f   multiplay_gamerules.obj
 0001:00068c00       ?DeadPlayerWeapons@CHalfLifeMultiplay@@UAEHPAVCBasePlayer@@@Z 10069c00 f   multiplay_gamerules.obj
 0001:00068c10       ?DeadPlayerAmmo@CHalfLifeMultiplay@@UAEHPAVCBasePlayer@@@Z 10069c10 f   multiplay_gamerules.obj
 0001:00068c20       ?GetPlayerSpawnSpot@CHalfLifeMultiplay@@UAEPAUedict_s@@PAVCBasePlayer@@@Z 10069c20 f   multiplay_gamerules.obj
 0001:00068c70       ?PlayerRelationship@CHalfLifeMultiplay@@UAEHPAVCBaseEntity@@0@Z 10069c70 f   multiplay_gamerules.obj
 0001:00068ca0       ?PlayFootstepSounds@CHalfLifeMultiplay@@UAEHPAVCBasePlayer@@M@Z 10069ca0 f   multiplay_gamerules.obj
 0001:00068d10       ?FAllowFlashlight@CHalfLifeMultiplay@@UAEHXZ 10069d10 f   multiplay_gamerules.obj
 0001:00068d30       ?FAllowMonsters@CHalfLifeMultiplay@@UAEHXZ 10069d30 f   multiplay_gamerules.obj
 0001:00068d50       ?GoToIntermission@CHalfLifeMultiplay@@MAEXXZ 10069d50 f   multiplay_gamerules.obj
 0001:00068e00       ?DestroyMapCycle@@YAXPAUmapcycle_s@@@Z 10069e00 f   multiplay_gamerules.obj
 0001:00068e40       ?COM_Parse@@YAPADPAD@Z     10069e40 f   multiplay_gamerules.obj
 0001:00068f30       ?COM_TokenWaiting@@YAHPAD@Z 10069f30 f   multiplay_gamerules.obj
 0001:00068f80       ?ReloadMapCycleFile@@YAHPADPAUmapcycle_s@@@Z 10069f80 f   multiplay_gamerules.obj
 0001:00069250       ?CountPlayers@@YAHXZ       1006a250 f   multiplay_gamerules.obj
 0001:00069290       ?ExtractCommandString@@YAXPAD0@Z 1006a290 f   multiplay_gamerules.obj
 0001:000693c0       ?ChangeLevel@CHalfLifeMultiplay@@MAEXXZ 1006a3c0 f   multiplay_gamerules.obj
 0001:00069690       ?SendMOTDToClient@CHalfLifeMultiplay@@IAEXPAUedict_s@@@Z 1006a690 f   multiplay_gamerules.obj
 0001:000697d0       ?GetGameDescription@CGameRules@@UAEPBDXZ 1006a7d0 f i multiplay_gamerules.obj
 0001:000697e0       ?ShouldAutoAim@CGameRules@@UAEHPAVCBasePlayer@@PAUedict_s@@@Z 1006a7e0 f i multiplay_gamerules.obj
 0001:000697e0       ?PlayFootstepSounds@CGameRules@@UAEHPAVCBasePlayer@@M@Z 1006a7e0 f i multiplay_gamerules.obj
 0001:000697e0       ?FPlayerCanTakeDamage@CGameRules@@UAEHPAVCBasePlayer@@PAVCBaseEntity@@@Z 1006a7e0 f i multiplay_gamerules.obj
 0001:000697f0       ?GetTeamIndex@CGameRules@@UAEHPBD@Z 1006a7f0 f i multiplay_gamerules.obj
 0001:00069800       ?ChangePlayerTeam@CGameRules@@UAEXPAVCBasePlayer@@PBDHH@Z 1006a800 f i multiplay_gamerules.obj
 0001:00069800       ?Use@CFuncMonsterClip@@UAEXPAVCBaseEntity@@0W4USE_TYPE@@M@Z 1006a800 f i multiplay_gamerules.obj
 0001:00069810       ?EndMultiplayerGame@CHalfLifeMultiplay@@UAEXXZ 1006a810 f i multiplay_gamerules.obj
 0001:00069820       ??_ECMultiplayGameMgrHelper@@UAEPAXI@Z 1006a820 f i multiplay_gamerules.obj
 0001:00069820       ??_EIVoiceGameMgrHelper@@UAEPAXI@Z 1006a820 f i multiplay_gamerules.obj
 0001:00069820       ??_GCMultiplayGameMgrHelper@@UAEPAXI@Z 1006a820 f i multiplay_gamerules.obj
 0001:00069820       ??_GIVoiceGameMgrHelper@@UAEPAXI@Z 1006a820 f i multiplay_gamerules.obj
 0001:00069840       _monster_nihilanth         1006a840 f   nihilanth.obj
 0001:000698b0       ?BloodColor@CNihilanth@@UAEHXZ 1006a8b0 f i nihilanth.obj
 0001:000698b0       ?BloodColor@CSqueakGrenade@@EAEHXZ 1006a8b0 f i nihilanth.obj
 0001:000698c0       ?SetObjectCollisionBox@CNihilanth@@UAEXXZ 1006a8c0 f i nihilanth.obj
 0001:00069960       ?Save@CNihilanth@@UAEHAAVCSave@@@Z 1006a960 f   nihilanth.obj
 0001:000699d0       ?Restore@CNihilanth@@UAEHAAVCRestore@@@Z 1006a9d0 f   nihilanth.obj
 0001:00069a00       _nihilanth_energy_ball     1006aa00 f   nihilanth.obj
 0001:00069a60       ?Save@CNihilanthHVR@@UAEHAAVCSave@@@Z 1006aa60 f   nihilanth.obj
 0001:00069ad0       ?Restore@CNihilanthHVR@@UAEHAAVCRestore@@@Z 1006aad0 f   nihilanth.obj
 0001:00069b00       ?Spawn@CNihilanth@@UAEXXZ  1006ab00 f   nihilanth.obj
 0001:00069e10       ?Precache@CNihilanth@@UAEXXZ 1006ae10 f   nihilanth.obj
 0001:00069f20       ?PainSound@CNihilanth@@UAEXXZ 1006af20 f   nihilanth.obj
 0001:00069fd0       ?DeathSound@CNihilanth@@UAEXXZ 1006afd0 f   nihilanth.obj
 0001:0006a010       ?StartupUse@CNihilanth@@QAEXPAVCBaseEntity@@0W4USE_TYPE@@M@Z 1006b010 f   nihilanth.obj
 0001:0006a030       ?StartupThink@CNihilanth@@QAEXXZ 1006b030 f   nihilanth.obj
 0001:0006a0f0       ?Killed@CNihilanth@@UAEXPAUentvars_s@@H@Z 1006b0f0 f   nihilanth.obj
 0001:0006a110       ?DyingThink@CNihilanth@@QAEXXZ 1006b110 f   nihilanth.obj
 0001:0006a860       ?CrashTouch@CNihilanth@@QAEXPAVCBaseEntity@@@Z 1006b860 f   nihilanth.obj
 0001:0006a890       ?FloatSequence@CNihilanth@@QAEXXZ 1006b890 f   nihilanth.obj
 0001:0006a970       ?ShootBalls@CNihilanth@@QAEXXZ 1006b970 f   nihilanth.obj
 0001:0006ae40       ?MakeFriend@CNihilanth@@QAEXVVector@@@Z 1006be40 f   nihilanth.obj
 0001:0006b060       ?NextActivity@CNihilanth@@QAEXXZ 1006c060 f   nihilanth.obj
 0001:0006b770       ?HuntThink@CNihilanth@@QAEXXZ 1006c770 f   nihilanth.obj
 0001:0006ba40       ?Flight@CNihilanth@@QAEXXZ 1006ca40 f   nihilanth.obj
 0001:0006bd70       ?AbsorbSphere@CNihilanth@@QAEHXZ 1006cd70 f   nihilanth.obj
 0001:0006bdd0       ?EmitSphere@CNihilanth@@QAEHXZ 1006cdd0 f   nihilanth.obj
 0001:0006bed0       ?HandleAnimEvent@CNihilanth@@UAEXPAUMonsterEvent_t@@@Z 1006ced0 f   nihilanth.obj
 0001:0006c520       ?CommandUse@CNihilanth@@QAEXPAVCBaseEntity@@0W4USE_TYPE@@M@Z 1006d520 f   nihilanth.obj
 0001:0006c590       ?TakeDamage@CNihilanth@@UAEHPAUentvars_s@@0MH@Z 1006d590 f   nihilanth.obj
 0001:0006c600       ?TraceAttack@CNihilanth@@UAEXPAUentvars_s@@MVVector@@PAUTraceResult@@H@Z 1006d600 f   nihilanth.obj
 0001:0006c730       ?Spawn@CNihilanthHVR@@UAEXXZ 1006d730 f   nihilanth.obj
 0001:0006c770       ?Precache@CNihilanthHVR@@UAEXXZ 1006d770 f   nihilanth.obj
 0001:0006c7f0       ?CircleInit@CNihilanthHVR@@QAEXPAVCBaseEntity@@@Z 1006d7f0 f   nihilanth.obj
 0001:0006c900       ?HoverThink@CNihilanthHVR@@QAEXXZ 1006d900 f   nihilanth.obj
 0001:0006c9b0       ?ZapInit@CNihilanthHVR@@QAEXPAVCBaseEntity@@@Z 1006d9b0 f   nihilanth.obj
 0001:0006cb40       ?ZapThink@CNihilanthHVR@@QAEXXZ 1006db40 f   nihilanth.obj
 0001:0006cf50       ?ZapTouch@CNihilanthHVR@@QAEXPAVCBaseEntity@@@Z 1006df50 f   nihilanth.obj
 0001:0006d000       ?TeleportInit@CNihilanthHVR@@QAEXPAVCNihilanth@@PAVCBaseEntity@@11@Z 1006e000 f   nihilanth.obj
 0001:0006d0f0       ?GreenBallInit@CNihilanthHVR@@QAEXXZ 1006e0f0 f   nihilanth.obj
 0001:0006d160       ?TeleportThink@CNihilanthHVR@@QAEXXZ 1006e160 f   nihilanth.obj
 0001:0006d420       ?AbsorbInit@CNihilanthHVR@@QAEXXZ 1006e420 f   nihilanth.obj
 0001:0006d500       ?TeleportTouch@CNihilanthHVR@@QAEXPAVCBaseEntity@@@Z 1006e500 f   nihilanth.obj
 0001:0006d5d0       ?DissipateThink@CNihilanthHVR@@QAEXXZ 1006e5d0 f   nihilanth.obj
 0001:0006d730       ?CircleTarget@CNihilanthHVR@@QAEHVVector@@@Z 1006e730 f   nihilanth.obj
 0001:0006dc10       ?MovetoTarget@CNihilanthHVR@@QAEXVVector@@@Z 1006ec10 f   nihilanth.obj
 0001:0006de40       ?Crawl@CNihilanthHVR@@UAEXXZ 1006ee40 f   nihilanth.obj
 0001:0006e040       ?RemoveTouch@CNihilanthHVR@@QAEXPAVCBaseEntity@@@Z 1006f040 f   nihilanth.obj
 0001:0006e070       ?BounceTouch@CNihilanthHVR@@QAEXPAVCBaseEntity@@@Z 1006f070 f   nihilanth.obj
 0001:0006e1e0       _info_node_air             1006f1e0 f   nodes.obj
 0001:0006e1e0       _info_node                 1006f1e0 f   nodes.obj
 0001:0006e230       ?InitGraph@CGraph@@QAEXXZ  1006f230 f   nodes.obj
 0001:0006e2c0       ?AllocNodes@CGraph@@QAEHXZ 1006f2c0 f   nodes.obj
 0001:0006e300       ?HandleLinkEnt@CGraph@@QAEHHPAUentvars_s@@HW4NODEQUERY@1@@Z 1006f300 f   nodes.obj
 0001:0006e500       ?HullIndex@CGraph@@QAEHPBVCBaseEntity@@@Z 1006f500 f   nodes.obj
 0001:0006e5b0       ?NodeType@CGraph@@QAEHPBVCBaseEntity@@@Z 1006f5b0 f   nodes.obj
 0001:0006e5f0       ?PathLength@CGraph@@QAEMHHHH@Z 1006f5f0 f   nodes.obj
 0001:0006e6d0       ?NextNodeInRoute@CGraph@@QAEHHHHH@Z 1006f6d0 f   nodes.obj
 0001:0006e760       ?FindShortestPath@CGraph@@QAEHPAHHHHH@Z 1006f760 f   nodes.obj
 0001:0006ead0       ?CheckNode@CGraph@@QAEXVVector@@H@Z 1006fad0 f   nodes.obj
 0001:0006ee20       ?CalcBounds@@YAXAAH0HH@Z   1006fe20 f i nodes.obj
 0001:0006ee70       ?FindNearestNode@CGraph@@QAEHABVVector@@PAVCBaseEntity@@@Z 1006fe70 f   nodes.obj
 0001:0006ee90       ?FindNearestNode@CGraph@@QAEHABVVector@@H@Z 1006fe90 f   nodes.obj
 0001:0006f4a0       ?ShowNodeConnections@CGraph@@QAEXH@Z 100704a0 f   nodes.obj
 0001:0006f610       ?LinkVisibleNodes@CGraph@@QAEHPAVCLink@@PAU_iobuf@@PAH@Z 10070610 f   nodes.obj
 0001:0006fa60       ?RejectInlineLinks@CGraph@@QAEHPAVCLink@@PAU_iobuf@@@Z 10070a60 f   nodes.obj
 0001:0006fd20       _testhull                  10070d20 f   nodes.obj
 0001:0006fd80       ?Spawn@CTestHull@@QAEXPAUentvars_s@@@Z 10070d80 f   nodes.obj
 0001:0006fe80       ?DropDelay@CTestHull@@QAEXXZ 10070e80 f   nodes.obj
 0001:0006fec0       ?KeyValue@CNodeEnt@@EAEXPAUKeyValueData_s@@@Z 10070ec0 f   nodes.obj
 0001:00070090       ?Spawn@CNodeEnt@@EAEXXZ    10071090 f   nodes.obj
 0001:00070290       ?ShowBadNode@CTestHull@@QAEXXZ 10071290 f   nodes.obj
 0001:00070470       ?CallBuildNodeGraph@CTestHull@@QAEXXZ 10071470 f   nodes.obj
 0001:00070490       ?BuildNodeGraph@CTestHull@@QAEXXZ 10071490 f   nodes.obj
 0001:000712b0       ?PathFind@CTestHull@@QAEXXZ 100722b0 f   nodes.obj
 0001:000713e0       ??0CQueuePriority@@QAE@XZ  100723e0 f   nodes.obj
 0001:000713f0       ?Insert@CQueuePriority@@QAEXHM@Z 100723f0 f   nodes.obj
 0001:00071430       ?Remove@CQueuePriority@@QAEHAAM@Z 10072430 f   nodes.obj
 0001:00071460       ?Heap_SiftDown@CQueuePriority@@AAEXH@Z 10072460 f   nodes.obj
 0001:000714e0       ?Heap_SiftUp@CQueuePriority@@AAEXXZ 100724e0 f   nodes.obj
 0001:00071530       ?FLoadGraph@CGraph@@QAEHPAD@Z 10072530 f   nodes.obj
 0001:00071950       ?FSaveGraph@CGraph@@QAEHPAD@Z 10072950 f   nodes.obj
 0001:00071ba0       ?FSetGraphPointers@CGraph@@QAEHXZ 10072ba0 f   nodes.obj
 0001:00071c60       ?CheckNODFile@CGraph@@QAEHPAD@Z 10072c60 f   nodes.obj
 0001:00071dd0       ?HashInsert@CGraph@@QAEXHHH@Z 10072dd0 f   nodes.obj
 0001:00071e80       ?HashSearch@CGraph@@QAEXHHAAH@Z 10072e80 f   nodes.obj
 0001:00071f80       ?HashChoosePrimes@CGraph@@QAEXH@Z 10072f80 f   nodes.obj
 0001:00072080       ?SortNodes@CGraph@@QAEXXZ  10073080 f   nodes.obj
 0001:00072290       ?BuildLinkLookups@CGraph@@QAEXXZ 10073290 f   nodes.obj
 0001:00072330       ?BuildRegionTables@CGraph@@QAEXXZ 10073330 f   nodes.obj
 0001:000727c0       ?ComputeStaticRoutingTables@CGraph@@QAEXXZ 100737c0 f   nodes.obj
 0001:00072db0       _node_viewer               10073db0 f   nodes.obj
 0001:00072db0       _node_viewer_human         10073db0 f   nodes.obj
 0001:00072db0       _node_viewer_fly           10073db0 f   nodes.obj
 0001:00072db0       _node_viewer_large         10073db0 f   nodes.obj
 0001:00072e00       ?Spawn@CNodeViewer@@UAEXXZ 10073e00 f   nodes.obj
 0001:000730c0       ?FindNodeConnections@CNodeViewer@@QAEXH@Z 100740c0 f   nodes.obj
 0001:00073160       ?AddNode@CNodeViewer@@QAEXHH@Z 10074160 f   nodes.obj
 0001:000731d0       ?DrawThink@CNodeViewer@@QAEXXZ 100741d0 f   nodes.obj
 0001:000733a0       _monster_osprey            100743a0 f   osprey.obj
 0001:00073410       ?Save@COsprey@@UAEHAAVCSave@@@Z 10074410 f   osprey.obj
 0001:00073480       ?Restore@COsprey@@UAEHAAVCRestore@@@Z 10074480 f   osprey.obj
 0001:000734b0       ?Spawn@COsprey@@UAEXXZ     100744b0 f   osprey.obj
 0001:00073670       ?Precache@COsprey@@UAEXXZ  10074670 f   osprey.obj
 0001:00073730       ?CommandUse@COsprey@@QAEXPAVCBaseEntity@@0W4USE_TYPE@@M@Z 10074730 f   osprey.obj
 0001:00073740       ?FindAllThink@COsprey@@QAEXXZ 10074740 f   osprey.obj
 0001:00073800       ?DeployThink@COsprey@@QAEXXZ 10074800 f   osprey.obj
 0001:00073d00       ?HasDead@COsprey@@QAEHXZ   10074d00 f   osprey.obj
 0001:00073d80       ?MakeGrunt@COsprey@@QAEPAVCBaseMonster@@VVector@@@Z 10074d80 f   osprey.obj
 0001:00073fd0       ?HoverThink@COsprey@@QAEXXZ 10074fd0 f   osprey.obj
 0001:00074070       ?UpdateGoal@COsprey@@QAEXXZ 10075070 f   osprey.obj
 0001:000742d0       ?FlyThink@COsprey@@QAEXXZ  100752d0 f   osprey.obj
 0001:000743e0       ?Flight@COsprey@@QAEXXZ    100753e0 f   osprey.obj
 0001:000748f0       ?DotProduct@@YAMABVVector@@0@Z 100758f0 f i osprey.obj
 0001:00074910       ?HitTouch@COsprey@@QAEXPAVCBaseEntity@@@Z 10075910 f   osprey.obj
 0001:00074920       ?Killed@COsprey@@UAEXPAUentvars_s@@H@Z 10075920 f   osprey.obj
 0001:00074a70       ?CrashTouch@COsprey@@QAEXPAVCBaseEntity@@@Z 10075a70 f   osprey.obj
 0001:00074ad0       ?DyingThink@COsprey@@QAEXXZ 10075ad0 f   osprey.obj
 0001:000751c0       ?ShowDamage@COsprey@@QAEXXZ 100761c0 f   osprey.obj
 0001:000753c0       ?TraceAttack@COsprey@@UAEXPAUentvars_s@@MVVector@@PAUTraceResult@@H@Z 100763c0 f   osprey.obj
 0001:000754b0       _weapon_ak74               100764b0 f   paranoia_ak47.obj
 0001:00075510       ?Spawn@CAK47@@UAEXXZ       10076510 f   paranoia_ak47.obj
 0001:00075570       ?Precache@CAK47@@UAEXXZ    10076570 f   paranoia_ak47.obj
 0001:000755f0       ?GetItemInfo@CAK47@@UAEHPAUItemInfo@@@Z 100765f0 f   paranoia_ak47.obj
 0001:00075660       ?Deploy@CAK47@@UAEHXZ      10076660 f   paranoia_ak47.obj
 0001:00075690       ?Attack1@CAK47@@UAEXXZ     10076690 f   paranoia_ak47.obj
 0001:000758d0       ?Attack2@CAK47@@UAEXXZ     100768d0 f   paranoia_ak47.obj
 0001:00075b10       ?Reload1@CAKS@@UAEXXZ      10076b10 f   paranoia_ak47.obj
 0001:00075b10       ?Reload1@CAK47@@UAEXXZ     10076b10 f   paranoia_ak47.obj
 0001:00075b40       ?Reload2@CAK47@@UAEXXZ     10076b40 f   paranoia_ak47.obj
 0001:00075b40       ?Reload2@CAKS@@UAEXXZ      10076b40 f   paranoia_ak47.obj
 0001:00075b70       ?ChangeModeTo1@CAKS@@UAEHXZ 10076b70 f   paranoia_ak47.obj
 0001:00075b70       ?ChangeModeTo1@CAK47@@UAEHXZ 10076b70 f   paranoia_ak47.obj
 0001:00075ba0       ?ChangeModeTo2@CAK47@@UAEHXZ 10076ba0 f   paranoia_ak47.obj
 0001:00075ba0       ?ChangeModeTo2@CAKS@@UAEHXZ 10076ba0 f   paranoia_ak47.obj
 0001:00075bd0       _ammo_ak74                 10076bd0 f   paranoia_ak47.obj
 0001:00075c20       ?Spawn@CAK74AmmoClip@@EAEXXZ 10076c20 f i paranoia_ak47.obj
 0001:00075c50       ?Precache@CAK74AmmoClip@@EAEXXZ 10076c50 f i paranoia_ak47.obj
 0001:00075c70       ?AddAmmo@CAK74AmmoClip@@EAEHPAVCBaseEntity@@@Z 10076c70 f i paranoia_ak47.obj
 0001:00075c70       ?AddAmmo@CAksAmmoClip@@EAEHPAVCBaseEntity@@@Z 10076c70 f i paranoia_ak47.obj
 0001:00075cd0       _ammo_ak74box              10076cd0 f   paranoia_ak47.obj
 0001:00075d20       ?Spawn@CAK74AmmoBox@@EAEXXZ 10076d20 f i paranoia_ak47.obj
 0001:00075d50       ?Precache@CAK74AmmoBox@@EAEXXZ 10076d50 f i paranoia_ak47.obj
 0001:00075d70       ?AddAmmo@CAK74AmmoBox@@EAEHPAVCBaseEntity@@@Z 10076d70 f i paranoia_ak47.obj
 0001:00075d70       ?AddAmmo@CAksAmmoBox@@EAEHPAVCBaseEntity@@@Z 10076d70 f i paranoia_ak47.obj
 0001:00075dd0       _weapon_aks                10076dd0 f   paranoia_aks.obj
 0001:00075e30       ?Spawn@CAKS@@UAEXXZ        10076e30 f   paranoia_aks.obj
 0001:00075e90       ?Precache@CAKS@@UAEXXZ     10076e90 f   paranoia_aks.obj
 0001:00075f20       ?GetItemInfo@CAKS@@UAEHPAUItemInfo@@@Z 10076f20 f   paranoia_aks.obj
 0001:00075f90       ?Deploy@CAKS@@UAEHXZ       10076f90 f   paranoia_aks.obj
 0001:00075fc0       ?Attack1@CAKS@@UAEXXZ      10076fc0 f   paranoia_aks.obj
 0001:00076200       ?Attack2@CAKS@@UAEXXZ      10077200 f   paranoia_aks.obj
 0001:00076440       ?Idle2@CAK47@@UAEXXZ       10077440 f   paranoia_aks.obj
 0001:00076440       ?Idle2@CAKS@@UAEXXZ        10077440 f   paranoia_aks.obj
 0001:00076470       _ammo_aks                  10077470 f   paranoia_aks.obj
 0001:000764c0       ?Spawn@CAksAmmoClip@@EAEXXZ 100774c0 f i paranoia_aks.obj
 0001:000764f0       ?Precache@CAksAmmoClip@@EAEXXZ 100774f0 f i paranoia_aks.obj
 0001:00076510       _ammo_aksbox               10077510 f   paranoia_aks.obj
 0001:00076560       ?Spawn@CAksAmmoBox@@EAEXXZ 10077560 f i paranoia_aks.obj
 0001:00076590       ?Precache@CAksAmmoBox@@EAEXXZ 10077590 f i paranoia_aks.obj
 0001:000765b0       _weapon_aps                100775b0 f   paranoia_aps.obj
 0001:00076610       ?Spawn@CAPS@@UAEXXZ        10077610 f   paranoia_aps.obj
 0001:00076670       ?Precache@CAPS@@UAEXXZ     10077670 f   paranoia_aps.obj
 0001:000766e0       ?GetItemInfo@CAPS@@UAEHPAUItemInfo@@@Z 100776e0 f   paranoia_aps.obj
 0001:00076750       ?Deploy@CAPS@@UAEHXZ       10077750 f   paranoia_aps.obj
 0001:00076780       ?Attack1@CAPS@@UAEXXZ      10077780 f   paranoia_aps.obj
 0001:000769c0       ?Attack2@CAPS@@UAEXXZ      100779c0 f   paranoia_aps.obj
 0001:00076c00       ?Reload1@CAPS@@UAEXXZ      10077c00 f   paranoia_aps.obj
 0001:00076c30       ?Reload2@CAPS@@UAEXXZ      10077c30 f   paranoia_aps.obj
 0001:00076c60       ?ChangeModeTo1@CGlock@@UAEHXZ 10077c60 f   paranoia_aps.obj
 0001:00076c60       ?ChangeModeTo1@CAPS@@UAEHXZ 10077c60 f   paranoia_aps.obj
 0001:00076c90       ?ChangeModeTo2@CAPS@@UAEHXZ 10077c90 f   paranoia_aps.obj
 0001:00076c90       ?ChangeModeTo2@CGlock@@UAEHXZ 10077c90 f   paranoia_aps.obj
 0001:00076cc0       _ammo_aps                  10077cc0 f   paranoia_aps.obj
 0001:00076d10       ?Spawn@CApsAmmoClip@@EAEXXZ 10077d10 f i paranoia_aps.obj
 0001:00076d40       ?Precache@CApsAmmoClip@@EAEXXZ 10077d40 f i paranoia_aps.obj
 0001:00076d60       ?AddAmmo@CApsAmmoClip@@EAEHPAVCBaseEntity@@@Z 10077d60 f i paranoia_aps.obj
 0001:00076dc0       _ammo_apsbox               10077dc0 f   paranoia_aps.obj
 0001:00076e10       ?Spawn@CApsAmmoBox@@EAEXXZ 10077e10 f i paranoia_aps.obj
 0001:00076e40       ?Precache@CApsAmmoBox@@EAEXXZ 10077e40 f i paranoia_aps.obj
 0001:00076e60       ?AddAmmo@CApsAmmoBox@@EAEHPAVCBaseEntity@@@Z 10077e60 f i paranoia_aps.obj
 0001:00076ec0       _weapon_9mmhandgun         10077ec0 f   paranoia_glock.obj
 0001:00076ec0       _weapon_glock              10077ec0 f   paranoia_glock.obj
 0001:00076f20       ?Spawn@CGlock@@UAEXXZ      10077f20 f   paranoia_glock.obj
 0001:00076f80       ?Precache@CGlock@@UAEXXZ   10077f80 f   paranoia_glock.obj
 0001:00076ff0       ?GetItemInfo@CGlock@@UAEHPAUItemInfo@@@Z 10077ff0 f   paranoia_glock.obj
 0001:00077060       ?Deploy@CGlock@@UAEHXZ     10078060 f   paranoia_glock.obj
 0001:00077090       ?Attack1@CGlock@@UAEXXZ    10078090 f   paranoia_glock.obj
 0001:000772d0       ?Attack2@CGlock@@UAEXXZ    100782d0 f   paranoia_glock.obj
 0001:00077510       ?Reload1@CGlock@@UAEXXZ    10078510 f   paranoia_glock.obj
 0001:00077540       ?Reload2@CGlock@@UAEXXZ    10078540 f   paranoia_glock.obj
 0001:00077570       ?Idle2@CGlock@@UAEXXZ      10078570 f   paranoia_glock.obj
 0001:00077570       ?Idle2@CAPS@@UAEXXZ        10078570 f   paranoia_glock.obj
 0001:000775a0       _ammo_glock                100785a0 f   paranoia_glock.obj
 0001:000775a0       _ammo_9mmclip              100785a0 f   paranoia_glock.obj
 0001:000775f0       ?Spawn@CGlockAmmo@@EAEXXZ  100785f0 f i paranoia_glock.obj
 0001:00077620       ?Precache@CGlockAmmo@@EAEXXZ 10078620 f i paranoia_glock.obj
 0001:00077640       ?AddAmmo@CGlockAmmo@@EAEHPAVCBaseEntity@@@Z 10078640 f i paranoia_glock.obj
 0001:000776a0       _ammo_glockbox             100786a0 f   paranoia_glock.obj
 0001:000776f0       ?Spawn@CGlockBox@@EAEXXZ   100786f0 f i paranoia_glock.obj
 0001:00077720       ?Precache@CGlockBox@@EAEXXZ 10078720 f i paranoia_glock.obj
 0001:00077740       ?AddAmmo@CGlockBox@@EAEHPAVCBaseEntity@@@Z 10078740 f i paranoia_glock.obj
 0001:000777a0       _weapon_groza              100787a0 f   paranoia_groza.obj
 0001:00077800       ?iItemSlot@CEgon@@UAEHXZ   10078800 f i paranoia_groza.obj
 0001:00077800       ?iItemSlot@CVAL@@UAEHXZ    10078800 f i paranoia_groza.obj
 0001:00077800       ?iItemSlot@CRPK@@UAEHXZ    10078800 f i paranoia_groza.obj
 0001:00077800       ?iItemSlot@CHgun@@UAEHXZ   10078800 f i paranoia_groza.obj
 0001:00077800       ?iItemSlot@CRpg@@UAEHXZ    10078800 f i paranoia_groza.obj
 0001:00077800       ?iItemSlot@CGroza@@UAEHXZ  10078800 f i paranoia_groza.obj
 0001:00077800       ?iItemSlot@CGauss@@UAEHXZ  10078800 f i paranoia_groza.obj
 0001:00077800       ?Classify@CDeadHEV@@UAEHXZ 10078800 f i paranoia_groza.obj
 0001:00077800       ?Classify@CDeadHGrunt@@UAEHXZ 10078800 f i paranoia_groza.obj
 0001:00077810       ?Spawn@CGroza@@UAEXXZ      10078810 f   paranoia_groza.obj
 0001:00077870       ?Precache@CGroza@@UAEXXZ   10078870 f   paranoia_groza.obj
 0001:00077900       ?GetItemInfo@CGroza@@UAEHPAUItemInfo@@@Z 10078900 f   paranoia_groza.obj
 0001:00077970       ?AddToPlayer@CCrossbow@@UAEHPAVCBasePlayer@@@Z 10078970 f   paranoia_groza.obj
 0001:00077970       ?AddToPlayer@CAKS@@UAEHPAVCBasePlayer@@@Z 10078970 f   paranoia_groza.obj
 0001:00077970       ?AddToPlayer@CGauss@@UAEHPAVCBasePlayer@@@Z 10078970 f   paranoia_groza.obj
 0001:00077970       ?AddToPlayer@CRpg@@UAEHPAVCBasePlayer@@@Z 10078970 f   paranoia_groza.obj
 0001:00077970       ?AddToPlayer@CAPS@@UAEHPAVCBasePlayer@@@Z 10078970 f   paranoia_groza.obj
 0001:00077970       ?AddToPlayer@CGroza@@UAEHPAVCBasePlayer@@@Z 10078970 f   paranoia_groza.obj
 0001:00077970       ?AddToPlayer@CMP5@@UAEHPAVCBasePlayer@@@Z 10078970 f   paranoia_groza.obj
 0001:00077970       ?AddToPlayer@CRPK@@UAEHPAVCBasePlayer@@@Z 10078970 f   paranoia_groza.obj
 0001:00077970       ?AddToPlayer@CVAL@@UAEHPAVCBasePlayer@@@Z 10078970 f   paranoia_groza.obj
 0001:00077970       ?AddToPlayer@CGlock@@UAEHPAVCBasePlayer@@@Z 10078970 f   paranoia_groza.obj
 0001:00077970       ?AddToPlayer@CEgon@@UAEHPAVCBasePlayer@@@Z 10078970 f   paranoia_groza.obj
 0001:00077970       ?AddToPlayer@CShotgun@@UAEHPAVCBasePlayer@@@Z 10078970 f   paranoia_groza.obj
 0001:00077970       ?AddToPlayer@CAK47@@UAEHPAVCBasePlayer@@@Z 10078970 f   paranoia_groza.obj
 0001:00077970       ?AddToPlayer@CPython@@UAEHPAVCBasePlayer@@@Z 10078970 f   paranoia_groza.obj
 0001:000779d0       ?Deploy@CGroza@@UAEHXZ     100789d0 f   paranoia_groza.obj
 0001:00077a00       ?GetSpreadVec2@CGroza@@UAE?AVVector@@XZ 10078a00 f   paranoia_groza.obj
 0001:00077a20       ?Attack1@CGroza@@UAEXXZ    10078a20 f   paranoia_groza.obj
 0001:00077c60       ?Attack2@CGroza@@UAEXXZ    10078c60 f   paranoia_groza.obj
 0001:00077e50       ?Reload1@CGroza@@UAEXXZ    10078e50 f   paranoia_groza.obj
 0001:00077e80       ?Reload2@CGroza@@UAEXXZ    10078e80 f   paranoia_groza.obj
 0001:00077ec0       ?Idle1@CGroza@@UAEXXZ      10078ec0 f   paranoia_groza.obj
 0001:00077ec0       ?Idle2@CVAL@@UAEXXZ        10078ec0 f   paranoia_groza.obj
 0001:00077ec0       ?Idle2@CGroza@@UAEXXZ      10078ec0 f   paranoia_groza.obj
 0001:00077ec0       ?Idle1@CGlock@@UAEXXZ      10078ec0 f   paranoia_groza.obj
 0001:00077ec0       ?Idle1@CVAL@@UAEXXZ        10078ec0 f   paranoia_groza.obj
 0001:00077ec0       ?Idle1@CAK47@@UAEXXZ       10078ec0 f   paranoia_groza.obj
 0001:00077ec0       ?Idle1@CAPS@@UAEXXZ        10078ec0 f   paranoia_groza.obj
 0001:00077ec0       ?Idle2@CRPK@@UAEXXZ        10078ec0 f   paranoia_groza.obj
 0001:00077ec0       ?Idle1@CAKS@@UAEXXZ        10078ec0 f   paranoia_groza.obj
 0001:00077ef0       ?ChangeModeTo1@CVAL@@UAEHXZ 10078ef0 f   paranoia_groza.obj
 0001:00077ef0       ?ChangeModeTo1@CGroza@@UAEHXZ 10078ef0 f   paranoia_groza.obj
 0001:00077f20       ?Holster@CVAL@@UAEXH@Z     10078f20 f   paranoia_groza.obj
 0001:00077f20       ?Holster@CGroza@@UAEXH@Z   10078f20 f   paranoia_groza.obj
 0001:00077f50       _ammo_groza                10078f50 f   paranoia_groza.obj
 0001:00077fa0       ?Spawn@CGrozaAmmoClip@@EAEXXZ 10078fa0 f i paranoia_groza.obj
 0001:00077fd0       ?Precache@CGrozaAmmoClip@@EAEXXZ 10078fd0 f i paranoia_groza.obj
 0001:00077ff0       ?AddAmmo@CGrozaAmmoClip@@EAEHPAVCBaseEntity@@@Z 10078ff0 f i paranoia_groza.obj
 0001:00078050       _ammo_grozabox             10079050 f   paranoia_groza.obj
 0001:000780a0       ?Spawn@CGrozaAmmoBox@@EAEXXZ 100790a0 f i paranoia_groza.obj
 0001:000780d0       ?Precache@CGrozaAmmoBox@@EAEXXZ 100790d0 f i paranoia_groza.obj
 0001:000780f0       ?AddAmmo@CGrozaAmmoBox@@EAEHPAVCBaseEntity@@@Z 100790f0 f i paranoia_groza.obj
 0001:00078150       _monster_human_military    10079150 f   paranoia_military.obj
 0001:000781b0       ?SetEyePosition@CMilitary@@UAEXXZ 100791b0 f i paranoia_military.obj
 0001:00078260       ?Save@CMilitary@@UAEHAAVCSave@@@Z 10079260 f   paranoia_military.obj
 0001:000782d0       ?Restore@CMilitary@@UAEHAAVCRestore@@@Z 100792d0 f   paranoia_military.obj
 0001:00078300       ?BlockedByPlayer@CMilitary@@UAEXPAVCBasePlayer@@@Z 10079300 f   paranoia_military.obj
 0001:000783c0       ?TalkAboutDeadFriend@CMilitary@@UAEXPAVCTalkMonster@@@Z 100793c0 f   paranoia_military.obj
 0001:000784e0       ?GetEnemy@CMilitary@@UAEHXZ 100794e0 f   paranoia_military.obj
 0001:00078680       ?SpeakSentence@CMilitary@@QAEXXZ 10079680 f   paranoia_military.obj
 0001:000786d0       ?GibMonster@CMilitary@@UAEXXZ 100796d0 f   paranoia_military.obj
 0001:000788c0       ?FOkToSpeak@CMilitary@@UAEHXZ 100798c0 f   paranoia_military.obj
 0001:00078960       ?JustSpoke@CMilitary@@QAEXXZ 10079960 f   paranoia_military.obj
 0001:00078990       ?FCanCheckAttacks@CMilitary@@UAEHXZ 10079990 f   paranoia_military.obj
 0001:00078990       ?FCanCheckAttacks@CHGrunt@@UAEHXZ 10079990 f   paranoia_military.obj
 0001:00078990       ?FCanCheckAttacks@CAGrunt@@UAEHXZ 10079990 f   paranoia_military.obj
 0001:000789a0       ?CheckMeleeAttack1@CMilitary@@UAEHMM@Z 100799a0 f   paranoia_military.obj
 0001:00078a20       ?NoFriendlyFire@CMilitary@@QAEHXZ 10079a20 f   paranoia_military.obj
 0001:00078d90       ?CheckRangeAttack1@CMilitary@@UAEHMM@Z 10079d90 f   paranoia_military.obj
 0001:00078ff0       ?CheckRangeAttack2@CMilitary@@UAEHMM@Z 10079ff0 f   paranoia_military.obj
 0001:00079350       ?TakeDamage@CMilitary@@UAEHPAUentvars_s@@0MH@Z 1007a350 f   paranoia_military.obj
 0001:000793a0       ?SetYawSpeed@CMilitary@@UAEXXZ 1007a3a0 f   paranoia_military.obj
 0001:00079480       ?CheckAmmo@CHGrunt@@UAEXXZ 1007a480 f   paranoia_military.obj
 0001:00079480       ?CheckAmmo@CMilitary@@UAEXXZ 1007a480 f   paranoia_military.obj
 0001:000794a0       ?Classify@CGenericMonster@@UAEHXZ 1007a4a0 f   paranoia_military.obj
 0001:000794a0       ?Classify@CMilitary@@UAEHXZ 1007a4a0 f   paranoia_military.obj
 0001:000794a0       ?Classify@CBarney@@UAEHXZ  1007a4a0 f   paranoia_military.obj
 0001:000794b0       ?Kick@CMilitary@@QAEPAVCBaseEntity@@XZ 1007a4b0 f   paranoia_military.obj
 0001:00079570       ?GetGunPosition@CMilitary@@UAE?AVVector@@XZ 1007a570 f   paranoia_military.obj
 0001:000795c0       ?Shoot@CMilitary@@UAEXXZ   1007a5c0 f   paranoia_military.obj
 0001:000797a0       ?HandleAnimEvent@CMilitary@@UAEXPAUMonsterEvent_t@@@Z 1007a7a0 f   paranoia_military.obj
 0001:00079e50       ?Spawn@CMilitary@@UAEXXZ   1007ae50 f   paranoia_military.obj
 0001:0007a030       ?Precache@CMilitary@@UAEXXZ 1007b030 f   paranoia_military.obj
 0001:0007a150       ?TalkInit@CMilitary@@QAEXXZ 1007b150 f   paranoia_military.obj
 0001:0007a270       ?DeclineFollowing@CBarney@@UAEXXZ 1007b270 f   paranoia_military.obj
 0001:0007a270       ?DeclineFollowing@CMilitary@@UAEXXZ 1007b270 f   paranoia_military.obj
 0001:0007a290       ?StartTask@CMilitary@@UAEXPAUTask_t@@@Z 1007b290 f   paranoia_military.obj
 0001:0007a3b0       ?RunTask@CMilitary@@UAEXPAUTask_t@@@Z 1007b3b0 f   paranoia_military.obj
 0001:0007a450       ?PainSound@CMilitary@@UAEXXZ 1007b450 f   paranoia_military.obj
 0001:0007a560       ?DeathSound@CMilitary@@UAEXXZ 1007b560 f   paranoia_military.obj
 0001:0007a600       ?ScheduleFromName@CMilitary@@UAEPAUSchedule_t@@PBD@Z 1007b600 f   paranoia_military.obj
 0001:0007a630       ?SetActivity@CMilitary@@UAEXW4Activity@@@Z 1007b630 f   paranoia_military.obj
 0001:0007a7d0       ?GetSchedule@CMilitary@@UAEPAUSchedule_t@@XZ 1007b7d0 f   paranoia_military.obj
 0001:0007add0       ?GetScheduleOfType@CMilitary@@UAEPAUSchedule_t@@H@Z 1007bdd0 f   paranoia_military.obj
 0001:0007b0a0       _monster_military_repel    1007c0a0 f   paranoia_military.obj
 0001:0007b100       ?Spawn@CMilitaryRepel@@UAEXXZ 1007c100 f   paranoia_military.obj
 0001:0007b120       ?Precache@CMilitaryRepel@@UAEXXZ 1007c120 f   paranoia_military.obj
 0001:0007b150       ?RepelUse@CMilitaryRepel@@QAEXPAVCBaseEntity@@0W4USE_TYPE@@M@Z 1007c150 f   paranoia_military.obj
 0001:0007b2f0       _monster_military_dead     1007c2f0 f   paranoia_military.obj
 0001:0007b350       ?Classify@CDeadBarney@@UAEHXZ 1007c350 f i paranoia_military.obj
 0001:0007b350       ?Classify@CDeadGenericMonster@@UAEHXZ 1007c350 f i paranoia_military.obj
 0001:0007b350       ?Classify@CDeadMilitary@@UAEHXZ 1007c350 f i paranoia_military.obj
 0001:0007b360       ?Spawn@CDeadMilitary@@UAEXXZ 1007c360 f   paranoia_military.obj
 0001:0007b420       _monster_human_alpha       1007c420 f   paranoia_military.obj
 0001:0007b480       ?Save@CSpetsnaz@@UAEHAAVCSave@@@Z 1007c480 f   paranoia_military.obj
 0001:0007b4f0       ?Restore@CSpetsnaz@@UAEHAAVCRestore@@@Z 1007c4f0 f   paranoia_military.obj
 0001:0007b520       ?KeyValue@CSpetsnaz@@UAEXPAUKeyValueData_s@@@Z 1007c520 f   paranoia_military.obj
 0001:0007b5a0       ?BlockedByPlayer@CSpetsnaz@@UAEXPAVCBasePlayer@@@Z 1007c5a0 f   paranoia_military.obj
 0001:0007b660       ?TalkAboutDeadFriend@CSpetsnaz@@UAEXPAVCTalkMonster@@@Z 1007c660 f   paranoia_military.obj
 0001:0007b7b0       ?Spawn@CSpetsnaz@@UAEXXZ   1007c7b0 f   paranoia_military.obj
 0001:0007b990       ?Precache@CSpetsnaz@@UAEXXZ 1007c990 f   paranoia_military.obj
 0001:0007bb50       ?TalkInit@CSpetsnaz@@QAEXXZ 1007cb50 f   paranoia_military.obj
 0001:0007bc70       ?PainSound@CSpetsnaz@@UAEXXZ 1007cc70 f   paranoia_military.obj
 0001:0007bd80       ?DeathSound@CSpetsnaz@@UAEXXZ 1007cd80 f   paranoia_military.obj
 0001:0007be20       ?Shoot@CSpetsnaz@@UAEXXZ   1007ce20 f   paranoia_military.obj
 0001:0007c230       ?TraceAttack@CSpetsnaz@@UAEXPAUentvars_s@@MVVector@@PAUTraceResult@@H@Z 1007d230 f   paranoia_military.obj
 0001:0007c2c0       ?TakeDamage@CSpetsnaz@@UAEHPAUentvars_s@@0MH@Z 1007d2c0 f   paranoia_military.obj
 0001:0007c2f0       ?CheckRangeAttack2@CSpetsnaz@@UAEHMM@Z 1007d2f0 f   paranoia_military.obj
 0001:0007c640       ?GibMonster@CSpetsnaz@@UAEXXZ 1007d640 f   paranoia_military.obj
 0001:0007c880       ?HandleAnimEvent@CSpetsnaz@@UAEXPAUMonsterEvent_t@@@Z 1007d880 f   paranoia_military.obj
 0001:0007ca50       ?GetSchedule@CSpetsnaz@@UAEPAUSchedule_t@@XZ 1007da50 f   paranoia_military.obj
 0001:0007d030       ?CheckRangeAttack1@CSpetsnaz@@UAEHMM@Z 1007e030 f   paranoia_military.obj
 0001:0007d060       ?RunAI@CSpetsnaz@@UAEXXZ   1007e060 f   paranoia_military.obj
 0001:0007d0e0       ?RunTask@CSpetsnaz@@UAEXPAUTask_t@@@Z 1007e0e0 f   paranoia_military.obj
 0001:0007d320       ?MonsterDeadThink@CSpetsnaz@@QAEXXZ 1007e320 f   paranoia_military.obj
 0001:0007d330       _monster_alpha_pistol      1007e330 f   paranoia_military.obj
 0001:0007d3b0       ?Spawn@CSpetsnazAPS@@UAEXXZ 1007e3b0 f   paranoia_military.obj
 0001:0007d550       ?Precache@CSpetsnazAPS@@UAEXXZ 1007e550 f   paranoia_military.obj
 0001:0007d690       ?CheckRangeAttack1@CSpetsnazAPS@@UAEHMM@Z 1007e690 f   paranoia_military.obj
 0001:0007d6b0       ?GibMonster@CSpetsnazAPS@@UAEXXZ 1007e6b0 f   paranoia_military.obj
 0001:0007d8b0       ?HandleAnimEvent@CSpetsnazAPS@@UAEXPAUMonsterEvent_t@@@Z 1007e8b0 f   paranoia_military.obj
 0001:0007d9a0       ?Shoot@CSpetsnazAPS@@UAEXXZ 1007e9a0 f   paranoia_military.obj
 0001:0007dbc0       ?SetActivity@CSpetsnazAPS@@UAEXW4Activity@@@Z 1007ebc0 f   paranoia_military.obj
 0001:0007dd30       _weapon_rpk                1007ed30 f   paranoia_rpk.obj
 0001:0007dd90       ?Spawn@CRPK@@UAEXXZ        1007ed90 f   paranoia_rpk.obj
 0001:0007ddf0       ?Precache@CRPK@@UAEXXZ     1007edf0 f   paranoia_rpk.obj
 0001:0007de80       ?GetItemInfo@CRPK@@UAEHPAUItemInfo@@@Z 1007ee80 f   paranoia_rpk.obj
 0001:0007def0       ?Deploy@CRPK@@UAEHXZ       1007eef0 f   paranoia_rpk.obj
 0001:0007df20       ?Attack1@CRPK@@UAEXXZ      1007ef20 f   paranoia_rpk.obj
 0001:0007e160       ?Attack2@CRPK@@UAEXXZ      1007f160 f   paranoia_rpk.obj
 0001:0007e3a0       ?Reload1@CRPK@@UAEXXZ      1007f3a0 f   paranoia_rpk.obj
 0001:0007e3d0       ?Reload2@CRPK@@UAEXXZ      1007f3d0 f   paranoia_rpk.obj
 0001:0007e400       ?Idle1@CRPK@@UAEXXZ        1007f400 f   paranoia_rpk.obj
 0001:0007e430       ?ChangeModeTo1@CRPK@@UAEHXZ 1007f430 f   paranoia_rpk.obj
 0001:0007e460       ?ChangeModeTo2@CRPK@@UAEHXZ 1007f460 f   paranoia_rpk.obj
 0001:0007e490       _ammo_rpk                  1007f490 f   paranoia_rpk.obj
 0001:0007e4e0       ?Spawn@CRpkAmmoClip@@EAEXXZ 1007f4e0 f i paranoia_rpk.obj
 0001:0007e510       ?Precache@CRpkAmmoClip@@EAEXXZ 1007f510 f i paranoia_rpk.obj
 0001:0007e530       ?AddAmmo@CRpkAmmoClip@@EAEHPAVCBaseEntity@@@Z 1007f530 f i paranoia_rpk.obj
 0001:0007e590       _ammo_rpkbox               1007f590 f   paranoia_rpk.obj
 0001:0007e5e0       ?Spawn@CRpkAmmoBox@@EAEXXZ 1007f5e0 f i paranoia_rpk.obj
 0001:0007e610       ?Precache@CRpkAmmoBox@@EAEXXZ 1007f610 f i paranoia_rpk.obj
 0001:0007e630       ?AddAmmo@CRpkAmmoBox@@EAEHPAVCBaseEntity@@@Z 1007f630 f i paranoia_rpk.obj
 0001:0007e690       _weapon_shotgun            1007f690 f   paranoia_shotgun.obj
 0001:0007e6f0       ?Save@CShotgun@@UAEHAAVCSave@@@Z 1007f6f0 f   paranoia_shotgun.obj
 0001:0007e760       ?Restore@CShotgun@@UAEHAAVCRestore@@@Z 1007f760 f   paranoia_shotgun.obj
 0001:0007e790       ?Spawn@CShotgun@@UAEXXZ    1007f790 f   paranoia_shotgun.obj
 0001:0007e7d0       ?Precache@CShotgun@@UAEXXZ 1007f7d0 f   paranoia_shotgun.obj
 0001:0007e880       ?GetItemInfo@CShotgun@@UAEHPAUItemInfo@@@Z 1007f880 f   paranoia_shotgun.obj
 0001:0007e8f0       ?Deploy@CShotgun@@UAEHXZ   1007f8f0 f   paranoia_shotgun.obj
 0001:0007e920       ?Attack1@CShotgun@@UAEXXZ  1007f920 f   paranoia_shotgun.obj
 0001:0007eba0       ?Attack2@CShotgun@@UAEXXZ  1007fba0 f   paranoia_shotgun.obj
 0001:0007ee20       ?Reload1@CShotgun@@UAEXXZ  1007fe20 f   paranoia_shotgun.obj
 0001:0007ef20       ?Reload2@CShotgun@@UAEXXZ  1007ff20 f   paranoia_shotgun.obj
 0001:0007f020       ?Idle1@CShotgun@@UAEXXZ    10080020 f   paranoia_shotgun.obj
 0001:0007f260       ?Idle2@CShotgun@@UAEXXZ    10080260 f   paranoia_shotgun.obj
 0001:0007f4a0       ?ChangeModeTo1@CShotgun@@UAEHXZ 100804a0 f   paranoia_shotgun.obj
 0001:0007f4d0       ?ChangeModeTo2@CShotgun@@UAEHXZ 100804d0 f   paranoia_shotgun.obj
 0001:0007f500       _ammo_buckshot             10080500 f   paranoia_shotgun.obj
 0001:0007f550       ?Spawn@CShotgunAmmo@@EAEXXZ 10080550 f i paranoia_shotgun.obj
 0001:0007f580       ?Precache@CShotgunAmmo@@EAEXXZ 10080580 f i paranoia_shotgun.obj
 0001:0007f5a0       ?AddAmmo@CShotgunAmmo@@EAEHPAVCBaseEntity@@@Z 100805a0 f i paranoia_shotgun.obj
 0001:0007f600       _func_machinegun           10080600 f   paranoia_turret.obj
 0001:0007f650       ?ObjectCaps@CFuncMachinegun@@UAEHXZ 10080650 f i paranoia_turret.obj
 0001:0007f660       ?Save@CFuncMachinegun@@UAEHAAVCSave@@@Z 10080660 f   paranoia_turret.obj
 0001:0007f6d0       ?Restore@CFuncMachinegun@@UAEHAAVCRestore@@@Z 100806d0 f   paranoia_turret.obj
 0001:0007f700       ?Precache@CFuncMachinegun@@UAEXXZ 10080700 f   paranoia_turret.obj
 0001:0007f770       ?KeyValue@CFuncMachinegun@@UAEXPAUKeyValueData_s@@@Z 10080770 f   paranoia_turret.obj
 0001:0007f9b0       ?Spawn@CFuncMachinegun@@UAEXXZ 100809b0 f   paranoia_turret.obj
 0001:0007fa70       ?OnControls@CFuncMachinegun@@UAEHPAUentvars_s@@@Z 10080a70 f   paranoia_turret.obj
 0001:0007fb50       ?PostFrame@CFuncMachinegun@@QAEXPAVCBaseEntity@@@Z 10080b50 f   paranoia_turret.obj
 0001:0007fd70       ?UpdateClientData@CFuncMachinegun@@QAEXPAVCBasePlayer@@@Z 10080d70 f   paranoia_turret.obj
 0001:0007fe70       ?Use@CFuncMachinegun@@UAEXPAVCBaseEntity@@0W4USE_TYPE@@M@Z 10080e70 f   paranoia_turret.obj
 0001:0007ffb0       _weapon_val                10080fb0 f   paranoia_val.obj
 0001:00080010       ?Spawn@CVAL@@UAEXXZ        10081010 f   paranoia_val.obj
 0001:00080070       ?Precache@CVAL@@UAEXXZ     10081070 f   paranoia_val.obj
 0001:00080100       ?GetItemInfo@CVAL@@UAEHPAUItemInfo@@@Z 10081100 f   paranoia_val.obj
 0001:00080170       ?Deploy@CVAL@@UAEHXZ       10081170 f   paranoia_val.obj
 0001:000801a0       ?GetSpreadVec2@CVAL@@UAE?AVVector@@XZ 100811a0 f   paranoia_val.obj
 0001:000801c0       ?Attack1@CVAL@@UAEXXZ      100811c0 f   paranoia_val.obj
 0001:00080400       ?Attack2@CVAL@@UAEXXZ      10081400 f   paranoia_val.obj
 0001:000805f0       ?Reload1@CVAL@@UAEXXZ      100815f0 f   paranoia_val.obj
 0001:00080620       ?Reload2@CVAL@@UAEXXZ      10081620 f   paranoia_val.obj
 0001:00080660       ?ChangeModeTo2@CGroza@@UAEHXZ 10081660 f   paranoia_val.obj
 0001:00080660       ?ChangeModeTo2@CVAL@@UAEHXZ 10081660 f   paranoia_val.obj
 0001:000806d0       ?GetMode@CVAL@@UAEHXZ      100816d0 f   paranoia_val.obj
 0001:000806d0       ?GetMode@CGroza@@UAEHXZ    100816d0 f   paranoia_val.obj
 0001:000806f0       _ammo_val                  100816f0 f   paranoia_val.obj
 0001:00080740       ?Spawn@CValAmmoClip@@EAEXXZ 10081740 f i paranoia_val.obj
 0001:00080770       ?Precache@CValAmmoClip@@EAEXXZ 10081770 f i paranoia_val.obj
 0001:00080790       ?AddAmmo@CValAmmoClip@@EAEHPAVCBaseEntity@@@Z 10081790 f i paranoia_val.obj
 0001:000807f0       _ammo_valbox               100817f0 f   paranoia_val.obj
 0001:00080840       ?Spawn@CValAmmoBox@@EAEXXZ 10081840 f i paranoia_val.obj
 0001:00080870       ?Precache@CValAmmoBox@@EAEXXZ 10081870 f i paranoia_val.obj
 0001:00080890       ?AddAmmo@CValAmmoBox@@EAEHPAVCBaseEntity@@@Z 10081890 f i paranoia_val.obj
 0001:00080930       ?GetConeVectorForAngle@@YA?AVVector@@H@Z 10081930 f   paranoia_wpn.obj
 0001:00080ac0       ?DebugListSpreadTable@@YAXXZ 10081ac0 f   paranoia_wpn.obj
 0001:00080ca0       ?LoadSpreadTable@@YAXPAD@Z 10081ca0 f   paranoia_wpn.obj
 0001:00081cd0       ?Save@CBaseSpreadWeapon@@UAEHAAVCSave@@@Z 10082cd0 f   paranoia_wpn.obj
 0001:00081d40       ?Restore@CBaseSpreadWeapon@@UAEHAAVCRestore@@@Z 10082d40 f   paranoia_wpn.obj
 0001:00081d70       ?SetTablePointer@CBaseSpreadWeapon@@QAEXXZ 10082d70 f   paranoia_wpn.obj
 0001:00081e50       ?InitSpread@CBaseSpreadWeapon@@QAEXM@Z 10082e50 f   paranoia_wpn.obj
 0001:00081e70       ?ExpandSpread@CBaseSpreadWeapon@@QAEMM@Z 10082e70 f   paranoia_wpn.obj
 0001:00081ee0       ?CalcSpread@CBaseSpreadWeapon@@QAEMXZ 10082ee0 f   paranoia_wpn.obj
 0001:00081f50       ?PlayerJump@CBaseSpreadWeapon@@UAEXXZ 10082f50 f   paranoia_wpn.obj
 0001:00081f60       ?AdvanceSpread@@YA?AVVector@@AAV1@0M@Z 10082f60 f   paranoia_wpn.obj
 0001:00081fb0       ?EqualizeSpread@@YAXPAMW4spread_equalize@@@Z 10082fb0 f   paranoia_wpn.obj
 0001:00081fe0       ?Save@CBaseToggleWeapon@@UAEHAAVCSave@@@Z 10082fe0 f   paranoia_wpn.obj
 0001:00082050       ?Restore@CBaseToggleWeapon@@UAEHAAVCRestore@@@Z 10083050 f   paranoia_wpn.obj
 0001:00082080       ?InitToggling@CBaseToggleWeapon@@QAEXXZ 10083080 f   paranoia_wpn.obj
 0001:00082120       ?Holster@CBaseToggleWeapon@@UAEXH@Z 10083120 f   paranoia_wpn.obj
 0001:00082160       ?PrimaryAttack@CBaseToggleWeapon@@UAEXXZ 10083160 f   paranoia_wpn.obj
 0001:000821a0       ?Reload@CBaseToggleWeapon@@UAEXXZ 100831a0 f   paranoia_wpn.obj
 0001:000821c0       ?WeaponIdle@CBaseToggleWeapon@@UAEXXZ 100831c0 f   paranoia_wpn.obj
 0001:00082320       ?SecondaryAttack@CBaseToggleWeapon@@UAEXXZ 10083320 f   paranoia_wpn.obj
 0001:00082460       ?GetSpreadVec@CBaseToggleWeapon@@UAE?AVVector@@XZ 10083460 f   paranoia_wpn.obj
 0001:00082490       ?GetSpreadVec1@CBaseToggleWeapon@@UAE?AVVector@@XZ 10083490 f   paranoia_wpn.obj
 0001:00082500       ?GetSpreadVec2@CBaseToggleWeapon@@UAE?AVVector@@XZ 10083500 f   paranoia_wpn.obj
 0001:00082570       ?GetMode@CBaseToggleWeapon@@UAEHXZ 10083570 f   paranoia_wpn.obj
 0001:00082590       ?DefPrimPunch@CBaseSpreadWeapon@@QAEXXZ 10083590 f   paranoia_wpn.obj
 0001:00082610       ?DefSecPunch@CBaseSpreadWeapon@@QAEXXZ 10083610 f   paranoia_wpn.obj
 0001:000826a0       _path_corner               100836a0 f   pathcorner.obj
 0001:000826f0       ?GetDelay@CPathCorner@@UAEMXZ 100836f0 f i pathcorner.obj
 0001:00082700       ?Save@CPathCorner@@UAEHAAVCSave@@@Z 10083700 f   pathcorner.obj
 0001:00082770       ?Restore@CPathCorner@@UAEHAAVCRestore@@@Z 10083770 f   pathcorner.obj
 0001:000827a0       ?KeyValue@CPathCorner@@UAEXPAUKeyValueData_s@@@Z 100837a0 f   pathcorner.obj
 0001:00082980       ?Save@CPathTrack@@UAEHAAVCSave@@@Z 10083980 f   pathcorner.obj
 0001:000829f0       ?Restore@CPathTrack@@UAEHAAVCRestore@@@Z 100839f0 f   pathcorner.obj
 0001:00082a20       _path_track                10083a20 f   pathcorner.obj
 0001:00082a70       ?KeyValue@CPathTrack@@UAEXPAUKeyValueData_s@@@Z 10083a70 f   pathcorner.obj
 0001:00082c50       ?Use@CPathTrack@@UAEXPAVCBaseEntity@@0W4USE_TYPE@@M@Z 10083c50 f   pathcorner.obj
 0001:00082cf0       ?Link@CPathTrack@@QAEXXZ   10083cf0 f   pathcorner.obj
 0001:00082d90       ?Spawn@CPathTrack@@UAEXXZ  10083d90 f   pathcorner.obj
 0001:00082e00       ?Activate@CPathTrack@@UAEXXZ 10083e00 f   pathcorner.obj
 0001:00082e20       ?ValidPath@CPathTrack@@QAEPAV1@PAV1@H@Z 10083e20 f   pathcorner.obj
 0001:00082e50       ?Project@CPathTrack@@QAEXPAV1@0PAVVector@@M@Z 10083e50 f   pathcorner.obj
 0001:00082f50       ?GetNext@CPathTrack@@QAEPAV1@XZ 10083f50 f   pathcorner.obj
 0001:00082f80       ?GetPrevious@CPathTrack@@QAEPAV1@XZ 10083f80 f   pathcorner.obj
 0001:00082fb0       ?SetPrevious@CPathTrack@@QAEXPAV1@@Z 10083fb0 f   pathcorner.obj
 0001:00083020       ?LookAhead@CPathTrack@@QAEPAV1@PAVVector@@MH@Z 10084020 f   pathcorner.obj
 0001:000833e0       ?Nearest@CPathTrack@@QAEPAV1@VVector@@@Z 100843e0 f   pathcorner.obj
 0001:000834b0       ??0CPlane@@QAE@XZ          100844b0 f   plane.obj
 0001:000834c0       ?InitializePlane@CPlane@@QAEXABVVector@@0@Z 100844c0 f   plane.obj
 0001:00083500       ?PointInFront@CPlane@@QAEHABVVector@@@Z 10084500 f   plane.obj
 0001:00083540       ?Save@CBasePlatTrain@@UAEHAAVCSave@@@Z 10084540 f   plats.obj
 0001:000835b0       ?Restore@CBasePlatTrain@@UAEHAAVCRestore@@@Z 100845b0 f   plats.obj
 0001:000835e0       ?KeyValue@CBasePlatTrain@@UAEXPAUKeyValueData_s@@@Z 100845e0 f   plats.obj
 0001:00083910       ?Precache@CBasePlatTrain@@UAEXXZ 10084910 f   plats.obj
 0001:00083ac0       ?CallGoUp@CFuncPlat@@QAEXXZ 10084ac0 f i plats.obj
 0001:00083ad0       ?CallGoDown@CFuncPlat@@QAEXXZ 10084ad0 f i plats.obj
 0001:00083ae0       ?CallHitTop@CFuncPlat@@QAEXXZ 10084ae0 f i plats.obj
 0001:00083af0       _func_plat                 10084af0 f   plats.obj
 0001:00083b40       ?IsTogglePlat@CBasePlatTrain@@UAEHXZ 10084b40 f i plats.obj
 0001:00083b50       ?Setup@CFuncPlat@@QAEXXZ   10084b50 f   plats.obj
 0001:00083d10       ?Precache@CFuncPlat@@UAEXXZ 10084d10 f   plats.obj
 0001:00083d40       ?Spawn@CFuncPlat@@UAEXXZ   10084d40 f   plats.obj
 0001:00083ef0       ?ObjectCaps@CPlatTrigger@@UAEHXZ 10084ef0 f i plats.obj
 0001:00083ef0       ?ObjectCaps@CGib@@UAEHXZ   10084ef0 f i plats.obj
 0001:00083f20       ?SpawnInsideTrigger@CPlatTrigger@@QAEXPAVCFuncPlat@@@Z 10084f20 f   plats.obj
 0001:00084060       ?Touch@CPlatTrigger@@UAEXPAVCBaseEntity@@@Z 10085060 f   plats.obj
 0001:00084100       ?PlatUse@CFuncPlat@@QAEXPAVCBaseEntity@@0W4USE_TYPE@@M@Z 10085100 f   plats.obj
 0001:00084180       ?GoDown@CFuncPlat@@UAEXXZ  10085180 f   plats.obj
 0001:00084200       ?HitBottom@CFuncPlat@@UAEXXZ 10085200 f   plats.obj
 0001:00084290       ?GoUp@CFuncPlat@@UAEXXZ    10085290 f   plats.obj
 0001:00084310       ?HitTop@CFuncPlat@@UAEXXZ  10085310 f   plats.obj
 0001:000843c0       ?Blocked@CFuncPlat@@UAEXPAVCBaseEntity@@@Z 100853c0 f   plats.obj
 0001:00084480       _func_platrot              10085480 f   plats.obj
 0001:000844e0       ?Save@CFuncPlatRot@@UAEHAAVCSave@@@Z 100854e0 f   plats.obj
 0001:00084550       ?Restore@CFuncPlatRot@@UAEHAAVCRestore@@@Z 10085550 f   plats.obj
 0001:00084580       ?KeyValue@CFuncPlatRot@@UAEXPAUKeyValueData_s@@@Z 10085580 f   plats.obj
 0001:00084600       ?SetupRotation@CFuncPlatRot@@QAEXXZ 10085600 f   plats.obj
 0001:00084720       ?Spawn@CFuncPlatRot@@UAEXXZ 10085720 f   plats.obj
 0001:00084740       ?GoDown@CFuncPlatRot@@UAEXXZ 10085740 f   plats.obj
 0001:00084770       ?HitBottom@CFuncPlatRot@@UAEXXZ 10085770 f   plats.obj
 0001:000847d0       ?GoUp@CFuncPlatRot@@UAEXXZ 100857d0 f   plats.obj
 0001:00084800       ?HitTop@CFuncPlatRot@@UAEXXZ 10085800 f   plats.obj
 0001:00084860       ?RotMove@CFuncPlatRot@@QAEXAAVVector@@M@Z 10085860 f   plats.obj
 0001:00084900       _func_train                10085900 f   plats.obj
 0001:00084960       ?GetState@CFuncTrain@@UAE?AW4STATE@@XZ 10085960 f i plats.obj
 0001:00084970       ?Save@CFuncTrain@@UAEHAAVCSave@@@Z 10085970 f   plats.obj
 0001:000849e0       ?Restore@CFuncTrain@@UAEHAAVCRestore@@@Z 100859e0 f   plats.obj
 0001:00084a10       ?KeyValue@CFuncTrain@@UAEXPAUKeyValueData_s@@@Z 10085a10 f   plats.obj
 0001:00084a90       ?Blocked@CFuncTrain@@UAEXPAVCBaseEntity@@@Z 10085a90 f   plats.obj
 0001:00084b10       ?Use@CFuncTrain@@UAEXPAVCBaseEntity@@0W4USE_TYPE@@M@Z 10085b10 f   plats.obj
 0001:00084c40       ?Wait@CFuncTrain@@QAEXXZ   10085c40 f   plats.obj
 0001:00084eb0       ?Next@CFuncTrain@@QAEXXZ   10085eb0 f   plats.obj
 0001:000857b0       ?PostSpawn@CFuncTrain@@UAEXXZ 100867b0 f   plats.obj
 0001:00085b00       ?ThinkDoNext@CFuncTrain@@QAEXXZ 10086b00 f   plats.obj
 0001:00085b30       ?StartSequence@CFuncTrain@@QAEXPAVCTrainSequence@@@Z 10086b30 f   plats.obj
 0001:00085b50       ?StopSequence@CFuncTrain@@QAEXXZ 10086b50 f   plats.obj
 0001:00085b80       ?Spawn@CFuncTrain@@UAEXXZ  10086b80 f   plats.obj
 0001:00085cc0       ?SoundSetup@CFuncTrain@@QAEXXZ 10086cc0 f   plats.obj
 0001:00085d30       ?ThinkCorrection@CFuncTrain@@UAEXXZ 10086d30 f   plats.obj
 0001:00085d70       ?Precache@CFuncTrain@@UAEXXZ 10086d70 f   plats.obj
 0001:00085dc0       ?OverrideReset@CFuncTrain@@UAEXXZ 10086dc0 f   plats.obj
 0001:00085e40       ?Spawn@CFuncTrackTrain@@UAEXXZ 10086e40 f   plats.obj
 0001:00086040       ?Precache@CFuncTrackTrain@@UAEXXZ 10087040 f   plats.obj
 0001:00086190       ?Save@CFuncTrackTrain@@UAEHAAVCSave@@@Z 10087190 f   plats.obj
 0001:00086200       ?Restore@CFuncTrackTrain@@UAEHAAVCRestore@@@Z 10087200 f   plats.obj
 0001:00086230       _func_tracktrain           10087230 f   plats.obj
 0001:00086280       ?ObjectCaps@CFuncTrackTrain@@UAEHXZ 10087280 f i plats.obj
 0001:000862a0       ?KeyValue@CFuncTrackTrain@@UAEXPAUKeyValueData_s@@@Z 100872a0 f   plats.obj
 0001:000866c0       ?NextThink@CFuncTrackTrain@@QAEXMH@Z 100876c0 f   plats.obj
 0001:00086700       ?Blocked@CFuncTrackTrain@@UAEXPAVCBaseEntity@@@Z 10087700 f   plats.obj
 0001:000868c0       ?Use@CFuncTrackTrain@@UAEXPAVCBaseEntity@@0W4USE_TYPE@@M@Z 100878c0 f   plats.obj
 0001:00086ad0       ?StopSound@CFuncTrackTrain@@QAEXXZ 10087ad0 f   plats.obj
 0001:00086bc0       ?UpdateSound@CFuncTrackTrain@@QAEXXZ 10087bc0 f   plats.obj
 0001:00086d70       ?PostponeNext@CFuncTrackTrain@@QAEXXZ 10087d70 f   plats.obj
 0001:00086d80       ?DesiredAction@CFuncTrackTrain@@UAEXXZ 10087d80 f   plats.obj
 0001:00087870       ?DeadEnd@CFuncTrackTrain@@QAEXXZ 10088870 f   plats.obj
 0001:000879c0       ?SetControls@CFuncTrackTrain@@QAEXPAUentvars_s@@@Z 100889c0 f   plats.obj
 0001:00087a70       ?OnControls@CFuncTrackTrain@@UAEHPAUentvars_s@@@Z 10088a70 f   plats.obj
 0001:00087b90       ?Find@CFuncTrackTrain@@QAEXXZ 10088b90 f   plats.obj
 0001:00087d60       ?NearestPath@CFuncTrackTrain@@QAEXXZ 10088d60 f   plats.obj
 0001:00087f80       ?OverrideReset@CFuncTrackTrain@@UAEXXZ 10088f80 f   plats.obj
 0001:00087fa0       ?StartSequence@CFuncTrackTrain@@QAEXPAVCTrainSequence@@@Z 10088fa0 f   plats.obj
 0001:00087fc0       _func_traincontrols        10088fc0 f   plats.obj
 0001:00088010       ?Find@CFuncTrainControls@@QAEXXZ 10089010 f   plats.obj
 0001:000880e0       ?Spawn@CFuncTrainControls@@UAEXXZ 100890e0 f   plats.obj
 0001:00088160       _func_trackchange          10089160 f   plats.obj
 0001:000881c0       ?Save@CFuncTrackChange@@UAEHAAVCSave@@@Z 100891c0 f   plats.obj
 0001:00088230       ?Restore@CFuncTrackChange@@UAEHAAVCRestore@@@Z 10089230 f   plats.obj
 0001:00088260       ?Spawn@CFuncTrackChange@@UAEXXZ 10089260 f   plats.obj
 0001:00088350       ?Precache@CFuncTrackChange@@UAEXXZ 10089350 f   plats.obj
 0001:00088370       ?KeyValue@CFuncTrackChange@@UAEXPAUKeyValueData_s@@@Z 10089370 f   plats.obj
 0001:00088490       ?OverrideReset@CFuncTrackChange@@UAEXXZ 10089490 f   plats.obj
 0001:000884b0       ?Find@CFuncTrackChange@@QAEXXZ 100894b0 f   plats.obj
 0001:00088760       ?EvaluateTrain@CFuncTrackChange@@QAE?AW4TRAIN_CODE@@PAVCPathTrack@@@Z 10089760 f   plats.obj
 0001:00088830       ?UpdateTrain@CFuncTrackChange@@QAEXAAVVector@@@Z 10089830 f   plats.obj
 0001:00088b30       ?GoDown@CFuncTrackChange@@UAEXXZ 10089b30 f   plats.obj
 0001:00088c90       ?GoUp@CFuncTrackChange@@UAEXXZ 10089c90 f   plats.obj
 0001:00088d50       ?UpdateAutoTargets@CFuncTrackChange@@UAEXH@Z 10089d50 f   plats.obj
 0001:00088dc0       ?Use@CFuncTrackChange@@UAEXPAVCBaseEntity@@0W4USE_TYPE@@M@Z 10089dc0 f   plats.obj
 0001:00088e80       ?HitBottom@CFuncTrackChange@@UAEXXZ 10089e80 f   plats.obj
 0001:00088f00       ?HitTop@CFuncTrackChange@@UAEXXZ 10089f00 f   plats.obj
 0001:00088f80       _func_trackautochange      10089f80 f   plats.obj
 0001:00088fe0       ?UpdateAutoTargets@CFuncTrackAuto@@UAEXH@Z 10089fe0 f   plats.obj
 0001:000890a0       ?Use@CFuncTrackAuto@@UAEXPAVCBaseEntity@@0W4USE_TYPE@@M@Z 1008a0a0 f   plats.obj
 0001:000891e0       _func_guntarget            1008a1e0 f   plats.obj
 0001:00089240       ?CalcPosition@CBaseEntity@@UAE?AVVector@@PAV1@@Z 1008a240 f i plats.obj
 0001:00089240       ?BodyTarget@CGunTarget@@UAE?AVVector@@ABV2@@Z 1008a240 f i plats.obj
 0001:00089260       ?Save@CGunTarget@@UAEHAAVCSave@@@Z 1008a260 f   plats.obj
 0001:000892d0       ?Restore@CGunTarget@@UAEHAAVCRestore@@@Z 1008a2d0 f   plats.obj
 0001:00089300       ?Spawn@CGunTarget@@UAEXXZ  1008a300 f   plats.obj
 0001:000893d0       ?Activate@CGunTarget@@UAEXXZ 1008a3d0 f   plats.obj
 0001:00089490       ?Think@CHudSprite@@EAEXXZ  1008a490 f   plats.obj
 0001:00089490       ?Start@CGunTarget@@QAEXXZ  1008a490 f   plats.obj
 0001:000894a0       ?Next@CGunTarget@@QAEXXZ   1008a4a0 f   plats.obj
 0001:00089540       ?Wait@CGunTarget@@QAEXXZ   1008a540 f   plats.obj
 0001:00089600       ?Stop@CGunTarget@@UAEXXZ   1008a600 f   plats.obj
 0001:00089640       ?TakeDamage@CGunTarget@@UAEHPAUentvars_s@@0MH@Z 1008a640 f   plats.obj
 0001:000896d0       ?Use@CGunTarget@@UAEXPAVCBaseEntity@@0W4USE_TYPE@@M@Z 1008a6d0 f   plats.obj
 0001:00089750       _scripted_trainsequence    1008a750 f   plats.obj
 0001:000897a0       ?GetState@CTrainSequence@@UAE?AW4STATE@@XZ 1008a7a0 f i plats.obj
 0001:000897c0       ?Save@CTrainSequence@@UAEHAAVCSave@@@Z 1008a7c0 f   plats.obj
 0001:00089830       ?Restore@CTrainSequence@@UAEHAAVCRestore@@@Z 1008a830 f   plats.obj
 0001:00089860       ?KeyValue@CTrainSequence@@UAEXPAUKeyValueData_s@@@Z 1008a860 f   plats.obj
 0001:00089b20       ?Use@CTrainSequence@@UAEXPAVCBaseEntity@@0W4USE_TYPE@@M@Z 1008ab20 f   plats.obj
 0001:0008a200       ?ArrivalNotify@CTrainSequence@@QAEXXZ 1008b200 f   plats.obj
 0001:0008a240       ?EndThink@CTrainSequence@@QAEXXZ 1008b240 f   plats.obj
 0001:0008a270       ?TimeOutThink@CTrainSequence@@QAEXXZ 1008b270 f   plats.obj
 0001:0008a2a0       ?StopSequence@CTrainSequence@@QAEXXZ 1008b2a0 f   plats.obj
 0001:0008a320       ??_9@$BBCE@AE              1008b320 f i plats.obj
 0001:0008a330       ??_9@$BBCI@AE              1008b330 f i plats.obj
 0001:0008a340       ?LinkUserMessages@@YAXXZ   1008b340 f   player.obj
 0001:0008a770       _player                    1008b770 f   player.obj
 0001:0008a7d0       ?TrainSpeed@@YAHHH@Z       1008b7d0 f   player.obj
 0001:0008a830       ?DeathSound@CBasePlayer@@UAEXXZ 1008b830 f   player.obj
 0001:0008a8d0       ?TakeHealth@CBasePlayer@@UAEHMH@Z 1008b8d0 f   player.obj
 0001:0008a8f0       ?GetGunPosition@CBasePlayer@@UAE?AVVector@@XZ 1008b8f0 f   player.obj
 0001:0008a930       ?TraceAttack@CBasePlayer@@UAEXPAUentvars_s@@MVVector@@PAUTraceResult@@H@Z 1008b930 f   player.obj
 0001:0008aa00       ?TakeDamage@CBasePlayer@@UAEHPAUentvars_s@@0MH@Z 1008ba00 f   player.obj
 0001:0008ad90       ?PackDeadPlayerItems@CBasePlayer@@QAEXXZ 1008bd90 f   player.obj
 0001:0008afa0       ?RemoveAllItems@CBasePlayer@@QAEXH@Z 1008bfa0 f   player.obj
 0001:0008b0b0       ?RemoveAmmo@CBasePlayer@@QAEXPBDH@Z 1008c0b0 f   player.obj
 0001:0008b100       ?RemoveItems@CBasePlayer@@QAEXHHHHHHHHHHHHHHHHHHHH@Z 1008c100 f   player.obj
 0001:0008b5d0       ?Killed@CBasePlayer@@UAEXPAUentvars_s@@H@Z 1008c5d0 f   player.obj
 0001:0008b830       ?SetAnimation@CBasePlayer@@QAEXW4PLAYER_ANIM@@@Z 1008c830 f   player.obj
 0001:0008bc30       ?TabulateAmmo@CBasePlayer@@QAEXXZ 1008cc30 f   player.obj
 0001:0008bdb0       ?WaterMove@CBasePlayer@@QAEXXZ 1008cdb0 f   player.obj
 0001:0008c1e0       ?IsOnLadder@CBasePlayer@@QAEHXZ 1008d1e0 f   player.obj
 0001:0008c200       ?PlayerDeathThink@CBasePlayer@@QAEXXZ 1008d200 f   player.obj
 0001:0008c4d0       ?StartDeathCam@CBasePlayer@@QAEXXZ 1008d4d0 f   player.obj
 0001:0008c620       ?StartObserver@CBasePlayer@@QAEXVVector@@0@Z 1008d620 f   player.obj
 0001:0008c6d0       ?PlayerUse@CBasePlayer@@QAEXXZ 1008d6d0 f   player.obj
 0001:0008ce50       ?Jump@CBasePlayer@@UAEXXZ  1008de50 f   player.obj
 0001:0008cf80       ?Duck@CBasePlayer@@UAEXXZ  1008df80 f   player.obj
 0001:0008cfa0       ?Classify@CBasePlayer@@UAEHXZ 1008dfa0 f   player.obj
 0001:0008cfb0       ?AddPoints@CBasePlayer@@UAEXHH@Z 1008dfb0 f   player.obj
 0001:0008d0a0       ?AddPointsToTeam@CBasePlayer@@UAEXHH@Z 1008e0a0 f   player.obj
 0001:0008d120       ?InitStatusBar@CBasePlayer@@QAEXXZ 1008e120 f   player.obj
 0001:0008d140       ?UpdateStatusBar@CBasePlayer@@QAEXXZ 1008e140 f   player.obj
 0001:0008d560       ?PreThink@CBasePlayer@@UAEXXZ 1008e560 f   player.obj
 0001:0008d870       ?CheckTimeBasedDamage@CBasePlayer@@QAEXXZ 1008e870 f   player.obj
 0001:0008d9f0       ?UpdateGeigerCounter@CBasePlayer@@QAEXXZ 1008e9f0 f   player.obj
 0001:0008daa0       ?CheckSuitUpdate@CBasePlayer@@QAEXXZ 1008eaa0 f   player.obj
 0001:0008dac0       ?SetSuitUpdate@CBasePlayer@@QAEXPADHH@Z 1008eac0 f   player.obj
 0001:0008dc50       ?UpdatePlayerSound@CBasePlayer@@QAEXXZ 1008ec50 f   player.obj
 0001:0008dde0       ?PostThink@CBasePlayer@@UAEXXZ 1008ede0 f   player.obj
 0001:0008e220       ?IsSpawnPointValid@@YAHPAVCBaseEntity@@0@Z 1008f220 f   player.obj
 0001:0008e290       ?EntSelectSpawnPoint@@YAPAUedict_s@@PAVCBaseEntity@@@Z 1008f290 f   player.obj
 0001:0008e590       ?Spawn@CBasePlayer@@UAEXXZ 1008f590 f   player.obj
 0001:0008e9c0       ?Precache@CBasePlayer@@UAEXXZ 1008f9c0 f   player.obj
 0001:0008eaa0       ?Save@CBasePlayer@@UAEHAAVCSave@@@Z 1008faa0 f   player.obj
 0001:0008eae0       ?Restore@CBasePlayer@@UAEHAAVCRestore@@@Z 1008fae0 f   player.obj
 0001:0008ed00       ?SelectItem@CBasePlayer@@QAEXPBD@Z 1008fd00 f   player.obj
 0001:0008ee10       ?SelectLastItem@CBasePlayer@@QAEXXZ 1008fe10 f   player.obj
 0001:0008ee90       ?HasWeapons@CBasePlayer@@QAEHXZ 1008fe90 f   player.obj
 0001:0008eeb0       ?TeamID@CBasePlayer@@UAEPBDXZ 1008feb0 f   player.obj
 0001:0008eed0       ?Spawn@CSprayCan@@QAEXPAUentvars_s@@@Z 1008fed0 f   player.obj
 0001:0008ef80       ?Think@CSprayCan@@UAEXXZ   1008ff80 f   player.obj
 0001:0008f0d0       ?Spawn@CBloodSplat@@QAEXPAUentvars_s@@@Z 100900d0 f   player.obj
 0001:0008f150       ?Spray@CBloodSplat@@QAEXXZ 10090150 f   player.obj
 0001:0008f200       ?GiveNamedItem@CBasePlayer@@QAEXPBD@Z 10090200 f   player.obj
 0001:0008f2a0       ?FindEntityForward@@YAPAVCBaseEntity@@PAV1@@Z 100902a0 f   player.obj
 0001:0008f3c0       ?FlashlightIsOn@CBasePlayer@@QAEHXZ 100903c0 f   player.obj
 0001:0008f3d0       ?FlashlightTurnOn@CBasePlayer@@QAEXXZ 100903d0 f   player.obj
 0001:0008f480       ?FlashlightTurnOff@CBasePlayer@@QAEXXZ 10090480 f   player.obj
 0001:0008f520       ?ToggleGasMask@CBasePlayer@@QAEXXZ 10090520 f   player.obj
 0001:0008f690       ?ToggleHeadShield@CBasePlayer@@QAEXXZ 10090690 f   player.obj
 0001:0008f790       ?SendInitMessages@CBasePlayer@@QAEXXZ 10090790 f   player.obj
 0001:0008f800       ?ForceClientDllUpdate@CBasePlayer@@QAEXXZ 10090800 f   player.obj
 0001:0008f840       ?ImpulseCommands@CBasePlayer@@UAEXXZ 10090840 f   player.obj
 0001:0008fb70       ?CheatImpulseCommands@CBasePlayer@@QAEXH@Z 10090b70 f   player.obj
 0001:00090520       ?AddPlayerItem@CBasePlayer@@UAEHPAVCBasePlayerItem@@@Z 10091520 f   player.obj
 0001:000906b0       ?RemovePlayerItem@CBasePlayer@@UAEHPAVCBasePlayerItem@@@Z 100916b0 f   player.obj
 0001:00090780       ?GiveAmmo@CBasePlayer@@UAEHHPADH@Z 10091780 f   player.obj
 0001:00090850       ?ItemPreFrame@CBasePlayer@@QAEXXZ 10091850 f   player.obj
 0001:00090880       ?ItemPostFrame@CBasePlayer@@QAEXXZ 10091880 f   player.obj
 0001:000908d0       ?AmmoInventory@CBasePlayer@@QAEHH@Z 100918d0 f   player.obj
 0001:000908f0       ?GetAmmoIndex@CBasePlayer@@SAHPBD@Z 100918f0 f   player.obj
 0001:00090940       ?SendAmmoUpdate@CBasePlayer@@QAEXXZ 10091940 f   player.obj
 0001:000909c0       ?UpdateClientData@CBasePlayer@@UAEXXZ 100919c0 f   player.obj
 0001:00091b00       ?PlayerSetMP3@CBasePlayer@@QAEXH@Z 10092b00 f   player.obj
 0001:00091b20       ?PlayerSetGoalDesc@CBasePlayer@@QAEXHHH@Z 10092b20 f   player.obj
 0001:00091b50       ?FBecomeProne@CBasePlayer@@UAEHXZ 10092b50 f   player.obj
 0001:00091b70       ?BarnacleVictimBitten@CBasePlayer@@UAEXPAUentvars_s@@@Z 10092b70 f   player.obj
 0001:00091ba0       ?BarnacleVictimReleased@CBasePlayer@@UAEXXZ 10092ba0 f   player.obj
 0001:00091bb0       ?Illumination@CBasePlayer@@UAEHXZ 10092bb0 f   player.obj
 0001:00091be0       ?EnableControl@CBasePlayer@@QAEXH@Z 10092be0 f   player.obj
 0001:00091c40       ?GetAutoaimVector@CBasePlayer@@QAE?AVVector@@M@Z 10092c40 f   player.obj
 0001:00091fd0       ?AutoaimDeflection@CBasePlayer@@QAE?AVVector@@AAV2@MM@Z 10092fd0 f   player.obj
 0001:00092570       ?ResetAutoaim@CBasePlayer@@QAEXXZ 10093570 f   player.obj
 0001:00092600       ?SetCustomDecalFrames@CBasePlayer@@QAEXH@Z 10093600 f   player.obj
 0001:00092630       ?GetCustomDecalFrames@CBasePlayer@@QAEHXZ 10093630 f   player.obj
 0001:00092640       ?DropPlayerItem@CBasePlayer@@QAEXPAD@Z 10093640 f   player.obj
 0001:00092930       ?HasPlayerItem@CBasePlayer@@QAEHPAVCBasePlayerItem@@@Z 10093930 f   player.obj
 0001:000929c0       ?HasNamedPlayerItem@CBasePlayer@@QAEHPBD@Z 100939c0 f   player.obj
 0001:00092a70       ?SwitchWeapon@CBasePlayer@@QAEHPAVCBasePlayerItem@@@Z 10093a70 f   player.obj
 0001:00092ac0       _monster_hevsuit_dead      10093ac0 f   player.obj
 0001:00092b20       ?Spawn@CDeadHEV@@UAEXXZ    10093b20 f   player.obj
 0001:00092c00       _player_weaponstrip        10093c00 f   player.obj
 0001:00092c50       ?Save@CStripWeapons@@UAEHAAVCSave@@@Z 10093c50 f   player.obj
 0001:00092cc0       ?Restore@CStripWeapons@@UAEHAAVCRestore@@@Z 10093cc0 f   player.obj
 0001:00092cf0       ?KeyValue@CStripWeapons@@UAEXPAUKeyValueData_s@@@Z 10093cf0 f   player.obj
 0001:000934f0       ?Use@CStripWeapons@@UAEXPAVCBaseEntity@@0W4USE_TYPE@@M@Z 100944f0 f   player.obj
 0001:00093650       _player_loadsaved          10094650 f   player.obj
 0001:000936a0       ?Save@CRevertSaved@@UAEHAAVCSave@@@Z 100946a0 f   player.obj
 0001:00093710       ?Restore@CRevertSaved@@UAEHAAVCRestore@@@Z 10094710 f   player.obj
 0001:00093740       ?KeyValue@CRevertSaved@@UAEXPAUKeyValueData_s@@@Z 10094740 f   player.obj
 0001:000939b0       ?Use@CRevertSaved@@UAEXPAVCBaseEntity@@0W4USE_TYPE@@M@Z 100949b0 f   player.obj
 0001:00093a10       ?MessageThink@CRevertSaved@@QAEXXZ 10094a10 f   player.obj
 0001:00093a80       ?LoadThink@CRevertSaved@@QAEXXZ 10094a80 f   player.obj
 0001:00093ab0       ?Use@CPlayerFreeze@@EAEXPAVCBaseEntity@@0W4USE_TYPE@@M@Z 10094ab0 f   player.obj
 0001:00093b70       ?Think@CPlayerFreeze@@EAEXXZ 10094b70 f   player.obj
 0001:00093ba0       _player_freeze             10094ba0 f   player.obj
 0001:00093bf0       ?GetState@CPlayerFreeze@@EAE?AW4STATE@@XZ 10094bf0 f i player.obj
 0001:00093c10       ?Spawn@CInfoIntermission@@EAEXXZ 10094c10 f   player.obj
 0001:00093c70       ?Think@CInfoIntermission@@EAEXXZ 10094c70 f   player.obj
 0001:00093d60       _info_intermission         10094d60 f   player.obj
 0001:00093db0       ?SetJumpHeight@CBasePlayer@@QAEXH@Z 10094db0 f   player.obj
 0001:00093e00       ?Spawn@CHudSprite@@EAEXXZ  10094e00 f   player.obj
 0001:00093e30       ?Use@CHudSprite@@EAEXPAVCBaseEntity@@0W4USE_TYPE@@M@Z 10094e30 f   player.obj
 0001:00093f40       _hud_sprite                10094f40 f   player.obj
 0001:00093f90       ?GetState@CHudSprite@@EAE?AW4STATE@@XZ 10094f90 f i player.obj
 0001:00093fa0       ?ViewPunch@CBasePlayer@@QAEXMMM@Z 10094fa0 f   player.obj
 0001:00093ff0       _AngleVectors              10094ff0 f   pm_math.obj
 0001:000940f0       _VectorCompare             100950f0 f   pm_math.obj
 0001:00094120       _VectorMA                  10095120 f   pm_math.obj
 0001:00094160       _CrossProduct              10095160 f   pm_math.obj
 0001:000941a0       _Length                    100951a0 f   pm_math.obj
 0001:000941d0       _VectorNormalize           100951d0 f   pm_math.obj
 0001:00094220       _VectorScale               10095220 f   pm_math.obj
 0001:00094250       _PM_SwapTextures           10095250 f   pm_shared.obj
 0001:00094310       _PM_SortTextures           10095310 f   pm_shared.obj
 0001:00094380       _PM_InitTextureTypes       10095380 f   pm_shared.obj
 0001:00094620       _PM_FindTextureType        10095620 f   pm_shared.obj
 0001:00094680       _PM_PlayGroupSound         10095680 f   pm_shared.obj
 0001:00094750       _PM_PlayStepSound          10095750 f   pm_shared.obj
 0001:00095370       _PM_MapTextureTypeStepType 10096370 f   pm_shared.obj
 0001:00095420       _PM_CatagorizeTextureType  10096420 f   pm_shared.obj
 0001:00095520       _PM_UpdateStepSound        10096520 f   pm_shared.obj
 0001:00095830       _PM_AddToTouched           10096830 f   pm_shared.obj
 0001:000958d0       _PM_CheckVelocity          100968d0 f   pm_shared.obj
 0001:000959c0       _PM_ClipVelocity           100969c0 f   pm_shared.obj
 0001:00095a60       _PM_AddCorrectGravity      10096a60 f   pm_shared.obj
 0001:00095ae0       _PM_FixupGravityVelocity   10096ae0 f   pm_shared.obj
 0001:00095b40       _PM_FlyMove                10096b40 f   pm_shared.obj
 0001:00096020       _PM_Accelerate             10097020 f   pm_shared.obj
 0001:000960c0       _PM_WalkMove               100970c0 f   pm_shared.obj
 0001:000965f0       _PM_Friction               100975f0 f   pm_shared.obj
 0001:00096790       _PM_AirAccelerate          10097790 f   pm_shared.obj
 0001:00096850       _PM_WaterMove              10097850 f   pm_shared.obj
 0001:00096b70       _PM_AirMove                10097b70 f   pm_shared.obj
 0001:00096cc0       _PM_InWater                10097cc0 f   pm_shared.obj
 0001:00096ce0       _PM_CheckWater             10097ce0 f   pm_shared.obj
 0001:00096ec0       _PM_CatagorizePosition     10097ec0 f   pm_shared.obj
 0001:00096ff0       _PM_GetRandomStuckOffsets  10097ff0 f   pm_shared.obj
 0001:00097040       _PM_ResetStuckOffsets      10098040 f   pm_shared.obj
 0001:00097060       _PM_CheckStuck             10098060 f   pm_shared.obj
 0001:000973e0       _PM_SpectatorMove          100983e0 f   pm_shared.obj
 0001:000976e0       ?UTIL_SplineFraction@@YAMMM@Z 100986e0 f   pm_shared.obj
 0001:000976e0       _PM_SplineFraction         100986e0 f   pm_shared.obj
 0001:00097700       _PM_FixPlayerCrouchStuck   10098700 f   pm_shared.obj
 0001:000977a0       _PM_UnDuck                 100987a0 f   pm_shared.obj
 0001:00097900       _PM_Duck                   10098900 f   pm_shared.obj
 0001:00097b50       _PM_LadderMove             10098b50 f   pm_shared.obj
 0001:00097ee0       _PM_Ladder                 10098ee0 f   pm_shared.obj
 0001:00097fb0       _PM_WaterJump              10098fb0 f   pm_shared.obj
 0001:00098070       _PM_AddGravity             10099070 f   pm_shared.obj
 0001:000980d0       _PM_PushEntity             100990d0 f   pm_shared.obj
 0001:000981a0       _PM_Physics_Toss           100991a0 f   pm_shared.obj
 0001:000984b0       _PM_NoClip                 100994b0 f   pm_shared.obj
 0001:00098560       _PM_PreventMegaBunnyJumping 10099560 f   pm_shared.obj
 0001:000985d0       _PM_Jump                   100995d0 f   pm_shared.obj
 0001:00098970       _PM_CheckWaterJump         10099970 f   pm_shared.obj
 0001:00098be0       _PM_CheckFalling           10099be0 f   pm_shared.obj
 0001:00098df0       _PM_PlayWaterSounds        10099df0 f   pm_shared.obj
 0001:00098ef0       _PM_CalcRoll               10099ef0 f   pm_shared.obj
 0001:00098f90       _PM_DropPunchAngle         10099f90 f   pm_shared.obj
 0001:00099130       _PM_CheckParamters         1009a130 f   pm_shared.obj
 0001:00099320       _PM_ReduceTimers           1009a320 f   pm_shared.obj
 0001:00099410       _PM_PlayerMove             1009a410 f   pm_shared.obj
 0001:00099860       _PM_CreateStuckTable       1009a860 f   pm_shared.obj
 0001:00099a80       _PM_Move                   1009aa80 f   pm_shared.obj
 0001:00099af0       _PM_Init                   1009aaf0 f   pm_shared.obj
 0001:00099b10       _weapon_357                1009ab10 f   python.obj
 0001:00099b10       _weapon_python             1009ab10 f   python.obj
 0001:00099b60       ?GetItemInfo@CPython@@UAEHPAUItemInfo@@@Z 1009ab60 f   python.obj
 0001:00099bd0       ?Spawn@CPython@@UAEXXZ     1009abd0 f   python.obj
 0001:00099c30       ?Precache@CPython@@UAEXXZ  1009ac30 f   python.obj
 0001:00099cb0       ?Deploy@CPython@@UAEHXZ    1009acb0 f   python.obj
 0001:00099d10       ?Holster@CPython@@UAEXH@Z  1009ad10 f   python.obj
 0001:00099d80       ?SecondaryAttack@CPython@@UAEXXZ 1009ad80 f   python.obj
 0001:00099e00       ?PrimaryAttack@CPython@@UAEXXZ 1009ae00 f   python.obj
 0001:0009a050       ?Reload@CPython@@UAEXXZ    1009b050 f   python.obj
 0001:0009a0c0       ?WeaponIdle@CPython@@UAEXXZ 1009b0c0 f   python.obj
 0001:0009a220       _ammo_357                  1009b220 f   python.obj
 0001:0009a270       ?Spawn@CPythonAmmo@@EAEXXZ 1009b270 f i python.obj
 0001:0009a2a0       ?Precache@CPythonAmmo@@EAEXXZ 1009b2a0 f i python.obj
 0001:0009a2c0       ?AddAmmo@CPythonAmmo@@EAEHPAVCBaseEntity@@@Z 1009b2c0 f i python.obj
 0001:0009a320       ?iItemSlot@CAPS@@UAEHXZ    1009b320 f i python.obj
 0001:0009a320       ?iItemSlot@CGlock@@UAEHXZ  1009b320 f i python.obj
 0001:0009a320       ?iItemSlot@CPython@@UAEHXZ 1009b320 f i python.obj
 0001:0009a330       _monster_cockroach         1009b330 f   roach.obj
 0001:0009a390       ?Classify@CRat@@UAEHXZ     1009b390 f i roach.obj
 0001:0009a3a0       ?ISoundMask@CRat@@UAEHXZ   1009b3a0 f i roach.obj
 0001:0009a3b0       ?Touch@CRat@@UAEXPAVCBaseEntity@@@Z 1009b3b0 f   roach.obj
 0001:0009a4b0       ?Spawn@CRat@@UAEXXZ        1009b4b0 f   roach.obj
 0001:0009a5e0       ?Precache@CRat@@UAEXXZ     1009b5e0 f   roach.obj
 0001:0009a640       ?Killed@CRat@@UAEXPAUentvars_s@@H@Z 1009b640 f   roach.obj
 0001:0009a7c0       ?MonsterThink@CRat@@UAEXXZ 1009b7c0 f   roach.obj
 0001:0009aa90       ?PickNewDest@CRat@@QAEXH@Z 1009ba90 f   roach.obj
 0001:0009ac50       ?Move@CRat@@UAEXM@Z        1009bc50 f   roach.obj
 0001:0009adc0       ?Look@CRat@@UAEXH@Z        1009bdc0 f   roach.obj
 0001:0009aed0       _weapon_rpg                1009bed0 f   rpg.obj
 0001:0009af30       ?Save@CRpg@@UAEHAAVCSave@@@Z 1009bf30 f   rpg.obj
 0001:0009afa0       ?Restore@CRpg@@UAEHAAVCRestore@@@Z 1009bfa0 f   rpg.obj
 0001:0009afd0       _laser_spot                1009bfd0 f   rpg.obj
 0001:0009b020       ?CreateSpot@CLaserSpot@@SAPAV1@XZ 1009c020 f   rpg.obj
 0001:0009b090       ?Spawn@CLaserSpot@@EAEXXZ  1009c090 f   rpg.obj
 0001:0009b100       ?Suspend@CLaserSpot@@QAEXM@Z 1009c100 f   rpg.obj
 0001:0009b150       ?Revive@CLaserSpot@@QAEXXZ 1009c150 f   rpg.obj
 0001:0009b170       ?Precache@CLaserSpot@@EAEXXZ 1009c170 f   rpg.obj
 0001:0009b180       _rpg_rocket                1009c180 f   rpg.obj
 0001:0009b1e0       ?Save@CRpgRocket@@UAEHAAVCSave@@@Z 1009c1e0 f   rpg.obj
 0001:0009b250       ?Restore@CRpgRocket@@UAEHAAVCRestore@@@Z 1009c250 f   rpg.obj
 0001:0009b280       ?CreateRpgRocket@CRpgRocket@@SAPAV1@VVector@@0PAVCBaseEntity@@PAVCRpg@@@Z 1009c280 f   rpg.obj
 0001:0009b340       ?Spawn@CRpgRocket@@UAEXXZ  1009c340 f   rpg.obj
 0001:0009b4a0       ?RocketTouch@CRpgRocket@@QAEXPAVCBaseEntity@@@Z 1009c4a0 f   rpg.obj
 0001:0009b4f0       ?Precache@CRpgRocket@@UAEXXZ 1009c4f0 f   rpg.obj
 0001:0009b530       ?IgniteThink@CRpgRocket@@QAEXXZ 1009c530 f   rpg.obj
 0001:0009b620       ?FollowThink@CRpgRocket@@QAEXXZ 1009c620 f   rpg.obj
 0001:0009bc70       ?Reload@CRpg@@UAEXXZ       1009cc70 f   rpg.obj
 0001:0009bd50       ?Spawn@CRpg@@UAEXXZ        1009cd50 f   rpg.obj
 0001:0009bdc0       ?Precache@CRpg@@UAEXXZ     1009cdc0 f   rpg.obj
 0001:0009be40       ?GetItemInfo@CRpg@@UAEHPAUItemInfo@@@Z 1009ce40 f   rpg.obj
 0001:0009beb0       ?Deploy@CRpg@@UAEHXZ       1009ceb0 f   rpg.obj
 0001:0009bef0       ?CanHolster@CRpg@@UAEHXZ   1009cef0 f   rpg.obj
 0001:0009bf10       ?Holster@CRpg@@UAEXH@Z     1009cf10 f   rpg.obj
 0001:0009bf70       ?PrimaryAttack@CRpg@@UAEXXZ 1009cf70 f   rpg.obj
 0001:0009c250       ?WeaponIdle@CRpg@@UAEXXZ   1009d250 f   rpg.obj
 0001:0009c320       ?UpdateSpot@CRpg@@QAEXXZ   1009d320 f   rpg.obj
 0001:0009c410       _ammo_rpgclip              1009d410 f   rpg.obj
 0001:0009c460       ?Spawn@CRpgAmmo@@EAEXXZ    1009d460 f i rpg.obj
 0001:0009c490       ?Precache@CRpgAmmo@@EAEXXZ 1009d490 f i rpg.obj
 0001:0009c4b0       ?AddAmmo@CRpgAmmo@@EAEHPAVCBaseEntity@@@Z 1009d4b0 f i rpg.obj
 0001:0009c510       _monster_satchel           1009d510 f   satchel.obj
 0001:0009c570       ?Deactivate@CSatchelCharge@@QAEXXZ 1009d570 f   satchel.obj
 0001:0009c590       ?Spawn@CSatchelCharge@@EAEXXZ 1009d590 f   satchel.obj
 0001:0009c680       ?SatchelSlide@CSatchelCharge@@AAEXPAVCBaseEntity@@@Z 1009d680 f   satchel.obj
 0001:0009c7d0       ?SatchelThink@CSatchelCharge@@AAEXXZ 1009d7d0 f   satchel.obj
 0001:0009c900       ?Precache@CSatchelCharge@@EAEXXZ 1009d900 f   satchel.obj
 0001:0009c930       ?BounceSound@CSatchelCharge@@EAEXXZ 1009d930 f   satchel.obj
 0001:0009c9d0       _weapon_satchel            1009d9d0 f   satchel.obj
 0001:0009ca20       ?AddDuplicate@CSatchel@@UAEHPAVCBasePlayerItem@@@Z 1009da20 f   satchel.obj
 0001:0009ca60       ?AddToPlayer@CSatchel@@UAEHPAVCBasePlayer@@@Z 1009da60 f   satchel.obj
 0001:0009cab0       ?Spawn@CSatchel@@UAEXXZ    1009dab0 f   satchel.obj
 0001:0009caf0       ?Precache@CSatchel@@UAEXXZ 1009daf0 f   satchel.obj
 0001:0009cb40       ?GetItemInfo@CSatchel@@UAEHPAUItemInfo@@@Z 1009db40 f   satchel.obj
 0001:0009cbb0       ?CanDeploy@CSatchel@@UAEHXZ 1009dbb0 f   satchel.obj
 0001:0009cbb0       ?IsUseable@CSatchel@@UAEHXZ 1009dbb0 f   satchel.obj
 0001:0009cbf0       ?Deploy@CSatchel@@UAEHXZ   1009dbf0 f   satchel.obj
 0001:0009cc90       ?Holster@CSatchel@@UAEXH@Z 1009dc90 f   satchel.obj
 0001:0009cd50       ?PrimaryAttack@CSatchel@@UAEXXZ 1009dd50 f   satchel.obj
 0001:0009ce90       ?SecondaryAttack@CSatchel@@UAEXXZ 1009de90 f   satchel.obj
 0001:0009cea0       ?Throw@CSatchel@@QAEXXZ    1009dea0 f   satchel.obj
 0001:0009d030       ?WeaponIdle@CSatchel@@UAEXXZ 1009e030 f   satchel.obj
 0001:0009d1e0       ?DeactivateSatchels@@YAXPAVCBasePlayer@@@Z 1009e1e0 f   satchel.obj
 0001:0009d250       ?iItemSlot@CSatchel@@UAEHXZ 1009e250 f i satchel.obj
 0001:0009d250       ?iItemSlot@CHandGrenade@@UAEHXZ 1009e250 f i satchel.obj
 0001:0009d250       ?iItemSlot@CSqueak@@UAEHXZ 1009e250 f i satchel.obj
 0001:0009d250       ?Classify@CNihilanth@@UAEHXZ 1009e250 f i satchel.obj
 0001:0009d250       ?iItemSlot@CTripmine@@UAEHXZ 1009e250 f i satchel.obj
 0001:0009d260       _monster_scientist         1009e260 f   scientist.obj
 0001:0009d2c0       ?CoverRadius@CScientist@@UAEMXZ 1009e2c0 f i scientist.obj
 0001:0009d2d0       ?Save@CScientist@@UAEHAAVCSave@@@Z 1009e2d0 f   scientist.obj
 0001:0009d340       ?Restore@CScientist@@UAEHAAVCRestore@@@Z 1009e340 f   scientist.obj
 0001:0009d370       ?ScheduleFromName@CScientist@@UAEPAUSchedule_t@@PBD@Z 1009e370 f   scientist.obj
 0001:0009d3a0       ?BlockedByPlayer@CScientist@@UAEXPAVCBasePlayer@@@Z 1009e3a0 f   scientist.obj
 0001:0009d460       ?DeclineFollowing@CScientist@@UAEXXZ 1009e460 f   scientist.obj
 0001:0009d4b0       ?Scream@CScientist@@QAEXXZ 1009e4b0 f   scientist.obj
 0001:0009d520       ?GetStoppedActivity@CScientist@@UAE?AW4Activity@@XZ 1009e520 f   scientist.obj
 0001:0009d540       ?StartTask@CScientist@@UAEXPAUTask_t@@@Z 1009e540 f   scientist.obj
 0001:0009d770       ?RunTask@CScientist@@UAEXPAUTask_t@@@Z 1009e770 f   scientist.obj
 0001:0009da60       ?Classify@CScientist@@UAEHXZ 1009ea60 f   scientist.obj
 0001:0009da60       ?Classify@CSittingScientist@@UAEHXZ 1009ea60 f   scientist.obj
 0001:0009da70       ?SetYawSpeed@CScientist@@UAEXXZ 1009ea70 f   scientist.obj
 0001:0009db00       ?HandleAnimEvent@CScientist@@UAEXPAUMonsterEvent_t@@@Z 1009eb00 f   scientist.obj
 0001:0009db20       ?Spawn@CScientist@@UAEXXZ  1009eb20 f   scientist.obj
 0001:0009dc60       ?Precache@CScientist@@UAEXXZ 1009ec60 f   scientist.obj
 0001:0009dce0       ?TalkInit@CScientist@@QAEXXZ 1009ece0 f   scientist.obj
 0001:0009de50       ?TakeDamage@CScientist@@UAEHPAUentvars_s@@0MH@Z 1009ee50 f   scientist.obj
 0001:0009dea0       ?PainSound@CScientist@@UAEXXZ 1009eea0 f   scientist.obj
 0001:0009e000       ?DeathSound@CScientist@@UAEXXZ 1009f000 f   scientist.obj
 0001:0009e010       ?Killed@CScientist@@UAEXPAUentvars_s@@H@Z 1009f010 f   scientist.obj
 0001:0009e030       ?SetActivity@CScientist@@UAEXW4Activity@@@Z 1009f030 f   scientist.obj
 0001:0009e060       ?GetScheduleOfType@CScientist@@UAEPAUSchedule_t@@H@Z 1009f060 f   scientist.obj
 0001:0009e170       ?GetSchedule@CScientist@@UAEPAUSchedule_t@@XZ 1009f170 f   scientist.obj
 0001:0009e3e0       ?GetIdealState@CScientist@@UAE?AW4MONSTERSTATE@@XZ 1009f3e0 f   scientist.obj
 0001:0009e550       ?CanHeal@CScientist@@QAEHXZ 1009f550 f   scientist.obj
 0001:0009e5c0       ?Heal@CScientist@@QAEXXZ   1009f5c0 f   scientist.obj
 0001:0009e660       ?FriendNumber@CScientist@@UAEHH@Z 1009f660 f   scientist.obj
 0001:0009e680       ?KeyValue@CDeadScientist@@UAEXPAUKeyValueData_s@@@Z 1009f680 f   scientist.obj
 0001:0009e680       ?KeyValue@CDeadHGrunt@@UAEXPAUKeyValueData_s@@@Z 1009f680 f   scientist.obj
 0001:0009e680       ?KeyValue@CDeadHEV@@UAEXPAUKeyValueData_s@@@Z 1009f680 f   scientist.obj
 0001:0009e680       ?KeyValue@CDeadBarney@@UAEXPAUKeyValueData_s@@@Z 1009f680 f   scientist.obj
 0001:0009e680       ?KeyValue@CDeadMilitary@@UAEXPAUKeyValueData_s@@@Z 1009f680 f   scientist.obj
 0001:0009e700       _monster_scientist_dead    1009f700 f   scientist.obj
 0001:0009e760       ?Spawn@CDeadScientist@@UAEXXZ 1009f760 f   scientist.obj
 0001:0009e800       _monster_sitting_scientist 1009f800 f   scientist.obj
 0001:0009e860       ?Save@CSittingScientist@@UAEHAAVCSave@@@Z 1009f860 f   scientist.obj
 0001:0009e8d0       ?Restore@CSittingScientist@@UAEHAAVCRestore@@@Z 1009f8d0 f   scientist.obj
 0001:0009e900       ?Spawn@CSittingScientist@@UAEXXZ 1009f900 f   scientist.obj
 0001:0009ea90       ?Precache@CSittingScientist@@UAEXXZ 1009fa90 f   scientist.obj
 0001:0009eab0       ?FriendNumber@CSittingScientist@@UAEHH@Z 1009fab0 f   scientist.obj
 0001:0009ead0       ?SittingThink@CSittingScientist@@QAEXXZ 1009fad0 f   scientist.obj
 0001:0009edb0       ?SetAnswerQuestion@CSittingScientist@@UAEXPAVCTalkMonster@@@Z 1009fdb0 f   scientist.obj
 0001:0009edf0       ?FIdleSpeak@CSittingScientist@@QAEHXZ 1009fdf0 f   scientist.obj
 0001:0009efb0       ?KeyValue@CCineMonster@@UAEXPAUKeyValueData_s@@@Z 1009ffb0 f   scripted.obj
 0001:0009f470       ?Save@CCineMonster@@UAEHAAVCSave@@@Z 100a0470 f   scripted.obj
 0001:0009f4e0       ?Restore@CCineMonster@@UAEHAAVCRestore@@@Z 100a04e0 f   scripted.obj
 0001:0009f510       _aiscripted_sequence       100a0510 f   scripted.obj
 0001:0009f510       _scripted_action           100a0510 f   scripted.obj
 0001:0009f510       _scripted_sequence         100a0510 f   scripted.obj
 0001:0009f570       ?Spawn@CCineMonster@@UAEXXZ 100a0570 f   scripted.obj
 0001:0009f650       ?Use@CCineMonster@@UAEXPAVCBaseEntity@@0W4USE_TYPE@@M@Z 100a0650 f   scripted.obj
 0001:0009f6b0       ?Touch@CCineMonster@@UAEXPAVCBaseEntity@@@Z 100a06b0 f   scripted.obj
 0001:0009f6b0       ?Blocked@CCineMonster@@UAEXPAVCBaseEntity@@@Z 100a06b0 f   scripted.obj
 0001:0009f6b0       ?ClientDisconnected@CHalfLifeRules@@UAEXPAUedict_s@@@Z 100a06b0 f   scripted.obj
 0001:0009f6b0       ?Touch@CFuncTrackChange@@UAEXPAVCBaseEntity@@@Z 100a06b0 f   scripted.obj
 0001:0009f6b0       ?InitHUD@CHalfLifeRules@@UAEXPAVCBasePlayer@@@Z 100a06b0 f   scripted.obj
 0001:0009f6b0       ?PlayerThink@CHalfLifeRules@@UAEXPAVCBasePlayer@@@Z 100a06b0 f   scripted.obj
 0001:0009f6b0       ?Touch@CXenSpore@@UAEXPAVCBaseEntity@@@Z 100a06b0 f   scripted.obj
 0001:0009f6c0       ?FindEntity@CCineMonster@@QAEPAVCBaseMonster@@PBDPAVCBaseEntity@@@Z 100a06c0 f   scripted.obj
 0001:0009f810       ?PossessEntity@CCineMonster@@UAEXXZ 100a0810 f   scripted.obj
 0001:0009fad0       ?InitIdleThink@CCineMonster@@QAEXXZ 100a0ad0 f   scripted.obj
 0001:0009fba0       ?CineThink@CCineMonster@@QAEXXZ 100a0ba0 f   scripted.obj
 0001:0009fc60       ?StartSequence@CCineMonster@@UAEHPAVCBaseMonster@@HH@Z 100a0c60 f   scripted.obj
 0001:0009fd10       ?SequenceDone@CCineMonster@@QAEXPAVCBaseMonster@@@Z 100a0d10 f   scripted.obj
 0001:0009fd80       ?FixScriptMonsterSchedule@CCineMonster@@UAEXPAVCBaseMonster@@@Z 100a0d80 f   scripted.obj
 0001:0009fde0       ?ExitScriptedSequence@CBaseMonster@@QAEHXZ 100a0de0 f   scripted.obj
 0001:0009fe10       ?AllowInterrupt@CCineMonster@@QAEXH@Z 100a0e10 f   scripted.obj
 0001:0009fe30       ?CanInterrupt@CCineMonster@@QAEHXZ 100a0e30 f   scripted.obj
 0001:0009fe60       ?IgnoreConditions@CCineMonster@@UAEHXZ 100a0e60 f   scripted.obj
 0001:0009fe80       ?ScriptEntityCancel@@YAXPAUedict_s@@@Z 100a0e80 f   scripted.obj
 0001:000a0050       ?CancelScript@CCineMonster@@QAEXXZ 100a1050 f   scripted.obj
 0001:000a00d0       ?DelayStart@CCineMonster@@QAEXH@Z 100a10d0 f   scripted.obj
 0001:000a0280       ?Activate@CCineMonster@@UAEXXZ 100a1280 f   scripted.obj
 0001:000a03a0       ?CineCleanup@CBaseMonster@@QAEHXZ 100a13a0 f   scripted.obj
 0001:000a0690       ?Save@CScriptedSentence@@UAEHAAVCSave@@@Z 100a1690 f   scripted.obj
 0001:000a0700       ?Restore@CScriptedSentence@@UAEHAAVCRestore@@@Z 100a1700 f   scripted.obj
 0001:000a0730       _scripted_sentence         100a1730 f   scripted.obj
 0001:000a0780       ?GetState@CScriptedSentence@@UAE?AW4STATE@@XZ 100a1780 f i scripted.obj
 0001:000a0790       ?KeyValue@CScriptedSentence@@UAEXPAUKeyValueData_s@@@Z 100a1790 f   scripted.obj
 0001:000a0a60       ?Use@CScriptedSentence@@UAEXPAVCBaseEntity@@0W4USE_TYPE@@M@Z 100a1a60 f   scripted.obj
 0001:000a0aa0       ?Spawn@CScriptedSentence@@UAEXXZ 100a1aa0 f   scripted.obj
 0001:000a0b40       ?FindThink@CScriptedSentence@@QAEXXZ 100a1b40 f   scripted.obj
 0001:000a0c30       ?DurationThink@CScriptedSentence@@QAEXXZ 100a1c30 f   scripted.obj
 0001:000a0c60       ?DelayThink@CScriptedSentence@@QAEXXZ 100a1c60 f   scripted.obj
 0001:000a0c90       ?AcceptableSpeaker@CScriptedSentence@@QAEHPAVCBaseMonster@@@Z 100a1c90 f   scripted.obj
 0001:000a0d50       ?FindEntity@CScriptedSentence@@QAEPAVCBaseMonster@@PAVCBaseEntity@@@Z 100a1d50 f   scripted.obj
 0001:000a0e90       ?StartSentence@CScriptedSentence@@QAEHPAVCBaseMonster@@@Z 100a1e90 f   scripted.obj
 0001:000a0fe0       _monster_furniture         100a1fe0 f   scripted.obj
 0001:000a1040       ?Spawn@CFurniture@@UAEXXZ  100a2040 f   scripted.obj
 0001:000a1100       ??0CHalfLifeRules@@QAE@XZ  100a2100 f   singleplay_gamerules.obj
 0001:000a1120       ?FShouldSwitchWeapon@CHalfLifeRules@@UAEHPAVCBasePlayer@@PAVCBasePlayerItem@@@Z 100a2120 f   singleplay_gamerules.obj
 0001:000a1150       ?ClientConnected@CHalfLifeRules@@UAEHPAUedict_s@@PBD1QAD@Z 100a2150 f   singleplay_gamerules.obj
 0001:000a1160       ?FlPlayerFallDamage@CHalfLifeRules@@UAEMPAVCBasePlayer@@@Z 100a2160 f   singleplay_gamerules.obj
 0001:000a1180       ?PlayerSpawn@CHalfLifeRules@@UAEXPAVCBasePlayer@@@Z 100a2180 f   singleplay_gamerules.obj
 0001:000a11c0       ?AllowAutoTargetCrosshair@CHalfLifeRules@@UAEHXZ 100a21c0 f   singleplay_gamerules.obj
 0001:000a11d0       ?IsAllowedToSpawn@CHalfLifeRules@@UAEHPAVCBaseEntity@@@Z 100a21d0 f   singleplay_gamerules.obj
 0001:000a11d0       ?IsAllowedToSpawn@CHalfLifeMultiplay@@UAEHPAVCBaseEntity@@@Z 100a21d0 f   singleplay_gamerules.obj
 0001:000a11d0       ?FPlayerCanRespawn@CHalfLifeRules@@UAEHPAVCBasePlayer@@@Z 100a21d0 f   singleplay_gamerules.obj
 0001:000a11d0       ?FPlayerCanRespawn@CHalfLifeMultiplay@@UAEHPAVCBasePlayer@@@Z 100a21d0 f   singleplay_gamerules.obj
 0001:000a11e0       ?CanHaveItem@CHalfLifeRules@@UAEHPAVCBasePlayer@@PAVCItem@@@Z 100a21e0 f   singleplay_gamerules.obj
 0001:000a11e0       ?IPointsForKill@CHalfLifeRules@@UAEHPAVCBasePlayer@@0@Z 100a21e0 f   singleplay_gamerules.obj
 0001:000a11e0       ?CanHaveItem@CHalfLifeMultiplay@@UAEHPAVCBasePlayer@@PAVCItem@@@Z 100a21e0 f   singleplay_gamerules.obj
 0001:000a11e0       ?IPointsForKill@CHalfLifeMultiplay@@UAEHPAVCBasePlayer@@0@Z 100a21e0 f   singleplay_gamerules.obj
 0001:000a11f0       ?DeathNotice@CHalfLifeRules@@UAEXPAVCBasePlayer@@PAUentvars_s@@1@Z 100a21f0 f   singleplay_gamerules.obj
 0001:000a11f0       ?PlayerKilled@CHalfLifeRules@@UAEXPAVCBasePlayer@@PAUentvars_s@@1@Z 100a21f0 f   singleplay_gamerules.obj
 0001:000a11f0       ?PlayerGotAmmo@CHalfLifeMultiplay@@UAEXPAVCBasePlayer@@PADH@Z 100a21f0 f   singleplay_gamerules.obj
 0001:000a11f0       ?PlayerGotAmmo@CHalfLifeRules@@UAEXPAVCBasePlayer@@PADH@Z 100a21f0 f   singleplay_gamerules.obj
 0001:000a1200       ?PlayerGotItem@CHalfLifeRules@@UAEXPAVCBasePlayer@@PAVCItem@@@Z 100a2200 f   singleplay_gamerules.obj
 0001:000a1200       ?PlayerGotItem@CHalfLifeMultiplay@@UAEXPAVCBasePlayer@@PAVCItem@@@Z 100a2200 f   singleplay_gamerules.obj
 0001:000a1200       ?PlayerGotWeapon@CHalfLifeMultiplay@@UAEXPAVCBasePlayer@@PAVCBasePlayerItem@@@Z 100a2200 f   singleplay_gamerules.obj
 0001:000a1200       ?PlayerGotWeapon@CHalfLifeRules@@UAEXPAVCBasePlayer@@PAVCBasePlayerItem@@@Z 100a2200 f   singleplay_gamerules.obj
 0001:000a1210       ?FlWeaponTryRespawn@CHalfLifeRules@@UAEMPAVCBasePlayerItem@@@Z 100a2210 f   singleplay_gamerules.obj
 0001:000a1220       ?VecItemRespawnSpot@CHalfLifeRules@@UAE?AVVector@@PAVCItem@@@Z 100a2220 f   singleplay_gamerules.obj
 0001:000a1220       ?VecWeaponRespawnSpot@CHalfLifeRules@@UAE?AVVector@@PAVCBasePlayerItem@@@Z 100a2220 f   singleplay_gamerules.obj
 0001:000a1220       ?VecItemRespawnSpot@CHalfLifeMultiplay@@UAE?AVVector@@PAVCItem@@@Z 100a2220 f   singleplay_gamerules.obj
 0001:000a1220       ?VecWeaponRespawnSpot@CHalfLifeMultiplay@@UAE?AVVector@@PAVCBasePlayerItem@@@Z 100a2220 f   singleplay_gamerules.obj
 0001:000a1220       ?VecAmmoRespawnSpot@CHalfLifeMultiplay@@UAE?AVVector@@PAVCBasePlayerAmmo@@@Z 100a2220 f   singleplay_gamerules.obj
 0001:000a1220       ?VecAmmoRespawnSpot@CHalfLifeRules@@UAE?AVVector@@PAVCBasePlayerAmmo@@@Z 100a2220 f   singleplay_gamerules.obj
 0001:000a1250       ?WeaponShouldRespawn@CHalfLifeRules@@UAEHPAVCBasePlayerItem@@@Z 100a2250 f   singleplay_gamerules.obj
 0001:000a1260       ?ItemShouldRespawn@CHalfLifeRules@@UAEHPAVCItem@@@Z 100a2260 f   singleplay_gamerules.obj
 0001:000a1270       ?AmmoShouldRespawn@CHalfLifeRules@@UAEHPAVCBasePlayerAmmo@@@Z 100a2270 f   singleplay_gamerules.obj
 0001:000a1280       ?FlAmmoRespawnTime@CHalfLifeRules@@UAEMPAVCBasePlayerAmmo@@@Z 100a2280 f   singleplay_gamerules.obj
 0001:000a1280       ?FlWeaponRespawnTime@CHalfLifeRules@@UAEMPAVCBasePlayerItem@@@Z 100a2280 f   singleplay_gamerules.obj
 0001:000a1280       ?FlItemRespawnTime@CHalfLifeRules@@UAEMPAVCItem@@@Z 100a2280 f   singleplay_gamerules.obj
 0001:000a1290       ?FlHealthChargerRechargeTime@CHalfLifeRules@@UAEMXZ 100a2290 f   singleplay_gamerules.obj
 0001:000a12a0       ?DeadPlayerWeapons@CHalfLifeRules@@UAEHPAVCBasePlayer@@@Z 100a22a0 f   singleplay_gamerules.obj
 0001:000a12b0       ?DeadPlayerAmmo@CHalfLifeRules@@UAEHPAVCBasePlayer@@@Z 100a22b0 f   singleplay_gamerules.obj
 0001:000a12c0       ?FlHEVChargerRechargeTime@CGameRules@@UAEMXZ 100a22c0 f i singleplay_gamerules.obj
 0001:000a12c0       ?GetDelay@CBaseEntity@@UAEMXZ 100a22c0 f i singleplay_gamerules.obj
 0001:000a12d0       ?GetTeamID@CHalfLifeMultiplay@@UAEPBDPAVCBaseEntity@@@Z 100a22d0 f i singleplay_gamerules.obj
 0001:000a12d0       ?SetDefaultPlayerTeam@CGameRules@@UAEPBDPAVCBasePlayer@@@Z 100a22d0 f i singleplay_gamerules.obj
 0001:000a12d0       ?GetIndexedTeamName@CGameRules@@UAEPBDH@Z 100a22d0 f i singleplay_gamerules.obj
 0001:000a12d0       ?GetTeamID@CHalfLifeRules@@UAEPBDPAVCBaseEntity@@@Z 100a22d0 f i singleplay_gamerules.obj
 0001:000a12e0       ?GetSkillCvar@@YAMPAD@Z    100a22e0 f   skill.obj
 0001:000a1310       _ambient_generic           100a2310 f   sound.obj
 0001:000a1360       ?Save@CAmbientGeneric@@UAEHAAVCSave@@@Z 100a2360 f   sound.obj
 0001:000a13d0       ?Restore@CAmbientGeneric@@UAEHAAVCRestore@@@Z 100a23d0 f   sound.obj
 0001:000a1400       ?Spawn@CAmbientGeneric@@UAEXXZ 100a2400 f   sound.obj
 0001:000a1520       ?Precache@CAmbientGeneric@@UAEXXZ 100a2520 f   sound.obj
 0001:000a1670       ?StartPlayFrom@CAmbientGeneric@@QAEXXZ 100a2670 f   sound.obj
 0001:000a1720       ?RampThink@CAmbientGeneric@@QAEXXZ 100a2720 f   sound.obj
 0001:000a1c20       ?InitModulationParms@CAmbientGeneric@@QAEXXZ 100a2c20 f   sound.obj
 0001:000a1e80       ?ToggleUse@CAmbientGeneric@@QAEXPAVCBaseEntity@@0W4USE_TYPE@@M@Z 100a2e80 f   sound.obj
 0001:000a22b0       ?KeyValue@CAmbientGeneric@@UAEXPAUKeyValueData_s@@@Z 100a32b0 f   sound.obj
 0001:000a2ac0       _env_sound                 100a3ac0 f   sound.obj
 0001:000a2b10       ?Save@CEnvSound@@UAEHAAVCSave@@@Z 100a3b10 f   sound.obj
 0001:000a2b80       ?Restore@CEnvSound@@UAEHAAVCRestore@@@Z 100a3b80 f   sound.obj
 0001:000a2bb0       ?KeyValue@CEnvSound@@UAEXPAUKeyValueData_s@@@Z 100a3bb0 f   sound.obj
 0001:000a2c60       ?FEnvSoundInRange@@YAHPAUentvars_s@@0PAM@Z 100a3c60 f   sound.obj
 0001:000a2dc0       ?Think@CEnvSound@@UAEXXZ   100a3dc0 f   sound.obj
 0001:000a2fa0       ?Spawn@CEnvSound@@UAEXXZ   100a3fa0 f   sound.obj
 0001:000a2fd0       _trigger_sound             100a3fd0 f   sound.obj
 0001:000a3020       ?Save@CTriggerSound@@UAEHAAVCSave@@@Z 100a4020 f   sound.obj
 0001:000a3090       ?Restore@CTriggerSound@@UAEHAAVCRestore@@@Z 100a4090 f   sound.obj
 0001:000a30c0       ?KeyValue@CTriggerSound@@UAEXPAUKeyValueData_s@@@Z 100a40c0 f   sound.obj
 0001:000a3280       ?Touch@CTriggerSound@@UAEXPAVCBaseEntity@@@Z 100a4280 f   sound.obj
 0001:000a3320       ?Spawn@CTriggerSound@@UAEXXZ 100a4320 f   sound.obj
 0001:000a3380       ?USENTENCEG_InitLRU@@YAXPAEH@Z 100a4380 f   sound.obj
 0001:000a33f0       ?USENTENCEG_PickSequential@@YAHHPADHH@Z 100a43f0 f   sound.obj
 0001:000a3510       ?USENTENCEG_Pick@@YAHHPAD@Z 100a4510 f   sound.obj
 0001:000a3650       ?SENTENCEG_GetIndex@@YAHPBD@Z 100a4650 f   sound.obj
 0001:000a36d0       ?SENTENCEG_PlayRndSz@@YAHPAUedict_s@@PBDMMHHH@Z 100a46d0 f   sound.obj
 0001:000a3770       ?SENTENCEG_PlaySequentialSz@@YAHPAUedict_s@@PBDMMHHHH@Z 100a4770 f   sound.obj
 0001:000a3800       ?SENTENCEG_Init@@YAXXZ     100a4800 f   sound.obj
 0001:000a3b10       ?SENTENCEG_Lookup@@YAHPBDPAD@Z 100a4b10 f   sound.obj
 0001:000a3bd0       ?EMIT_SOUND_DYN@@YAXPAUedict_s@@HPBDMMHH@Z 100a4bd0 f   sound.obj
 0001:000a3c80       ?EMIT_SOUND_SUIT@@YAXPAUedict_s@@PBD@Z 100a4c80 f   sound.obj
 0001:000a3d90       ?TEXTURETYPE_Init@@YAXXZ   100a4d90 f   sound.obj
 0001:000a3f70       ?TEXTURETYPE_Find@@YADPAD@Z 100a4f70 f   sound.obj
 0001:000a3fc0       ?TEXTURETYPE_PlaySound@@YAMPAUTraceResult@@VVector@@1HPAD@Z 100a4fc0 f   sound.obj
 0001:000a4560       _speaker                   100a5560 f   sound.obj
 0001:000a45b0       ?Save@CSpeaker@@UAEHAAVCSave@@@Z 100a55b0 f   sound.obj
 0001:000a4620       ?Restore@CSpeaker@@UAEHAAVCRestore@@@Z 100a5620 f   sound.obj
 0001:000a4650       ?Spawn@CSpeaker@@UAEXXZ    100a5650 f   sound.obj
 0001:000a4710       ?Precache@CSpeaker@@UAEXXZ 100a5710 f   sound.obj
 0001:000a4750       ?SpeakerThink@CSpeaker@@QAEXXZ 100a5750 f   sound.obj
 0001:000a48f0       ?ToggleUse@CSpeaker@@QAEXPAVCBaseEntity@@0W4USE_TYPE@@M@Z 100a58f0 f   sound.obj
 0001:000a4960       ?KeyValue@CSpeaker@@UAEXPAUKeyValueData_s@@@Z 100a5960 f   sound.obj
 0001:000a4ad0       _radio_sentence            100a5ad0 f   sound.obj
 0001:000a4b20       ?Spawn@CRadio@@UAEXXZ      100a5b20 f   sound.obj
 0001:000a4b20       ?Spawn@CGrassSprite@@UAEXXZ 100a5b20 f   sound.obj
 0001:000a4b50       ?Precache@CRadio@@UAEXXZ   100a5b50 f   sound.obj
 0001:000a4b90       ?Use@CRadio@@UAEXPAVCBaseEntity@@0W4USE_TYPE@@M@Z 100a5b90 f   sound.obj
 0001:000a4cd0       _soundent                  100a5cd0 f   soundent.obj
 0001:000a4d20       ?Clear@CSound@@QAEXXZ      100a5d20 f   soundent.obj
 0001:000a4d60       ?Reset@CSound@@QAEXXZ      100a5d60 f   soundent.obj
 0001:000a4d90       ?FIsSound@CSound@@QAEHXZ   100a5d90 f   soundent.obj
 0001:000a4da0       ?FIsScent@CSound@@QAEHXZ   100a5da0 f   soundent.obj
 0001:000a4db0       ?Spawn@CSoundEnt@@UAEXXZ   100a5db0 f   soundent.obj
 0001:000a4de0       ?Think@CSoundEnt@@UAEXXZ   100a5de0 f   soundent.obj
 0001:000a4ea0       ?FreeSound@CSoundEnt@@SAXHH@Z 100a5ea0 f   soundent.obj
 0001:000a4f10       ?IAllocSound@CSoundEnt@@QAEHXZ 100a5f10 f   soundent.obj
 0001:000a4f60       ?InsertSound@CSoundEnt@@SAXHABVVector@@HM@Z 100a5f60 f   soundent.obj
 0001:000a4ff0       ?Initialize@CSoundEnt@@QAEXXZ 100a5ff0 f   soundent.obj
 0001:000a50c0       ?ISoundsInList@CSoundEnt@@QAEHH@Z 100a60c0 f   soundent.obj
 0001:000a5120       ?ActiveList@CSoundEnt@@SAHXZ 100a6120 f   soundent.obj
 0001:000a5140       ?SoundPointerForIndex@CSoundEnt@@SAPAVCSound@@H@Z 100a6140 f   soundent.obj
 0001:000a5190       ?ClientSoundIndex@CSoundEnt@@SAHPAUedict_s@@@Z 100a6190 f   soundent.obj
 0001:000a51a0       ?SpectatorConnect@CBaseSpectator@@QAEXXZ 100a61a0 f   spectator.obj
 0001:000a51d0       ?SpectatorImpulseCommand@CBaseSpectator@@AAEXXZ 100a61d0 f   spectator.obj
 0001:000a52b0       ?SpectatorThink@CBaseSpectator@@QAEXXZ 100a62b0 f   spectator.obj
 0001:000a5300       ?Save@CSquadMonster@@UAEHAAVCSave@@@Z 100a6300 f   squadmonster.obj
 0001:000a5370       ?Restore@CSquadMonster@@UAEHAAVCRestore@@@Z 100a6370 f   squadmonster.obj
 0001:000a53a0       ?OccupySlot@CSquadMonster@@QAEHH@Z 100a63a0 f   squadmonster.obj
 0001:000a5440       ?VacateSlot@CSquadMonster@@QAEXXZ 100a6440 f   squadmonster.obj
 0001:000a5490       ?ScheduleChange@CSquadMonster@@UAEXXZ 100a6490 f   squadmonster.obj
 0001:000a54a0       ?Killed@CSquadMonster@@UAEXPAUentvars_s@@H@Z 100a64a0 f   squadmonster.obj
 0001:000a54f0       ?SquadRemove@CSquadMonster@@QAEXPAV1@@Z 100a64f0 f   squadmonster.obj
 0001:000a55b0       ?SquadAdd@CSquadMonster@@QAEHPAV1@@Z 100a65b0 f   squadmonster.obj
 0001:000a5610       ?SquadPasteEnemyInfo@CSquadMonster@@QAEXXZ 100a6610 f   squadmonster.obj
 0001:000a5650       ?SquadCopyEnemyInfo@CSquadMonster@@QAEXXZ 100a6650 f   squadmonster.obj
 0001:000a5690       ?SquadMakeEnemy@CSquadMonster@@QAEXPAVCBaseEntity@@@Z 100a6690 f   squadmonster.obj
 0001:000a57a0       ?SquadCount@CSquadMonster@@QAEHXZ 100a67a0 f   squadmonster.obj
 0001:000a5800       ?SquadRecruit@CSquadMonster@@QAEHHH@Z 100a6800 f   squadmonster.obj
 0001:000a5ac0       ?CheckEnemy@CSquadMonster@@UAEHPAVCBaseEntity@@@Z 100a6ac0 f   squadmonster.obj
 0001:000a5b40       ?StartMonster@CSquadMonster@@UAEXXZ 100a6b40 f   squadmonster.obj
 0001:000a5bb0       ?NoFriendlyFire@CSquadMonster@@QAEHXZ 100a6bb0 f   squadmonster.obj
 0001:000a5bc0       ?NoFriendlyFire@CSquadMonster@@QAEHH@Z 100a6bc0 f   squadmonster.obj
 0001:000a5ec0       ?GetIdealState@CSquadMonster@@UAE?AW4MONSTERSTATE@@XZ 100a6ec0 f   squadmonster.obj
 0001:000a5f10       ?FValidateCover@CSquadMonster@@UAEHABVVector@@@Z 100a6f10 f   squadmonster.obj
 0001:000a5f50       ?SquadEnemySplit@CSquadMonster@@QAEHXZ 100a6f50 f   squadmonster.obj
 0001:000a5fe0       ?SquadMemberInRange@CSquadMonster@@QAEHABVVector@@M@Z 100a6fe0 f   squadmonster.obj
 0001:000a6080       ?GetScheduleOfType@CSquadMonster@@UAEPAUSchedule_t@@H@Z 100a7080 f   squadmonster.obj
 0001:000a60a0       _monster_snark             100a70a0 f   squeakgrenade.obj
 0001:000a6120       ?Save@CSqueakGrenade@@EAEHAAVCSave@@@Z 100a7120 f   squeakgrenade.obj
 0001:000a6190       ?Restore@CSqueakGrenade@@EAEHAAVCRestore@@@Z 100a7190 f   squeakgrenade.obj
 0001:000a61c0       ?Classify@CSqueakGrenade@@EAEHXZ 100a71c0 f   squeakgrenade.obj
 0001:000a6230       ?Spawn@CSqueakGrenade@@EAEXXZ 100a7230 f   squeakgrenade.obj
 0001:000a63d0       ?Precache@CSqueakGrenade@@EAEXXZ 100a73d0 f   squeakgrenade.obj
 0001:000a6430       ?Killed@CSqueakGrenade@@EAEXPAUentvars_s@@H@Z 100a7430 f   squeakgrenade.obj
 0001:000a6550       ?GibMonster@CSqueakGrenade@@EAEXXZ 100a7550 f   squeakgrenade.obj
 0001:000a6580       ?HuntThink@CSqueakGrenade@@AAEXXZ 100a7580 f   squeakgrenade.obj
 0001:000a6b80       ?SuperBounceTouch@CSqueakGrenade@@AAEXPAVCBaseEntity@@@Z 100a7b80 f   squeakgrenade.obj
 0001:000a6e60       _weapon_snark              100a7e60 f   squeakgrenade.obj
 0001:000a6eb0       ?Spawn@CSqueak@@UAEXXZ     100a7eb0 f   squeakgrenade.obj
 0001:000a6f20       ?Precache@CSqueak@@UAEXXZ  100a7f20 f   squeakgrenade.obj
 0001:000a6f80       ?GetItemInfo@CSqueak@@UAEHPAUItemInfo@@@Z 100a7f80 f   squeakgrenade.obj
 0001:000a6ff0       ?Deploy@CSqueak@@UAEHXZ    100a7ff0 f   squeakgrenade.obj
 0001:000a7080       ?Holster@CSqueak@@UAEXH@Z  100a8080 f   squeakgrenade.obj
 0001:000a7120       ?PrimaryAttack@CSqueak@@UAEXXZ 100a8120 f   squeakgrenade.obj
 0001:000a7410       ?WeaponIdle@CSqueak@@UAEXXZ 100a8410 f   squeakgrenade.obj
 0001:000a7530       ?Spawn@CNullEntity@@UAEXXZ 100a8530 f   subs.obj
 0001:000a7550       _info_texlights            100a8550 f   subs.obj
 0001:000a7550       _info_null                 100a8550 f   subs.obj
 0001:000a7550       _info_compile_parameters   100a8550 f   subs.obj
 0001:000a75a0       _info_player_deathmatch    100a85a0 f   subs.obj
 0001:000a75f0       _info_teleport_destination 100a85f0 f   subs.obj
 0001:000a75f0       _info_landmark             100a85f0 f   subs.obj
 0001:000a75f0       _info_player_start         100a85f0 f   subs.obj
 0001:000a75f0       _motion_thread             100a85f0 f   subs.obj
 0001:000a7640       ?KeyValue@CBaseDMStart@@UAEXPAUKeyValueData_s@@@Z 100a8640 f   subs.obj
 0001:000a77b0       ?GetState@CBaseDMStart@@UAE?AW4STATE@@PAVCBaseEntity@@@Z 100a87b0 f   subs.obj
 0001:000a77e0       ?UpdateOnRemove@CBaseEntity@@QAEXXZ 100a87e0 f   subs.obj
 0001:000a7910       ?SUB_Remove@CBaseEntity@@QAEXXZ 100a8910 f   subs.obj
 0001:000a7960       ?Save@CBaseDelay@@UAEHAAVCSave@@@Z 100a8960 f   subs.obj
 0001:000a79d0       ?Restore@CBaseDelay@@UAEHAAVCRestore@@@Z 100a89d0 f   subs.obj
 0001:000a7a00       ?KeyValue@CBaseDelay@@UAEXPAUKeyValueData_s@@@Z 100a8a00 f   subs.obj
 0001:000a7bc0       ?SUB_UseTargets@CBaseEntity@@QAEXPAV1@W4USE_TYPE@@M@Z 100a8bc0 f   subs.obj
 0001:000a7c00       ?FireTargets@@YAXPBDPAVCBaseEntity@@1W4USE_TYPE@@M@Z 100a8c00 f   subs.obj
 0001:000a7dd0       _DelayedUse                100a8dd0 f   subs.obj
 0001:000a7e20       ?SUB_UseTargets@CBaseDelay@@QAEXPAVCBaseEntity@@W4USE_TYPE@@M@Z 100a8e20 f   subs.obj
 0001:000a7fa0       ?SetMovedir@@YAXPAUentvars_s@@@Z 100a8fa0 f   subs.obj
 0001:000a8010       ?GetMovedir@@YA?AVVector@@V1@@Z 100a9010 f   subs.obj
 0001:000a80d0       ?DelayThink@CBaseDelay@@QAEXXZ 100a90d0 f   subs.obj
 0001:000a8110       ?Save@CBaseToggle@@UAEHAAVCSave@@@Z 100a9110 f   subs.obj
 0001:000a8180       ?Restore@CBaseToggle@@UAEHAAVCRestore@@@Z 100a9180 f   subs.obj
 0001:000a81b0       ?KeyValue@CBaseToggle@@UAEXPAUKeyValueData_s@@@Z 100a91b0 f   subs.obj
 0001:000a8320       ?LinearMove@CBaseToggle@@QAEXVVector@@M@Z 100a9320 f   subs.obj
 0001:000a8360       ?LinearMoveNow@CBaseToggle@@QAEXXZ 100a9360 f   subs.obj
 0001:000a84a0       ?LinearMoveDone@CBaseToggle@@QAEXXZ 100a94a0 f   subs.obj
 0001:000a84b0       ?LinearMoveDoneNow@CBaseToggle@@QAEXXZ 100a94b0 f   subs.obj
 0001:000a8590       ?IsLockedByMaster@CBaseToggle@@QAEHXZ 100a9590 f   subs.obj
 0001:000a85c0       ?GetState@CBaseToggle@@UAE?AW4STATE@@XZ 100a95c0 f   subs.obj
 0001:000a8600       ?AngularMove@CBaseToggle@@QAEXVVector@@M@Z 100a9600 f   subs.obj
 0001:000a8640       ?AngularMoveNow@CBaseToggle@@QAEXXZ 100a9640 f   subs.obj
 0001:000a8780       ?AngularMoveDone@CBaseToggle@@QAEXXZ 100a9780 f   subs.obj
 0001:000a8790       ?AngularMoveDoneNow@CBaseToggle@@QAEXXZ 100a9790 f   subs.obj
 0001:000a8830       ?AxisDir@CBaseToggle@@SAXPAUentvars_s@@@Z 100a9830 f   subs.obj
 0001:000a8920       ?AxisDelta@CBaseToggle@@SAMHABVVector@@0@Z 100a9920 f   subs.obj
 0001:000a8960       _info_movewith             100a9960 f   subs.obj
 0001:000a89b0       ?ObjectCaps@CTriggerChangeTarget@@UAEHXZ 100a99b0 f i subs.obj
 0001:000a89b0       ?ObjectCaps@CBaseTrigger@@UAEHXZ 100a99b0 f i subs.obj
 0001:000a89b0       ?ObjectCaps@CFuncWall@@UAEHXZ 100a99b0 f i subs.obj
 0001:000a89b0       ?ObjectCaps@CTriggerChangeCVar@@UAEHXZ 100a99b0 f i subs.obj
 0001:000a89b0       ?ObjectCaps@CTriggerCamera@@UAEHXZ 100a99b0 f i subs.obj
 0001:000a89b0       ?ObjectCaps@CPointEntity@@UAEHXZ 100a99b0 f i subs.obj
 0001:000a89b0       ?ObjectCaps@CRenderFxFader@@UAEHXZ 100a99b0 f i subs.obj
 0001:000a89b0       ?ObjectCaps@CGunTarget@@UAEHXZ 100a99b0 f i subs.obj
 0001:000a89b0       ?ObjectCaps@CEnvFootsteps@@UAEHXZ 100a99b0 f i subs.obj
 0001:000a89b0       ?ObjectCaps@CActAnimating@@UAEHXZ 100a99b0 f i subs.obj
 0001:000a89b0       ?ObjectCaps@CTentacle@@UAEHXZ 100a99b0 f i subs.obj
 0001:000a89b0       ?ObjectCaps@CStartRush@@UAEHXZ 100a99b0 f i subs.obj
 0001:000a89b0       ?ObjectCaps@CFrictionModifier@@UAEHXZ 100a99b0 f i subs.obj
 0001:000a89b0       ?ObjectCaps@CRainSettings@@UAEHXZ 100a99b0 f i subs.obj
 0001:000a89b0       ?ObjectCaps@CTriggerCommand@@UAEHXZ 100a99b0 f i subs.obj
 0001:000a89b0       ?ObjectCaps@CSpeaker@@UAEHXZ 100a99b0 f i subs.obj
 0001:000a89b0       ?ObjectCaps@CScriptedSentence@@UAEHXZ 100a99b0 f i subs.obj
 0001:000a89b0       ?ObjectCaps@CLightDynamic@@UAEHXZ 100a99b0 f i subs.obj
 0001:000a89b0       ?ObjectCaps@CTriggerSetPatrol@@UAEHXZ 100a99b0 f i subs.obj
 0001:000a89b0       ?ObjectCaps@CBasePlayer@@UAEHXZ 100a99b0 f i subs.obj
 0001:000a89b0       ?ObjectCaps@CBasePlatTrain@@UAEHXZ 100a99b0 f i subs.obj
 0001:000a89b0       ?ObjectCaps@CRainModify@@UAEHXZ 100a99b0 f i subs.obj
 0001:000a89b0       ?ObjectCaps@CTriggerGoal@@UAEHXZ 100a99b0 f i subs.obj
 0001:000a89b0       ?ObjectCaps@CTriggerMP3@@UAEHXZ 100a99b0 f i subs.obj
 0001:000a89b0       ?ObjectCaps@COsprey@@UAEHXZ 100a99b0 f i subs.obj
 0001:000a89b0       ?ObjectCaps@CPendulum@@UAEHXZ 100a99b0 f i subs.obj
 0001:000a89b0       ?ObjectCaps@CTriggerTextWindow@@UAEHXZ 100a99b0 f i subs.obj
 0001:000a89b0       ?ObjectCaps@CFuncMortarField@@UAEHXZ 100a99b0 f i subs.obj
 0001:000a89b0       ?ObjectCaps@CEnvRain@@UAEHXZ 100a99b0 f i subs.obj
 0001:000a89b0       ?ObjectCaps@CTriggerSound@@UAEHXZ 100a99b0 f i subs.obj
 0001:000a89b0       ?ObjectCaps@CStateWatcher@@UAEHXZ 100a99b0 f i subs.obj
 0001:000a89b0       ?ObjectCaps@CTriggerChangeAlias@@UAEHXZ 100a99b0 f i subs.obj
 0001:000a89b0       ?ObjectCaps@CInfoMoveWith@@UAEHXZ 100a99b0 f i subs.obj
 0001:000a89b0       ?ObjectCaps@CMultiManager@@UAEHXZ 100a99b0 f i subs.obj
 0001:000a89b0       ?ObjectCaps@CTriggerRelay@@UAEHXZ 100a99b0 f i subs.obj
 0001:000a89b0       ?ObjectCaps@CEnvWarpBall@@UAEHXZ 100a99b0 f i subs.obj
 0001:000a89b0       ?ObjectCaps@CTriggerOnSight@@UAEHXZ 100a99b0 f i subs.obj
 0001:000a89b0       ?ObjectCaps@CGasArea@@UAEHXZ 100a99b0 f i subs.obj
 0001:000a89b0       ?ObjectCaps@CBreakable@@UAEHXZ 100a99b0 f i subs.obj
 0001:000a89b0       ?ObjectCaps@CEnvModel@@EAEHXZ 100a99b0 f i subs.obj
 0001:000a89b0       ?ObjectCaps@CFuncTank@@UAEHXZ 100a99b0 f i subs.obj
 0001:000a89b0       ?ObjectCaps@CMomentaryDoor@@UAEHXZ 100a99b0 f i subs.obj
 0001:000a89b0       ?ObjectCaps@CCineMonster@@UAEHXZ 100a99b0 f i subs.obj
 0001:000a89b0       ?ObjectCaps@CWatcherCount@@UAEHXZ 100a99b0 f i subs.obj
 0001:000a89b0       ?ObjectCaps@CFuncShine@@UAEHXZ 100a99b0 f i subs.obj
 0001:000a89b0       ?ObjectCaps@CFuncTrainControls@@UAEHXZ 100a99b0 f i subs.obj
 0001:000a89b0       ?ObjectCaps@CAutoTrigger@@UAEHXZ 100a99b0 f i subs.obj
 0001:000a89b0       ?ObjectCaps@CBubbling@@UAEHXZ 100a99b0 f i subs.obj
 0001:000a89b0       ?ObjectCaps@CFuncIllusionary@@UAEHXZ 100a99b0 f i subs.obj
 0001:000a89b0       ?ObjectCaps@CAmbientGeneric@@UAEHXZ 100a99b0 f i subs.obj
 0001:000a89b0       ?ObjectCaps@CEnvCustomize@@UAEHXZ 100a99b0 f i subs.obj
 0001:000a89b0       ?ObjectCaps@CNodeEnt@@EAEHXZ 100a99b0 f i subs.obj
 0001:000a89b0       ?ObjectCaps@CFuncRotating@@UAEHXZ 100a99b0 f i subs.obj
 0001:000a89b0       ?ObjectCaps@CFurniture@@UAEHXZ 100a99b0 f i subs.obj
 0001:000a89b0       ?ObjectCaps@CTestHull@@UAEHXZ 100a99b0 f i subs.obj
 0001:000a89b0       ?ObjectCaps@CTriggerChangeValue@@UAEHXZ 100a99b0 f i subs.obj
 0001:000a89d0       ?Spawn@CInfoMoveWith@@UAEXXZ 100a99d0 f   subs.obj
 0001:000a8a10       ?Use@CInfoMoveWith@@UAEXPAVCBaseEntity@@0W4USE_TYPE@@M@Z 100a9a10 f   subs.obj
 0001:000a8bd0       ?Save@CTalkMonster@@UAEHAAVCSave@@@Z 100a9bd0 f   talkmonster.obj
 0001:000a8c40       ?Restore@CTalkMonster@@UAEHAAVCRestore@@@Z 100a9c40 f   talkmonster.obj
 0001:000a8c70       ?ScheduleFromName@CTalkMonster@@UAEPAUSchedule_t@@PBD@Z 100a9c70 f   talkmonster.obj
 0001:000a8ca0       ?SetActivity@CTalkMonster@@UAEXW4Activity@@@Z 100a9ca0 f   talkmonster.obj
 0001:000a8cb0       ?StartTask@CTalkMonster@@UAEXPAUTask_t@@@Z 100a9cb0 f   talkmonster.obj
 0001:000a9080       ?RunTask@CTalkMonster@@UAEXPAUTask_t@@@Z 100aa080 f   talkmonster.obj
 0001:000a9410       ?Killed@CTalkMonster@@UAEXPAUentvars_s@@H@Z 100aa410 f   talkmonster.obj
 0001:000a94e0       ?EnumFriends@CTalkMonster@@QAEPAVCBaseEntity@@PAV2@HH@Z 100aa4e0 f   talkmonster.obj
 0001:000a95d0       ?AlertFriends@CTalkMonster@@QAEXXZ 100aa5d0 f   talkmonster.obj
 0001:000a9630       ?ShutUpFriends@CTalkMonster@@QAEXXZ 100aa630 f   talkmonster.obj
 0001:000a9680       ?LimitFollowers@CTalkMonster@@QAEXPAVCBaseEntity@@H@Z 100aa680 f   talkmonster.obj
 0001:000a9700       ?TargetDistance@CTalkMonster@@QAEMXZ 100aa700 f   talkmonster.obj
 0001:000a9780       ?HandleAnimEvent@CTalkMonster@@UAEXPAUMonsterEvent_t@@@Z 100aa780 f   talkmonster.obj
 0001:000a97f0       ?TalkInit@CTalkMonster@@QAEXXZ 100aa7f0 f   talkmonster.obj
 0001:000a9e20       ?FindNearestFriend@CTalkMonster@@QAEPAVCBaseEntity@@H@Z 100aae20 f   talkmonster.obj
 0001:000aa040       ?GetVoicePitch@CTalkMonster@@QAEHXZ 100ab040 f   talkmonster.obj
 0001:000aa060       ?Touch@CTalkMonster@@UAEXPAVCBaseEntity@@@Z 100ab060 f   talkmonster.obj
 0001:000aa0e0       ?IdleRespond@CTalkMonster@@QAEXXZ 100ab0e0 f   talkmonster.obj
 0001:000aa120       ?FOkToSpeak@CTalkMonster@@UAEHXZ 100ab120 f   talkmonster.obj
 0001:000aa1e0       ?CanPlaySentence@CTalkMonster@@UAEHH@Z 100ab1e0 f   talkmonster.obj
 0001:000aa200       ?FIdleStare@CTalkMonster@@QAEHXZ 100ab200 f   talkmonster.obj
 0001:000aa260       ?FIdleHello@CTalkMonster@@QAEHXZ 100ab260 f   talkmonster.obj
 0001:000aa340       ?IdleHeadTurn@CTalkMonster@@QAEXAAVVector@@@Z 100ab340 f   talkmonster.obj
 0001:000aa3e0       ?FIdleSpeak@CTalkMonster@@QAEHXZ 100ab3e0 f   talkmonster.obj
 0001:000aa700       ?PlayScriptedSentence@CTalkMonster@@UAEXPBDMMMHPAVCBaseEntity@@@Z 100ab700 f   talkmonster.obj
 0001:000aa760       ?PlaySentence@CTalkMonster@@UAEXPBDMMM@Z 100ab760 f   talkmonster.obj
 0001:000aa800       ?Talk@CTalkMonster@@QAEXM@Z 100ab800 f   talkmonster.obj
 0001:000aa840       ?SetAnswerQuestion@CTalkMonster@@UAEXPAV1@@Z 100ab840 f   talkmonster.obj
 0001:000aa870       ?TakeDamage@CTalkMonster@@UAEHPAUentvars_s@@0MH@Z 100ab870 f   talkmonster.obj
 0001:000aa8f0       ?GetScheduleOfType@CTalkMonster@@UAEPAUSchedule_t@@H@Z 100ab8f0 f   talkmonster.obj
 0001:000aabb0       ?IsTalking@CTalkMonster@@QAEHXZ 100abbb0 f   talkmonster.obj
 0001:000aabd0       ?PrescheduleThink@CTalkMonster@@UAEXXZ 100abbd0 f   talkmonster.obj
 0001:000aabf0       ?TrySmellTalk@CTalkMonster@@QAEXXZ 100abbf0 f   talkmonster.obj
 0001:000aaca0       ?IRelationship@CTalkMonster@@UAEHPAVCBaseEntity@@@Z 100abca0 f   talkmonster.obj
 0001:000aace0       ?StopFollowing@CTalkMonster@@UAEXHH@Z 100abce0 f   talkmonster.obj
 0001:000aadb0       ?StartFollowing@CTalkMonster@@QAEXPAVCBaseEntity@@H@Z 100abdb0 f   talkmonster.obj
 0001:000aae60       ?CanFollow@CTalkMonster@@QAEHXZ 100abe60 f   talkmonster.obj
 0001:000aae90       ?FollowerUse@CTalkMonster@@QAEXPAVCBaseEntity@@0W4USE_TYPE@@M@Z 100abe90 f   talkmonster.obj
 0001:000ab030       ?KeyValue@CTalkMonster@@UAEXPAUKeyValueData_s@@@Z 100ac030 f   talkmonster.obj
 0001:000ab1a0       ?Precache@CTalkMonster@@UAEXXZ 100ac1a0 f   talkmonster.obj
 0001:000ab200       ??0CHalfLifeTeamplay@@QAE@XZ 100ac200 f   teamplay_gamerules.obj
 0001:000ab2e0       ?Think@CHalfLifeTeamplay@@UAEXXZ 100ac2e0 f   teamplay_gamerules.obj
 0001:000ab470       ?ClientCommand@CHalfLifeTeamplay@@UAEHPAVCBasePlayer@@PBD@Z 100ac470 f   teamplay_gamerules.obj
 0001:000ab510       ?UpdateGameMode@CHalfLifeTeamplay@@UAEXPAVCBasePlayer@@@Z 100ac510 f   teamplay_gamerules.obj
 0001:000ab550       ?SetDefaultPlayerTeam@CHalfLifeTeamplay@@UAEPBDPAVCBasePlayer@@@Z 100ac550 f   teamplay_gamerules.obj
 0001:000ab620       ?InitHUD@CHalfLifeTeamplay@@UAEXPAVCBasePlayer@@@Z 100ac620 f   teamplay_gamerules.obj
 0001:000ab810       ?ChangePlayerTeam@CHalfLifeTeamplay@@UAEXPAVCBasePlayer@@PBDHH@Z 100ac810 f   teamplay_gamerules.obj
 0001:000ab980       ?ClientUserInfoChanged@CHalfLifeTeamplay@@UAEXPAVCBasePlayer@@PAD@Z 100ac980 f   teamplay_gamerules.obj
 0001:000abbb0       ?DeathNotice@CHalfLifeTeamplay@@UAEXPAVCBasePlayer@@PAUentvars_s@@1@Z 100acbb0 f   teamplay_gamerules.obj
 0001:000abc90       ?PlayerKilled@CHalfLifeTeamplay@@UAEXPAVCBasePlayer@@PAUentvars_s@@1@Z 100acc90 f   teamplay_gamerules.obj
 0001:000abcc0       ?FPlayerCanTakeDamage@CHalfLifeTeamplay@@UAEHPAVCBasePlayer@@PAVCBaseEntity@@@Z 100accc0 f   teamplay_gamerules.obj
 0001:000abd10       ?PlayerRelationship@CHalfLifeTeamplay@@UAEHPAVCBaseEntity@@0@Z 100acd10 f   teamplay_gamerules.obj
 0001:000abd90       ?ShouldAutoAim@CHalfLifeTeamplay@@UAEHPAVCBasePlayer@@PAUedict_s@@@Z 100acd90 f   teamplay_gamerules.obj
 0001:000abdf0       ?IPointsForKill@CHalfLifeTeamplay@@UAEHPAVCBasePlayer@@0@Z 100acdf0 f   teamplay_gamerules.obj
 0001:000abe30       ?GetTeamID@CHalfLifeTeamplay@@UAEPBDPAVCBaseEntity@@@Z 100ace30 f   teamplay_gamerules.obj
 0001:000abe60       ?GetTeamIndex@CHalfLifeTeamplay@@UAEHPBD@Z 100ace60 f   teamplay_gamerules.obj
 0001:000abeb0       ?GetIndexedTeamName@CHalfLifeTeamplay@@UAEPBDH@Z 100aceb0 f   teamplay_gamerules.obj
 0001:000abee0       ?IsValidTeam@CHalfLifeTeamplay@@UAEHPBD@Z 100acee0 f   teamplay_gamerules.obj
 0001:000abf10       ?TeamWithFewestPlayers@CHalfLifeTeamplay@@AAEPBDXZ 100acf10 f   teamplay_gamerules.obj
 0001:000abfc0       ?RecountTeams@CHalfLifeTeamplay@@AAEX_N@Z 100acfc0 f   teamplay_gamerules.obj
 0001:000ac1d0       ?GetGameDescription@CHalfLifeTeamplay@@UAEPBDXZ 100ad1d0 f i teamplay_gamerules.obj
 0001:000ac1e0       _monster_tentacle          100ad1e0 f   tentacle.obj
 0001:000ac230       ?Save@CTentacle@@UAEHAAVCSave@@@Z 100ad230 f   tentacle.obj
 0001:000ac2a0       ?Restore@CTentacle@@UAEHAAVCRestore@@@Z 100ad2a0 f   tentacle.obj
 0001:000ac2d0       ?Classify@CHoundeye@@UAEHXZ 100ad2d0 f   tentacle.obj
 0001:000ac2d0       ?Classify@CZombie@@UAEHXZ  100ad2d0 f   tentacle.obj
 0001:000ac2d0       ?Classify@CTentacle@@UAEHXZ 100ad2d0 f   tentacle.obj
 0001:000ac2d0       ?Classify@CGargantua@@UAEHXZ 100ad2d0 f   tentacle.obj
 0001:000ac2d0       ?Classify@CBarnacle@@UAEHXZ 100ad2d0 f   tentacle.obj
 0001:000ac2d0       ?Classify@CBloater@@UAEHXZ 100ad2d0 f   tentacle.obj
 0001:000ac2d0       ?Classify@CBigMomma@@UAEHXZ 100ad2d0 f   tentacle.obj
 0001:000ac2d0       ?Classify@CIchthyosaur@@UAEHXZ 100ad2d0 f   tentacle.obj
 0001:000ac2e0       ?Spawn@CTentacle@@UAEXXZ   100ad2e0 f   tentacle.obj
 0001:000ac450       ?Precache@CTentacle@@UAEXXZ 100ad450 f   tentacle.obj
 0001:000ac580       ??0CTentacle@@QAE@XZ       100ad580 f   tentacle.obj
 0001:000ac5b0       ?SetObjectCollisionBox@CTentacle@@UAEXXZ 100ad5b0 f i tentacle.obj
 0001:000ac650       ?HearingSensitivity@CTentacle@@UAEMXZ 100ad650 f i tentacle.obj
 0001:000ac660       ?KeyValue@CTentacle@@UAEXPAUKeyValueData_s@@@Z 100ad660 f   tentacle.obj
 0001:000ac730       ?Level@CTentacle@@QAEHM@Z  100ad730 f   tentacle.obj
 0001:000ac780       ?MyHeight@CTentacle@@QAEMXZ 100ad780 f   tentacle.obj
 0001:000ac7b0       ?MyLevel@CTentacle@@QAEHXZ 100ad7b0 f   tentacle.obj
 0001:000ac830       ?Test@CTentacle@@QAEXXZ    100ad830 f   tentacle.obj
 0001:000ac870       ?Cycle@CTentacle@@QAEXXZ   100ad870 f   tentacle.obj
 0001:000ad1c0       ?CommandUse@CTentacle@@QAEXPAVCBaseEntity@@0W4USE_TYPE@@M@Z 100ae1c0 f   tentacle.obj
 0001:000ad240       ?DieThink@CTentacle@@QAEXXZ 100ae240 f   tentacle.obj
 0001:000ad3f0       ?HandleAnimEvent@CTentacle@@UAEXPAUMonsterEvent_t@@@Z 100ae3f0 f   tentacle.obj
 0001:000ad7f0       ?Start@CTentacle@@QAEXXZ   100ae7f0 f   tentacle.obj
 0001:000ad890       ?HitTouch@CTentacle@@QAEXPAVCBaseEntity@@@Z 100ae890 f   tentacle.obj
 0001:000ad930       ?TakeDamage@CTentacle@@UAEHPAUentvars_s@@0MH@Z 100ae930 f   tentacle.obj
 0001:000ad970       ?Killed@CTentacle@@UAEXPAUentvars_s@@H@Z 100ae970 f   tentacle.obj
 0001:000ad980       _monster_tentaclemaw       100ae980 f   tentacle.obj
 0001:000ad9e0       ?Spawn@CTentacleMaw@@UAEXXZ 100ae9e0 f   tentacle.obj
 0001:000adaa0       ?Precache@CTentacleMaw@@UAEXXZ 100aeaa0 f   tentacle.obj
 0001:000adab0       _func_friction             100aeab0 f   triggers.obj
 0001:000adb00       ?Save@CFrictionModifier@@UAEHAAVCSave@@@Z 100aeb00 f   triggers.obj
 0001:000adb70       ?Restore@CFrictionModifier@@UAEHAAVCRestore@@@Z 100aeb70 f   triggers.obj
 0001:000adba0       ?Spawn@CFrictionModifier@@UAEXXZ 100aeba0 f   triggers.obj
 0001:000adbf0       ?ChangeFriction@CFrictionModifier@@QAEXPAVCBaseEntity@@@Z 100aebf0 f   triggers.obj
 0001:000adc20       ?KeyValue@CFrictionModifier@@UAEXPAUKeyValueData_s@@@Z 100aec20 f   triggers.obj
 0001:000add90       _trigger_auto              100aed90 f   triggers.obj
 0001:000adde0       ?Save@CAutoTrigger@@UAEHAAVCSave@@@Z 100aede0 f   triggers.obj
 0001:000ade50       ?Restore@CAutoTrigger@@UAEHAAVCRestore@@@Z 100aee50 f   triggers.obj
 0001:000ade80       ?KeyValue@CAutoTrigger@@UAEXPAUKeyValueData_s@@@Z 100aee80 f   triggers.obj
 0001:000adf80       ?Activate@CAutoTrigger@@UAEXXZ 100aef80 f   triggers.obj
 0001:000adfa0       ?DesiredAction@CAutoTrigger@@UAEXXZ 100aefa0 f   triggers.obj
 0001:000ae030       _trigger_relay             100af030 f   triggers.obj
 0001:000ae080       ?Save@CTriggerRelay@@UAEHAAVCSave@@@Z 100af080 f   triggers.obj
 0001:000ae0f0       ?Restore@CTriggerRelay@@UAEHAAVCRestore@@@Z 100af0f0 f   triggers.obj
 0001:000ae120       ?KeyValue@CTriggerRelay@@UAEXPAUKeyValueData_s@@@Z 100af120 f   triggers.obj
 0001:000ae2d0       ?Use@CTriggerRelay@@UAEXPAVCBaseEntity@@0W4USE_TYPE@@M@Z 100af2d0 f   triggers.obj
 0001:000ae680       _trigger_rottest           100af680 f   triggers.obj
 0001:000ae6d0       ?Save@CTriggerRotTest@@UAEHAAVCSave@@@Z 100af6d0 f   triggers.obj
 0001:000ae740       ?Restore@CTriggerRotTest@@UAEHAAVCRestore@@@Z 100af740 f   triggers.obj
 0001:000ae770       ?PostSpawn@CTriggerRotTest@@UAEXXZ 100af770 f   triggers.obj
 0001:000ae840       ?Think@CTriggerRotTest@@UAEXXZ 100af840 f   triggers.obj
 0001:000aeac0       _multi_manager             100afac0 f   triggers.obj
 0001:000aeb10       ?Save@CMultiManager@@UAEHAAVCSave@@@Z 100afb10 f   triggers.obj
 0001:000aeb80       ?Restore@CMultiManager@@UAEHAAVCRestore@@@Z 100afb80 f   triggers.obj
 0001:000aebb0       ?KeyValue@CMultiManager@@UAEXPAUKeyValueData_s@@@Z 100afbb0 f   triggers.obj
 0001:000aef30       ?Spawn@CMultiManager@@UAEXXZ 100aff30 f   triggers.obj
 0001:000af030       ?HasTarget@CMultiManager@@UAEHH@Z 100b0030 f   triggers.obj
 0001:000af0c0       ?UseThink@CMultiManager@@QAEXXZ 100b00c0 f   triggers.obj
 0001:000af0e0       ?ManagerThink@CMultiManager@@QAEXXZ 100b00e0 f   triggers.obj
 0001:000af7a0       ?Clone@CMultiManager@@AAEPAV1@XZ 100b07a0 f   triggers.obj
 0001:000af8a0       ?ManagerUse@CMultiManager@@QAEXPAVCBaseEntity@@0W4USE_TYPE@@M@Z 100b08a0 f   triggers.obj
 0001:000afc80       _watcher                   100b0c80 f   triggers.obj
 0001:000afc80       _multi_watcher             100b0c80 f   triggers.obj
 0001:000afcd0       ?Save@CStateWatcher@@UAEHAAVCSave@@@Z 100b0cd0 f   triggers.obj
 0001:000afd40       ?Restore@CStateWatcher@@UAEHAAVCRestore@@@Z 100b0d40 f   triggers.obj
 0001:000afd70       ?KeyValue@CStateWatcher@@UAEXPAUKeyValueData_s@@@Z 100b0d70 f   triggers.obj
 0001:000aff10       ?Spawn@CStateWatcher@@UAEXXZ 100b0f10 f   triggers.obj
 0001:000aff40       ?GetState@CStateWatcher@@UAE?AW4STATE@@XZ 100b0f40 f   triggers.obj
 0001:000aff50       ?GetState@CStateWatcher@@UAE?AW4STATE@@PAVCBaseEntity@@@Z 100b0f50 f   triggers.obj
 0001:000aff70       ?Think@CStateWatcher@@UAEXXZ 100b0f70 f   triggers.obj
 0001:000b0020       ?EvalLogic@CStateWatcher@@QAEHPAVCBaseEntity@@@Z 100b1020 f   triggers.obj
 0001:000b0190       _watcher_count             100b1190 f   triggers.obj
 0001:000b01e0       ?GetState@CWatcherCount@@UAE?AW4STATE@@XZ 100b11e0 f i triggers.obj
 0001:000b01f0       ?Spawn@CWatcherCount@@UAEXXZ 100b11f0 f   triggers.obj
 0001:000b0210       ?Think@CWatcherCount@@UAEXXZ 100b1210 f   triggers.obj
 0001:000b03d0       ?Save@CRenderFxFader@@UAEHAAVCSave@@@Z 100b13d0 f   triggers.obj
 0001:000b0440       ?Restore@CRenderFxFader@@UAEHAAVCRestore@@@Z 100b1440 f   triggers.obj
 0001:000b0470       ?Spawn@CRenderFxFader@@UAEXXZ 100b1470 f   triggers.obj
 0001:000b0480       ?FadeThink@CRenderFxFader@@QAEXXZ 100b1480 f   triggers.obj
 0001:000b06c0       _env_render                100b16c0 f   triggers.obj
 0001:000b0710       ?KeyValue@CRenderFxManager@@UAEXPAUKeyValueData_s@@@Z 100b1710 f   triggers.obj
 0001:000b0880       ?Use@CRenderFxManager@@UAEXPAVCBaseEntity@@0W4USE_TYPE@@M@Z 100b1880 f   triggers.obj
 0001:000b0920       ?Affect@CRenderFxManager@@QAEXPAVCBaseEntity@@H0@Z 100b1920 f   triggers.obj
 0001:000b0c80       _env_customize             100b1c80 f   triggers.obj
 0001:000b0cd0       ?Save@CEnvCustomize@@UAEHAAVCSave@@@Z 100b1cd0 f   triggers.obj
 0001:000b0d40       ?Restore@CEnvCustomize@@UAEHAAVCRestore@@@Z 100b1d40 f   triggers.obj
 0001:000b0d70       ?KeyValue@CEnvCustomize@@UAEXPAUKeyValueData_s@@@Z 100b1d70 f   triggers.obj
 0001:000b1400       ?Spawn@CTestEffect@@UAEXXZ 100b2400 f   triggers.obj
 0001:000b1400       ?Spawn@CEnvCustomize@@UAEXXZ 100b2400 f   triggers.obj
 0001:000b1400       ?Spawn@CEnvFootsteps@@UAEXXZ 100b2400 f   triggers.obj
 0001:000b1410       ?Precache@CEnvCustomize@@UAEXXZ 100b2410 f   triggers.obj
 0001:000b1440       ?PostSpawn@CEnvCustomize@@UAEXXZ 100b2440 f   triggers.obj
 0001:000b1460       ?DesiredAction@CEnvCustomize@@UAEXXZ 100b2460 f   triggers.obj
 0001:000b1470       ?Use@CEnvCustomize@@UAEXPAVCBaseEntity@@0W4USE_TYPE@@M@Z 100b2470 f   triggers.obj
 0001:000b1610       ?Affect@CEnvCustomize@@QAEXPAVCBaseEntity@@W4USE_TYPE@@@Z 100b2610 f   triggers.obj
 0001:000b1cc0       ?GetActionFor@CEnvCustomize@@QAEHHHW4USE_TYPE@@PAD@Z 100b2cc0 f   triggers.obj
 0001:000b1d60       ?SetBoneController@CEnvCustomize@@QAEXMHPAVCBaseEntity@@@Z 100b2d60 f   triggers.obj
 0001:000b1e00       _trigger                   100b2e00 f   triggers.obj
 0001:000b1e50       ?CanTouch@CBaseTrigger@@QAEHPAUentvars_s@@@Z 100b2e50 f   triggers.obj
 0001:000b1fa0       ?ToggleUse@CBaseTrigger@@QAEXPAVCBaseEntity@@0W4USE_TYPE@@M@Z 100b2fa0 f   triggers.obj
 0001:000b2000       ?InitTrigger@CBaseTrigger@@QAEXXZ 100b3000 f   triggers.obj
 0001:000b20b0       _trigger_hurt              100b30b0 f   triggers.obj
 0001:000b2100       ?KeyValue@CTriggerHurt@@UAEXPAUKeyValueData_s@@@Z 100b3100 f   triggers.obj
 0001:000b2250       ?Spawn@CTriggerHurt@@UAEXXZ 100b3250 f   triggers.obj
 0001:000b22e0       ?HurtTouch@CTriggerHurt@@QAEXPAVCBaseEntity@@@Z 100b32e0 f   triggers.obj
 0001:000b24e0       ?RadiationThink@CTriggerHurt@@QAEXXZ 100b34e0 f   triggers.obj
 0001:000b2790       _trigger_hevcharge         100b3790 f   triggers.obj
 0001:000b27e0       ?Spawn@CTriggerHevCharge@@UAEXXZ 100b37e0 f   triggers.obj
 0001:000b2830       ?ChargeTouch@CTriggerHevCharge@@QAEXPAVCBaseEntity@@@Z 100b3830 f   triggers.obj
 0001:000b2940       ?AnnounceThink@CTriggerHevCharge@@QAEXXZ 100b3940 f   triggers.obj
 0001:000b29f0       _trigger_monsterjump       100b39f0 f   triggers.obj
 0001:000b2a40       ?Spawn@CTriggerMonsterJump@@UAEXXZ 100b3a40 f   triggers.obj
 0001:000b2ab0       ?Think@CTriggerMonsterJump@@UAEXXZ 100b3ab0 f   triggers.obj
 0001:000b2ae0       ?Touch@CTriggerMonsterJump@@UAEXPAVCBaseEntity@@@Z 100b3ae0 f   triggers.obj
 0001:000b2b70       _trigger_cdaudio           100b3b70 f   triggers.obj
 0001:000b2bc0       ?Touch@CTriggerCDAudio@@UAEXPAVCBaseEntity@@@Z 100b3bc0 f   triggers.obj
 0001:000b2be0       ?Spawn@CTriggerCDAudio@@UAEXXZ 100b3be0 f   triggers.obj
 0001:000b2bf0       ?Use@CTriggerCDAudio@@UAEXPAVCBaseEntity@@0W4USE_TYPE@@M@Z 100b3bf0 f   triggers.obj
 0001:000b2c00       ?PlayCDTrack@@YAXH@Z       100b3c00 f   triggers.obj
 0001:000b2c80       ?PlayTrack@CTriggerCDAudio@@QAEXXZ 100b3c80 f   triggers.obj
 0001:000b2cb0       _target_cdaudio            100b3cb0 f   triggers.obj
 0001:000b2d00       ?KeyValue@CTargetCDAudio@@UAEXPAUKeyValueData_s@@@Z 100b3d00 f   triggers.obj
 0001:000b2e70       ?Spawn@CTargetCDAudio@@UAEXXZ 100b3e70 f   triggers.obj
 0001:000b2eb0       ?Use@CTargetCDAudio@@UAEXPAVCBaseEntity@@0W4USE_TYPE@@M@Z 100b3eb0 f   triggers.obj
 0001:000b2ec0       ?Think@CTargetCDAudio@@UAEXXZ 100b3ec0 f   triggers.obj
 0001:000b2f30       ?Play@CTargetCDAudio@@QAEXXZ 100b3f30 f   triggers.obj
 0001:000b2f60       _trigger_multiple          100b3f60 f   triggers.obj
 0001:000b2fb0       ?Precache@CTriggerMultiple@@UAEXXZ 100b3fb0 f i triggers.obj
 0001:000b2fe0       ?Spawn@CTriggerMultiple@@UAEXXZ 100b3fe0 f   triggers.obj
 0001:000b3020       ?MultiTouch@CTriggerMultiple@@QAEXPAVCBaseEntity@@@Z 100b4020 f   triggers.obj
 0001:000b3050       ?ActivateMultiTrigger@CTriggerMultiple@@QAEXPAVCBaseEntity@@@Z 100b4050 f   triggers.obj
 0001:000b3230       ?SparkWait@CEnvSpark@@QAEXXZ 100b4230 f   triggers.obj
 0001:000b3230       ?MultiWaitOver@CTriggerMultiple@@QAEXXZ 100b4230 f   triggers.obj
 0001:000b3240       _trigger_once              100b4240 f   triggers.obj
 0001:000b32c0       ?Spawn@CTriggerOnce@@UAEXXZ 100b42c0 f   triggers.obj
 0001:000b32d0       ?Save@CInOutRegister@@UAEHAAVCSave@@@Z 100b42d0 f   triggers.obj
 0001:000b3340       ?Restore@CInOutRegister@@UAEHAAVCRestore@@@Z 100b4340 f   triggers.obj
 0001:000b3370       _inout_register            100b4370 f   triggers.obj
 0001:000b33c0       ?Add@CInOutRegister@@QAEPAV1@PAVCBaseEntity@@@Z 100b43c0 f   triggers.obj
 0001:000b3490       ?Prune@CInOutRegister@@QAEPAV1@XZ 100b4490 f   triggers.obj
 0001:000b3530       _trigger_inout             100b4530 f   triggers.obj
 0001:000b3580       ?GetState@CTriggerInOut@@UAE?AW4STATE@@XZ 100b4580 f i triggers.obj
 0001:000b35a0       ?Save@CTriggerInOut@@UAEHAAVCSave@@@Z 100b45a0 f   triggers.obj
 0001:000b3610       ?Restore@CTriggerInOut@@UAEHAAVCRestore@@@Z 100b4610 f   triggers.obj
 0001:000b3640       ?KeyValue@CTriggerInOut@@UAEXPAUKeyValueData_s@@@Z 100b4640 f   triggers.obj
 0001:000b3710       ?Spawn@CTriggerInOut@@UAEXXZ 100b4710 f   triggers.obj
 0001:000b37b0       ?Touch@CTriggerInOut@@UAEXPAVCBaseEntity@@@Z 100b47b0 f   triggers.obj
 0001:000b3810       ?Think@CTriggerInOut@@UAEXXZ 100b4810 f   triggers.obj
 0001:000b3850       ?FireOnEntry@CTriggerInOut@@QAEXPAVCBaseEntity@@@Z 100b4850 f   triggers.obj
 0001:000b38c0       ?FireOnLeaving@CTriggerInOut@@QAEXPAVCBaseEntity@@@Z 100b48c0 f   triggers.obj
 0001:000b3930       _trigger_counter           100b4930 f   triggers.obj
 0001:000b39b0       ?KeyValue@CTriggerCounter@@UAEXPAUKeyValueData_s@@@Z 100b49b0 f   triggers.obj
 0001:000b3a30       ?Spawn@CTriggerCounter@@UAEXXZ 100b4a30 f   triggers.obj
 0001:000b3a60       ?CounterUse@CTriggerCounter@@QAEXPAVCBaseEntity@@0W4USE_TYPE@@M@Z 100b4a60 f   triggers.obj
 0001:000b3ba0       _trigger_transition        100b4ba0 f   triggers.obj
 0001:000b3bf0       ?Spawn@CTriggerVolume@@UAEXXZ 100b4bf0 f   triggers.obj
 0001:000b3c50       _fireanddie                100b4c50 f   triggers.obj
 0001:000b3ca0       ?ObjectCaps@CFireAndDie@@UAEHXZ 100b4ca0 f i triggers.obj
 0001:000b3cc0       ?Spawn@CFireAndDie@@UAEXXZ 100b4cc0 f   triggers.obj
 0001:000b3ce0       ?Precache@CFireAndDie@@UAEXXZ 100b4ce0 f   triggers.obj
 0001:000b3cf0       ?Think@CFireAndDie@@UAEXXZ 100b4cf0 f   triggers.obj
 0001:000b3d10       _trigger_changelevel       100b4d10 f   triggers.obj
 0001:000b3d60       ?Save@CChangeLevel@@UAEHAAVCSave@@@Z 100b4d60 f   triggers.obj
 0001:000b3dd0       ?Restore@CChangeLevel@@UAEHAAVCRestore@@@Z 100b4dd0 f   triggers.obj
 0001:000b3e00       ?KeyValue@CChangeLevel@@UAEXPAUKeyValueData_s@@@Z 100b4e00 f   triggers.obj
 0001:000b4000       ?Spawn@CChangeLevel@@UAEXXZ 100b5000 f   triggers.obj
 0001:000b40e0       ?ExecuteChangeLevel@CChangeLevel@@QAEXXZ 100b50e0 f   triggers.obj
 0001:000b4120       ?FindLandmark@CChangeLevel@@SAPAUedict_s@@PBD@Z 100b5120 f   triggers.obj
 0001:000b41c0       ?UseChangeLevel@CChangeLevel@@QAEXPAVCBaseEntity@@0W4USE_TYPE@@M@Z 100b51c0 f   triggers.obj
 0001:000b41d0       ?ChangeLevelNow@CChangeLevel@@QAEXPAVCBaseEntity@@@Z 100b51d0 f   triggers.obj
 0001:000b43e0       ?TouchChangeLevel@CChangeLevel@@QAEXPAVCBaseEntity@@@Z 100b53e0 f   triggers.obj
 0001:000b4450       ?AddTransitionToList@CChangeLevel@@SAHPAULEVELLIST@@HPBD1PAUedict_s@@@Z 100b5450 f   triggers.obj
 0001:000b4560       ?BuildChangeList@@YAHPAULEVELLIST@@H@Z 100b5560 f   triggers.obj
 0001:000b4580       ?InTransitionVolume@CChangeLevel@@SAHPAVCBaseEntity@@PAD@Z 100b5580 f   triggers.obj
 0001:000b4660       ?ChangeList@CChangeLevel@@SAHPAULEVELLIST@@H@Z 100b5660 f   triggers.obj
 0001:000b48a0       _func_ladder               100b58a0 f   triggers.obj
 0001:000b48f0       ?KeyValue@CLadder@@UAEXPAUKeyValueData_s@@@Z 100b58f0 f   triggers.obj
 0001:000b4900       ?Precache@CLadder@@UAEXXZ  100b5900 f   triggers.obj
 0001:000b4970       ?Spawn@CLadder@@UAEXXZ     100b5970 f   triggers.obj
 0001:000b49c0       _trigger_push              100b59c0 f   triggers.obj
 0001:000b4a10       ?Save@CTriggerPush@@UAEHAAVCSave@@@Z 100b5a10 f   triggers.obj
 0001:000b4a80       ?Restore@CTriggerPush@@UAEHAAVCRestore@@@Z 100b5a80 f   triggers.obj
 0001:000b4ab0       ?KeyValue@CTriggerPush@@UAEXPAUKeyValueData_s@@@Z 100b5ab0 f   triggers.obj
 0001:000b4b80       ?Spawn@CTriggerPush@@UAEXXZ 100b5b80 f   triggers.obj
 0001:000b4c00       ?Touch@CTriggerPush@@UAEXPAVCBaseEntity@@@Z 100b5c00 f   triggers.obj
 0001:000b4e70       _trigger_bounce            100b5e70 f   triggers.obj
 0001:000b4ec0       ?Spawn@CTriggerBounce@@UAEXXZ 100b5ec0 f   triggers.obj
 0001:000b4ee0       ?Touch@CTriggerBounce@@UAEXPAVCBaseEntity@@@Z 100b5ee0 f   triggers.obj
 0001:000b5040       _trigger_onsight           100b6040 f   triggers.obj
 0001:000b5090       ?Spawn@CTriggerOnSight@@UAEXXZ 100b6090 f   triggers.obj
 0001:000b5100       ?GetState@CTriggerOnSight@@UAE?AW4STATE@@XZ 100b6100 f   triggers.obj
 0001:000b5130       ?Think@CTriggerOnSight@@UAEXXZ 100b6130 f   triggers.obj
 0001:000b5220       ?VisionCheck@CTriggerOnSight@@QAEHXZ 100b6220 f   triggers.obj
 0001:000b5370       ?CanSee@CTriggerOnSight@@QAEHPAVCBaseEntity@@0@Z 100b6370 f   triggers.obj
 0001:000b5550       _trigger_teleport          100b6550 f   triggers.obj
 0001:000b55a0       ?Spawn@CTriggerTeleport@@UAEXXZ 100b65a0 f   triggers.obj
 0001:000b55c0       ?TeleportTouch@CTriggerTeleport@@QAEXPAVCBaseEntity@@@Z 100b65c0 f   triggers.obj
 0001:000b59f0       _trigger_autosave          100b69f0 f   triggers.obj
 0001:000b5a40       ?Spawn@CTriggerSave@@UAEXXZ 100b6a40 f   triggers.obj
 0001:000b5a80       ?SaveTouch@CTriggerSave@@QAEXPAVCBaseEntity@@@Z 100b6a80 f   triggers.obj
 0001:000b5ad0       _trigger_endsection        100b6ad0 f   triggers.obj
 0001:000b5b20       ?EndSectionUse@CTriggerEndSection@@QAEXPAVCBaseEntity@@0W4USE_TYPE@@M@Z 100b6b20 f   triggers.obj
 0001:000b5b70       ?Spawn@CTriggerEndSection@@UAEXXZ 100b6b70 f   triggers.obj
 0001:000b5bc0       ?EndSectionTouch@CTriggerEndSection@@QAEXPAVCBaseEntity@@@Z 100b6bc0 f   triggers.obj
 0001:000b5c10       ?KeyValue@CTriggerEndSection@@UAEXPAUKeyValueData_s@@@Z 100b6c10 f   triggers.obj
 0001:000b5c90       _trigger_gravity           100b6c90 f   triggers.obj
 0001:000b5ce0       ?Spawn@CTriggerGravity@@UAEXXZ 100b6ce0 f   triggers.obj
 0001:000b5d00       ?GravityTouch@CTriggerGravity@@QAEXPAVCBaseEntity@@@Z 100b6d00 f   triggers.obj
 0001:000b5d30       _trigger_startpatrol       100b6d30 f   triggers.obj
 0001:000b5d80       ?Save@CTriggerSetPatrol@@UAEHAAVCSave@@@Z 100b6d80 f   triggers.obj
 0001:000b5df0       ?Restore@CTriggerSetPatrol@@UAEHAAVCRestore@@@Z 100b6df0 f   triggers.obj
 0001:000b5e20       ?KeyValue@CTriggerSetPatrol@@UAEXPAUKeyValueData_s@@@Z 100b6e20 f   triggers.obj
 0001:000b5ea0       ??1CSaveRestoreBuffer@@QAE@XZ 100b6ea0 f   triggers.obj
 0001:000b5ea0       ?DeathSound@CHAssassin@@UAEXXZ 100b6ea0 f   triggers.obj
 0001:000b5ea0       ?AlertSound@CBloater@@UAEXXZ 100b6ea0 f   triggers.obj
 0001:000b5ea0       ?IdleSound@CClone@@UAEXXZ  100b6ea0 f   triggers.obj
 0001:000b5ea0       ?ParmsNewLevel@@YAXXZ      100b6ea0 f   triggers.obj
 0001:000b5ea0       ?RenewItems@CBasePlayer@@QAEXXZ 100b6ea0 f   triggers.obj
 0001:000b5ea0       ?AttackSnd@CBloater@@QAEXXZ 100b6ea0 f   triggers.obj
 0001:000b5ea0       ?CreateInstancedBaselines@@YAXXZ 100b6ea0 f   triggers.obj
 0001:000b5ea0       ?IdleSound@CBloater@@UAEXXZ 100b6ea0 f   triggers.obj
 0001:000b5ea0       ?IdleSound@CHAssassin@@UAEXXZ 100b6ea0 f   triggers.obj
 0001:000b5ea0       ?SUB_DoNothing@CBaseEntity@@QAEXXZ 100b6ea0 f   triggers.obj
 0001:000b5ea0       ?Spawn@CTriggerChangeAlias@@UAEXXZ 100b6ea0 f   triggers.obj
 0001:000b5ea0       ?Spawn@CTriggerChangeTarget@@UAEXXZ 100b6ea0 f   triggers.obj
 0001:000b5ea0       ?Spawn@CPathCorner@@UAEXXZ 100b6ea0 f   triggers.obj
 0001:000b5ea0       ?GibMonster@CApache@@EAEXXZ 100b6ea0 f   triggers.obj
 0001:000b5ea0       ?SpectatorDisconnect@CBaseSpectator@@QAEXXZ 100b6ea0 f   triggers.obj
 0001:000b5ea0       ?Precache@CSoundEnt@@UAEXXZ 100b6ea0 f   triggers.obj
 0001:000b5ea0       ?SecondaryAttack@CSqueak@@UAEXXZ 100b6ea0 f   triggers.obj
 0001:000b5ea0       ?Spawn@CTriggerSetPatrol@@UAEXXZ 100b6ea0 f   triggers.obj
 0001:000b5ea0       ?Spawn@CTriggerRelay@@UAEXXZ 100b6ea0 f   triggers.obj
 0001:000b5ea0       ?GibMonster@CNihilanth@@UAEXXZ 100b6ea0 f   triggers.obj
 0001:000b5ea0       ?PainSound@CBloater@@UAEXXZ 100b6ea0 f   triggers.obj
 0001:000b5ea0       ?SecondaryAttack@CRpg@@UAEXXZ 100b6ea0 f   triggers.obj
 0001:000b5ea0       ?Think@CHalfLifeRules@@UAEXXZ 100b6ea0 f   triggers.obj
 0001:000b5ea0       ?Spawn@CInfoBM@@UAEXXZ     100b6ea0 f   triggers.obj
 0001:000b5ea0       ?Sys_Error@@YAXPBD@Z       100b6ea0 f   triggers.obj
 0001:000b5eb0       ?Use@CTriggerSetPatrol@@UAEXPAVCBaseEntity@@0W4USE_TYPE@@M@Z 100b6eb0 f   triggers.obj
 0001:000b5f20       _trigger_motion            100b6f20 f   triggers.obj
 0001:000b5f70       ?Save@CTriggerMotion@@UAEHAAVCSave@@@Z 100b6f70 f   triggers.obj
 0001:000b5fe0       ?Restore@CTriggerMotion@@UAEHAAVCRestore@@@Z 100b6fe0 f   triggers.obj
 0001:000b6010       ?KeyValue@CTriggerMotion@@UAEXPAUKeyValueData_s@@@Z 100b7010 f   triggers.obj
 0001:000b63d0       ?Use@CTriggerMotion@@UAEXPAVCBaseEntity@@0W4USE_TYPE@@M@Z 100b73d0 f   triggers.obj
 0001:000b6dd0       ?Save@CMotionThread@@UAEHAAVCSave@@@Z 100b7dd0 f   triggers.obj
 0001:000b6e40       ?Restore@CMotionThread@@UAEHAAVCRestore@@@Z 100b7e40 f   triggers.obj
 0001:000b6e70       ?Think@CMotionThread@@UAEXXZ 100b7e70 f   triggers.obj
 0001:000b7950       ??D@YA?AVVector@@MABV0@@Z  100b8950 f i triggers.obj
 0001:000b7980       _motion_manager            100b8980 f   triggers.obj
 0001:000b79d0       ?Save@CMotionManager@@UAEHAAVCSave@@@Z 100b89d0 f   triggers.obj
 0001:000b7a40       ?Restore@CMotionManager@@UAEHAAVCRestore@@@Z 100b8a40 f   triggers.obj
 0001:000b7a70       ?KeyValue@CMotionManager@@UAEXPAUKeyValueData_s@@@Z 100b8a70 f   triggers.obj
 0001:000b7ce0       ?PostSpawn@CMotionManager@@UAEXXZ 100b8ce0 f   triggers.obj
 0001:000b7d00       ?Use@CMotionManager@@UAEXPAVCBaseEntity@@0W4USE_TYPE@@M@Z 100b8d00 f   triggers.obj
 0001:000b7db0       ?Affect@CMotionManager@@QAEXPAVCBaseEntity@@0@Z 100b8db0 f   triggers.obj
 0001:000b7eb0       _trigger_changetarget      100b8eb0 f   triggers.obj
 0001:000b7f00       ?Save@CTriggerChangeTarget@@UAEHAAVCSave@@@Z 100b8f00 f   triggers.obj
 0001:000b7f70       ?Restore@CTriggerChangeTarget@@UAEHAAVCRestore@@@Z 100b8f70 f   triggers.obj
 0001:000b7fa0       ?KeyValue@CTriggerChangeTarget@@UAEXPAUKeyValueData_s@@@Z 100b8fa0 f   triggers.obj
 0001:000b8020       ?Use@CTriggerChangeTarget@@UAEXPAVCBaseEntity@@0W4USE_TYPE@@M@Z 100b9020 f   triggers.obj
 0001:000b8110       _trigger_changevalue       100b9110 f   triggers.obj
 0001:000b8160       ?Save@CTriggerChangeValue@@UAEHAAVCSave@@@Z 100b9160 f   triggers.obj
 0001:000b81d0       ?Restore@CTriggerChangeValue@@UAEHAAVCRestore@@@Z 100b91d0 f   triggers.obj
 0001:000b8200       ?KeyValue@CTriggerChangeValue@@UAEXPAUKeyValueData_s@@@Z 100b9200 f   triggers.obj
 0001:000b8280       ?Use@CTriggerChangeValue@@UAEXPAVCBaseEntity@@0W4USE_TYPE@@M@Z 100b9280 f   triggers.obj
 0001:000b8300       _trigger_command           100b9300 f   triggers.obj
 0001:000b8350       ?Use@CTriggerCommand@@UAEXPAVCBaseEntity@@0W4USE_TYPE@@M@Z 100b9350 f   triggers.obj
 0001:000b83a0       _trigger_changecvar        100b93a0 f   triggers.obj
 0001:000b83f0       ?Save@CTriggerChangeCVar@@UAEHAAVCSave@@@Z 100b93f0 f   triggers.obj
 0001:000b8460       ?Restore@CTriggerChangeCVar@@UAEHAAVCRestore@@@Z 100b9460 f   triggers.obj
 0001:000b8490       ?Use@CTriggerChangeCVar@@UAEXPAVCBaseEntity@@0W4USE_TYPE@@M@Z 100b9490 f   triggers.obj
 0001:000b85e0       ?Think@CTriggerChangeCVar@@UAEXXZ 100b95e0 f   triggers.obj
 0001:000b8650       _trigger_camera            100b9650 f   triggers.obj
 0001:000b86a0       ?Save@CTriggerCamera@@UAEHAAVCSave@@@Z 100b96a0 f   triggers.obj
 0001:000b8710       ?Restore@CTriggerCamera@@UAEHAAVCRestore@@@Z 100b9710 f   triggers.obj
 0001:000b8740       ?Spawn@CTriggerCamera@@UAEXXZ 100b9740 f   triggers.obj
 0001:000b87c0       ?KeyValue@CTriggerCamera@@UAEXPAUKeyValueData_s@@@Z 100b97c0 f   triggers.obj
 0001:000b8990       ?Use@CTriggerCamera@@UAEXPAVCBaseEntity@@0W4USE_TYPE@@M@Z 100b9990 f   triggers.obj
 0001:000b8c90       ?FollowTarget@CTriggerCamera@@QAEXXZ 100b9c90 f   triggers.obj
 0001:000b8f50       ?Move@CTriggerCamera@@QAEXXZ 100b9f50 f   triggers.obj
 0001:000b9230       _trigger_textwindow        100ba230 f   triggers.obj
 0001:000b9280       ?Use@CTriggerTextWindow@@UAEXPAVCBaseEntity@@0W4USE_TYPE@@M@Z 100ba280 f i triggers.obj
 0001:000b9310       _trigger_mp3               100ba310 f   triggers.obj
 0001:000b9360       ?Use@CTriggerMP3@@UAEXPAVCBaseEntity@@0W4USE_TYPE@@M@Z 100ba360 f i triggers.obj
 0001:000b93c0       _trigger_goal              100ba3c0 f   triggers.obj
 0001:000b9410       ?Use@CTriggerGoal@@UAEXPAVCBaseEntity@@0W4USE_TYPE@@M@Z 100ba410 f i triggers.obj
 0001:000b9480       ?Use@CStartRush@@UAEXPAVCBaseEntity@@0W4USE_TYPE@@M@Z 100ba480 f   triggers.obj
 0001:000b9550       ?GetDestinationEntity@CStartRush@@QAEPAVCBaseEntity@@XZ 100ba550 f   triggers.obj
 0001:000b95b0       ?ReportSuccess@CStartRush@@QAEXPAVCBaseEntity@@@Z 100ba5b0 f   triggers.obj
 0001:000b95f0       ?Spawn@CPointEntity@@UAEXXZ 100ba5f0 f   triggers.obj
 0001:000b95f0       ?Spawn@CStartRush@@UAEXXZ  100ba5f0 f   triggers.obj
 0001:000b9600       _scripted_startrush        100ba600 f   triggers.obj
 0001:000b9650       ?DamageThink@CGasArea@@QAEXXZ 100ba650 f i triggers.obj
 0001:000b9800       _trigger_gasarea           100ba800 f   triggers.obj
 0001:000b9850       ?Spawn@CGasArea@@UAEXXZ    100ba850 f i triggers.obj
 0001:000b9910       ?Use@CGasArea@@UAEXPAVCBaseEntity@@0W4USE_TYPE@@M@Z 100ba910 f i triggers.obj
 0001:000b9960       ?KeyValue@CGasArea@@UAEXPAUKeyValueData_s@@@Z 100ba960 f i triggers.obj
 0001:000b9b20       ?Save@CGasArea@@UAEHAAVCSave@@@Z 100bab20 f   triggers.obj
 0001:000b9b90       ?Restore@CGasArea@@UAEHAAVCRestore@@@Z 100bab90 f   triggers.obj
 0001:000b9bc0       _monster_tripmine          100babc0 f   tripmine.obj
 0001:000b9c50       ?Save@CTripmineGrenade@@EAEHAAVCSave@@@Z 100bac50 f   tripmine.obj
 0001:000b9cc0       ?Restore@CTripmineGrenade@@EAEHAAVCRestore@@@Z 100bacc0 f   tripmine.obj
 0001:000b9cf0       ?Spawn@CTripmineGrenade@@EAEXXZ 100bacf0 f   tripmine.obj
 0001:000b9f10       ?Precache@CTripmineGrenade@@EAEXXZ 100baf10 f   tripmine.obj
 0001:000b9f40       ?WarningThink@CTripmineGrenade@@AAEXXZ 100baf40 f   tripmine.obj
 0001:000b9f60       ?PowerupThink@CTripmineGrenade@@AAEXXZ 100baf60 f   tripmine.obj
 0001:000ba390       ?KillBeam@CTripmineGrenade@@AAEXXZ 100bb390 f   tripmine.obj
 0001:000ba3c0       ?MakeBeam@CTripmineGrenade@@AAEXXZ 100bb3c0 f   tripmine.obj
 0001:000ba510       ?BeamBreakThink@CTripmineGrenade@@AAEXXZ 100bb510 f   tripmine.obj
 0001:000ba680       ?TakeDamage@CTripmineGrenade@@EAEHPAUentvars_s@@0MH@Z 100bb680 f   tripmine.obj
 0001:000ba6f0       ?Killed@CTripmineGrenade@@EAEXPAUentvars_s@@H@Z 100bb6f0 f   tripmine.obj
 0001:000ba780       ?DelayDeathThink@CTripmineGrenade@@AAEXXZ 100bb780 f   tripmine.obj
 0001:000ba860       _weapon_tripmine           100bb860 f   tripmine.obj
 0001:000ba8b0       ?Spawn@CTripmine@@UAEXXZ   100bb8b0 f   tripmine.obj
 0001:000ba980       ?Precache@CTripmine@@UAEXXZ 100bb980 f   tripmine.obj
 0001:000ba9c0       ?GetItemInfo@CTripmine@@UAEHPAUItemInfo@@@Z 100bb9c0 f   tripmine.obj
 0001:000baa30       ?Deploy@CTripmine@@UAEHXZ  100bba30 f   tripmine.obj
 0001:000baa50       ?Holster@CTripmine@@UAEXH@Z 100bba50 f   tripmine.obj
 0001:000baaf0       ?PrimaryAttack@CTripmine@@UAEXXZ 100bbaf0 f   tripmine.obj
 0001:000bad70       ?WeaponIdle@CTripmine@@UAEXXZ 100bbd70 f   tripmine.obj
 0001:000bae50       ?SetObjectCollisionBox@CTripmine@@UAEXXZ 100bbe50 f i tripmine.obj
 0001:000baef0       ?SpinDownCall@CBaseTurret@@UAEXXZ 100bbef0 f i turret.obj
 0001:000baf00       ?SpinUpCall@CBaseTurret@@UAEXXZ 100bbf00 f i turret.obj
 0001:000baf10       ?Save@CBaseTurret@@UAEHAAVCSave@@@Z 100bbf10 f   turret.obj
 0001:000baf80       ?Restore@CBaseTurret@@UAEHAAVCRestore@@@Z 100bbf80 f   turret.obj
 0001:000bafb0       ?Save@CTurret@@UAEHAAVCSave@@@Z 100bbfb0 f   turret.obj
 0001:000bb020       ?Restore@CTurret@@UAEHAAVCRestore@@@Z 100bc020 f   turret.obj
 0001:000bb050       _monster_turret            100bc050 f   turret.obj
 0001:000bb0d0       ?getState@CBaseTurret@@UAE?AW4STATE@@XZ 100bc0d0 f i turret.obj
 0001:000bb0e0       _monster_miniturret        100bc0e0 f   turret.obj
 0001:000bb160       ?KeyValue@CBaseTurret@@UAEXPAUKeyValueData_s@@@Z 100bc160 f   turret.obj
 0001:000bb3f0       ?Spawn@CBaseTurret@@UAEXXZ 100bc3f0 f   turret.obj
 0001:000bb4b0       ?Precache@CBaseTurret@@UAEXXZ 100bc4b0 f   turret.obj
 0001:000bb530       ?Spawn@CTurret@@UAEXXZ     100bc530 f   turret.obj
 0001:000bb720       ?Precache@CTurret@@UAEXXZ  100bc720 f   turret.obj
 0001:000bb770       ?Spawn@CMiniTurret@@UAEXXZ 100bc770 f   turret.obj
 0001:000bb8b0       ?Precache@CMiniTurret@@UAEXXZ 100bc8b0 f   turret.obj
 0001:000bb910       ?Initialize@CBaseTurret@@QAEXXZ 100bc910 f   turret.obj
 0001:000bba30       ?TurretUse@CBaseTurret@@QAEXPAVCBaseEntity@@0W4USE_TYPE@@M@Z 100bca30 f   turret.obj
 0001:000bbab0       ?Ping@CBaseTurret@@UAEXXZ  100bcab0 f   turret.obj
 0001:000bbb50       ?EyeOn@CBaseTurret@@UAEXXZ 100bcb50 f   turret.obj
 0001:000bbb90       ?EyeOff@CBaseTurret@@UAEXXZ 100bcb90 f   turret.obj
 0001:000bbbd0       ?ActiveThink@CBaseTurret@@QAEXXZ 100bcbd0 f   turret.obj
 0001:000bc0b0       ?Shoot@CTurret@@UAEXAAVVector@@0@Z 100bd0b0 f   turret.obj
 0001:000bc140       ?Shoot@CMiniTurret@@UAEXAAVVector@@0@Z 100bd140 f   turret.obj
 0001:000bc220       ?Deploy@CBaseTurret@@QAEXXZ 100bd220 f   turret.obj
 0001:000bc350       ?Retire@CBaseTurret@@QAEXXZ 100bd350 f   turret.obj
 0001:000bc4a0       ?SpinUpCall@CTurret@@UAEXXZ 100bd4a0 f   turret.obj
 0001:000bc5b0       ?SpinDownCall@CTurret@@UAEXXZ 100bd5b0 f   turret.obj
 0001:000bc670       ?SetTurretAnim@CBaseTurret@@QAEXW4TURRET_ANIM@@@Z 100bd670 f   turret.obj
 0001:000bc6f0       ?SearchThink@CBaseTurret@@QAEXXZ 100bd6f0 f   turret.obj
 0001:000bc880       ?AutoSearchThink@CBaseTurret@@QAEXXZ 100bd880 f   turret.obj
 0001:000bc930       ?TurretDeath@CBaseTurret@@QAEXXZ 100bd930 f   turret.obj
 0001:000bcc90       ?TraceAttack@CBaseTurret@@UAEXPAUentvars_s@@MVVector@@PAUTraceResult@@H@Z 100bdc90 f   turret.obj
 0001:000bcd40       ?TakeDamage@CBaseTurret@@UAEHPAUentvars_s@@0MH@Z 100bdd40 f   turret.obj
 0001:000bce30       ?MoveTurret@CBaseTurret@@QAEHXZ 100bde30 f   turret.obj
 0001:000bd0c0       ?Classify@CBaseTurret@@UAEHXZ 100be0c0 f   turret.obj
 0001:000bd0f0       _monster_sentry            100be0f0 f   turret.obj
 0001:000bd170       ?Precache@CSentry@@UAEXXZ  100be170 f   turret.obj
 0001:000bd1b0       ?Spawn@CSentry@@UAEXXZ     100be1b0 f   turret.obj
 0001:000bd2f0       ?Shoot@CSentry@@UAEXAAVVector@@0@Z 100be2f0 f   turret.obj
 0001:000bd3d0       ?TakeDamage@CSentry@@UAEHPAUentvars_s@@0MH@Z 100be3d0 f   turret.obj
 0001:000bd4a0       ?SentryTouch@CSentry@@QAEXPAVCBaseEntity@@@Z 100be4a0 f   turret.obj
 0001:000bd4e0       ?SentryDeath@CSentry@@QAEXXZ 100be4e0 f   turret.obj
 0001:000bd780       ?UTIL_WeaponTimeBase@@YAMXZ 100be780 f   util.obj
 0001:000bd790       ?U_Random@@YAIXZ           100be790 f   util.obj
 0001:000bd7d0       ?U_Srand@@YAXI@Z           100be7d0 f   util.obj
 0001:000bd7f0       ?UTIL_SharedRandomFloat@@YAMIMM@Z 100be7f0 f   util.obj
 0001:000bd870       ?UTIL_SetGroupTrace@@YAXHH@Z 100be870 f   util.obj
 0001:000bd890       ?UTIL_UnsetGroupTrace@@YAXXZ 100be890 f   util.obj
 0001:000bd8b0       ?UTIL_AngleMod@@YAMM@Z     100be8b0 f   util.obj
 0001:000bd930       ?UTIL_AngleDiff@@YAMMM@Z   100be930 f   util.obj
 0001:000bd970       ?UTIL_VecToAngles@@YA?AVVector@@ABV1@@Z 100be970 f   util.obj
 0001:000bd9a0       ?UTIL_AxisRotationToAngles@@YA?AVVector@@ABV1@M@Z 100be9a0 f i util.obj
 0001:000bda10       ?UTIL_AxisRotationToVec@@YA?AVVector@@ABV1@M@Z 100bea10 f   util.obj
 0001:000bda80       ?UTIL_MoveToOrigin@@YAXPAUedict_s@@ABVVector@@MH@Z 100bea80 f   util.obj
 0001:000bdac0       ?UTIL_EntitiesInBox@@YAHPAPAVCBaseEntity@@HABVVector@@1H@Z 100beac0 f   util.obj
 0001:000bdbd0       ?UTIL_FindEntityInSphere@@YAPAVCBaseEntity@@PAV1@ABVVector@@M@Z 100bebd0 f   util.obj
 0001:000bdc20       ?UTIL_FindEntityByString@@YAPAVCBaseEntity@@PAV1@PBD1@Z 100bec20 f   util.obj
 0001:000bdc70       ?UTIL_FindEntityByClassname@@YAPAVCBaseEntity@@PAV1@PBD@Z 100bec70 f   util.obj
 0001:000bdc90       ?UTIL_FlushAliases@@YAXXZ  100bec90 f   util.obj
 0001:000bdd00       ?UTIL_AddToAliasList@@YAXPAVCBaseAlias@@@Z 100bed00 f   util.obj
 0001:000bdd80       ?UTIL_FollowAliasReference@@YAPAVCBaseEntity@@PAV1@PBD@Z 100bed80 f   util.obj
 0001:000bde00       ?UTIL_FollowGroupReference@@YAPAVCBaseEntity@@PAV1@PAD1@Z 100bee00 f   util.obj
 0001:000bdf50       ?UTIL_FollowReference@@YAPAVCBaseEntity@@PAV1@PBD@Z 100bef50 f   util.obj
 0001:000be060       ?UTIL_FindEntityByTargetname@@YAPAVCBaseEntity@@PAV1@PBD@Z 100bf060 f   util.obj
 0001:000be090       ?UTIL_FindEntityByTargetname@@YAPAVCBaseEntity@@PAV1@PBD0@Z 100bf090 f   util.obj
 0001:000be130       ?UTIL_FindEntityByTarget@@YAPAVCBaseEntity@@PAV1@PBD@Z 100bf130 f   util.obj
 0001:000be150       ?UTIL_FindEntityGeneric@@YAPAVCBaseEntity@@PBDAAVVector@@M@Z 100bf150 f   util.obj
 0001:000be1f0       ?UTIL_PlayerByIndex@@YAPAVCBaseEntity@@H@Z 100bf1f0 f   util.obj
 0001:000be230       ?UTIL_MakeVectors@@YAXABVVector@@@Z 100bf230 f   util.obj
 0001:000be240       ?UTIL_MakeAimVectors@@YAXABVVector@@@Z 100bf240 f   util.obj
 0001:000be270       ?UTIL_MakeInvVectors@@YAXABVVector@@PAUglobalvars_t@@@Z 100bf270 f   util.obj
 0001:000be2f0       ?UTIL_EmitAmbientSound@@YAXPAUedict_s@@ABVVector@@PBDMMHH@Z 100bf2f0 f   util.obj
 0001:000be3a0       ?UTIL_ScreenShake@@YAXABVVector@@MMMM@Z 100bf3a0 f   util.obj
 0001:000be540       ?UTIL_ScreenFadeBuild@@YAXAAUScreenFade@@ABVVector@@MMHH@Z 100bf540 f   util.obj
 0001:000be5b0       ?UTIL_ScreenFadeWrite@@YAXABUScreenFade@@PAVCBaseEntity@@@Z 100bf5b0 f   util.obj
 0001:000be650       ?UTIL_ScreenFadeAll@@YAXABVVector@@MMHH@Z 100bf650 f   util.obj
 0001:000be6c0       ?UTIL_ScreenFade@@YAXPAVCBaseEntity@@ABVVector@@MMHH@Z 100bf6c0 f   util.obj
 0001:000be700       ?UTIL_HudMessage@@YAXPAVCBaseEntity@@ABUhudtextparms_s@@PBD@Z 100bf700 f   util.obj
 0001:000be910       ?UTIL_HudMessageAll@@YAXABUhudtextparms_s@@PBD@Z 100bf910 f   util.obj
 0001:000be960       ?UTIL_ClientPrintAll@@YAXHPBD0000@Z 100bf960 f   util.obj
 0001:000be9e0       ?ClientPrint@@YAXPAUentvars_s@@HPBD1111@Z 100bf9e0 f   util.obj
 0001:000bea70       ?UTIL_SayText@@YAXPBDPAVCBaseEntity@@@Z 100bfa70 f   util.obj
 0001:000bead0       ?UTIL_SayTextAll@@YAXPBDPAVCBaseEntity@@@Z 100bfad0 f   util.obj
 0001:000beb20       ?UTIL_dtos1@@YAPADH@Z      100bfb20 f   util.obj
 0001:000beb40       ?UTIL_ShowMessage@@YAXPBDPAVCBaseEntity@@@Z 100bfb40 f   util.obj
 0001:000beb90       ?UTIL_ShowMessageAll@@YAXPBD@Z 100bfb90 f   util.obj
 0001:000bebe0       ?UTIL_ShowMessagePVS@@YAXPBDABVVector@@@Z 100bfbe0 f   util.obj
 0001:000bec50       ?UTIL_TraceLine@@YAXABVVector@@0W4IGNORE_MONSTERS@@W4IGNORE_GLASS@@PAUedict_s@@PAUTraceResult@@@Z 100bfc50 f   util.obj
 0001:000bec90       ?UTIL_TraceLine@@YAXABVVector@@0W4IGNORE_MONSTERS@@PAUedict_s@@PAUTraceResult@@@Z 100bfc90 f   util.obj
 0001:000becc0       ?UTIL_TraceHull@@YAXABVVector@@0W4IGNORE_MONSTERS@@HPAUedict_s@@PAUTraceResult@@@Z 100bfcc0 f   util.obj
 0001:000becf0       ?UTIL_TraceModel@@YAXABVVector@@0HPAUedict_s@@PAUTraceResult@@@Z 100bfcf0 f   util.obj
 0001:000bed20       ?UTIL_GetGlobalTrace@@YA?AUTraceResult@@XZ 100bfd20 f   util.obj
 0001:000bedf0       ?UTIL_SetSize@@YAXPAUentvars_s@@ABVVector@@1@Z 100bfdf0 f   util.obj
 0001:000bee10       ?UTIL_VecToYaw@@YAMABVVector@@@Z 100bfe10 f   util.obj
 0001:000bee20       ?UTIL_SetEdictOrigin@@YAXPAUedict_s@@ABVVector@@@Z 100bfe20 f   util.obj
 0001:000bee40       ?UTIL_SetOrigin@@YAXPAVCBaseEntity@@ABVVector@@@Z 100bfe40 f   util.obj
 0001:000bee60       ?UTIL_ParticleEffect@@YAXABVVector@@0KK@Z 100bfe60 f   util.obj
 0001:000beeb0       ?UTIL_Approach@@YAMMMM@Z   100bfeb0 f   util.obj
 0001:000beef0       ?UTIL_ApproachAngle@@YAMMMM@Z 100bfef0 f   util.obj
 0001:000bef90       ?UTIL_AngleDistance@@YAMMM@Z 100bff90 f   util.obj
 0001:000befe0       ?UTIL_VarArgs@@YAPADPADZZ  100bffe0 f   util.obj
 0001:000bf000       ?UTIL_IsMasterTriggered@@YAHHPAVCBaseEntity@@@Z 100c0000 f   util.obj
 0001:000bf150       ?UTIL_ShouldShowBlood@@YAHH@Z 100c0150 f   util.obj
 0001:000bf1b0       ?UTIL_PointContents@@YAHABVVector@@@Z 100c01b0 f   util.obj
 0001:000bf1c0       ?UTIL_BloodStream@@YAXABVVector@@0HH@Z 100c01c0 f   util.obj
 0001:000bf270       ?UTIL_BloodDrips@@YAXABVVector@@0HH@Z 100c0270 f   util.obj
 0001:000bf380       ?UTIL_RandomBloodVector@@YA?AVVector@@XZ 100c0380 f   util.obj
 0001:000bf3d0       ?UTIL_CustomDecal@@YAXPAUTraceResult@@PBDH@Z 100c03d0 f   util.obj
 0001:000bf470       ?UTIL_BloodDecalTrace@@YAXPAUTraceResult@@H@Z 100c0470 f   util.obj
 0001:000bf4e0       ?UTIL_DecalTrace@@YAXPAUTraceResult@@H@Z 100c04e0 f   util.obj
 0001:000bf600       ?UTIL_PlayerDecalTrace@@YAXPAUTraceResult@@HHH@Z 100c0600 f   util.obj
 0001:000bf6b0       ?UTIL_GunshotDecalTrace@@YAXPAUTraceResult@@H@Z 100c06b0 f   util.obj
 0001:000bf740       ?UTIL_Sparks@@YAXABVVector@@@Z 100c0740 f   util.obj
 0001:000bf790       ?UTIL_Ricochet@@YAXABVVector@@M@Z 100c0790 f   util.obj
 0001:000bf7f0       ?UTIL_TeamsMatch@@YAHPBD0@Z 100c07f0 f   util.obj
 0001:000bf830       ?UTIL_IsFacing@@YAHPAUentvars_s@@ABVVector@@@Z 100c0830 f   util.obj
 0001:000bf920       ?UTIL_StringToVector@@YAXPAMPBD@Z 100c0920 f   util.obj
 0001:000bf9c0       ?UTIL_StringToRandomVector@@YAXPAMPBD@Z 100c09c0 f   util.obj
 0001:000bfac0       ?UTIL_StringToIntArray@@YAXPAHHPBD@Z 100c0ac0 f   util.obj
 0001:000bfb60       ?UTIL_ClampVectorToBox@@YA?AVVector@@ABV1@0@Z 100c0b60 f   util.obj
 0001:000bfca0       ?UTIL_WaterLevel@@YAMABVVector@@MM@Z 100c0ca0 f   util.obj
 0001:000bfd60       ?UTIL_Bubbles@@YAXVVector@@0H@Z 100c0d60 f   util.obj
 0001:000bfe70       ?UTIL_BubbleTrail@@YAXVVector@@0H@Z 100c0e70 f   util.obj
 0001:000bff90       ?UTIL_Remove@@YAXPAVCBaseEntity@@@Z 100c0f90 f   util.obj
 0001:000bffd0       ?UTIL_IsValidEntity@@YAHPAUedict_s@@@Z 100c0fd0 f   util.obj
 0001:000c0000       ?UTIL_PrecacheOther@@YAXPBD@Z 100c1000 f   util.obj
 0001:000c0080       ?UTIL_LogPrintf@@YAXPADZZ  100c1080 f   util.obj
 0001:000c00b0       ?UTIL_DotPoints@@YAMABVVector@@00@Z 100c10b0 f   util.obj
 0001:000c0130       ?UTIL_StripToken@@YAXPBDPAD@Z 100c1130 f   util.obj
 0001:000c0170       ?GetStringForUseType@@YAPADW4USE_TYPE@@@Z 100c1170 f   util.obj
 0001:000c01c0       ?GetStringForState@@YAPADW4STATE@@@Z 100c11c0 f   util.obj
 0001:000c0210       ??0CSaveRestoreBuffer@@QAE@PAUsaverestore_s@@@Z 100c1210 f   util.obj
 0001:000c0220       ?EntityIndex@CSaveRestoreBuffer@@QAEHPAVCBaseEntity@@@Z 100c1220 f   util.obj
 0001:000c0240       ?EntityIndex@CSaveRestoreBuffer@@QAEHPAUentvars_s@@@Z 100c1240 f   util.obj
 0001:000c0260       ?EntityIndex@CSaveRestoreBuffer@@QAEHH@Z 100c1260 f   util.obj
 0001:000c0280       ?EntityIndex@CSaveRestoreBuffer@@QAEHPAUedict_s@@@Z 100c1280 f   util.obj
 0001:000c02c0       ?EntityFromIndex@CSaveRestoreBuffer@@QAEPAUedict_s@@H@Z 100c12c0 f   util.obj
 0001:000c0300       ?EntityFlagsSet@CSaveRestoreBuffer@@QAEHHH@Z 100c1300 f   util.obj
 0001:000c0350       ?BufferRewind@CSaveRestoreBuffer@@IAEXH@Z 100c1350 f   util.obj
 0001:000c0380       ?HashString@CSaveRestoreBuffer@@IAEIPBD@Z 100c1380 f   util.obj
 0001:000c03a0       ?TokenHash@CSaveRestoreBuffer@@QAEGPBD@Z 100c13a0 f   util.obj
 0001:000c0480       ?WriteData@CSave@@QAEXPBDH0@Z 100c1480 f   util.obj
 0001:000c04a0       ?WriteFloat@CSave@@QAEXPBDPBMH@Z 100c14a0 f   util.obj
 0001:000c04a0       ?WriteInt@CSave@@QAEXPBDPBHH@Z 100c14a0 f   util.obj
 0001:000c04c0       ?WriteTime@CSave@@QAEXPBDPBMH@Z 100c14c0 f   util.obj
 0001:000c0520       ?WriteString@CSave@@QAEXPBDPBHH@Z 100c1520 f   util.obj
 0001:000c05b0       ?WriteVector@CSave@@QAEXPBDPBMH@Z 100c15b0 f   util.obj
 0001:000c05e0       ?WritePositionVector@CSave@@QAEXPBDPBMH@Z 100c15e0 f   util.obj
 0001:000c0690       ?WriteFunction@CSave@@QAEXPBD0PBHH@Z 100c1690 f   util.obj
 0001:000c06f0       ?EntvarsKeyvalue@@YAXPAUentvars_s@@PAUKeyValueData_s@@@Z 100c16f0 f   util.obj
 0001:000c0800       ?WriteEntVars@CSave@@QAEHPBDPAUentvars_s@@@Z 100c1800 f   util.obj
 0001:000c0860       ?WriteFields@CSave@@QAEHPBD0PAXPAUTYPEDESCRIPTION@@H@Z 100c1860 f   util.obj
 0001:000c0b40       ?DataEmpty@CSave@@AAEHPBDH@Z 100c1b40 f   util.obj
 0001:000c0b70       ?BufferField@CSave@@AAEXPBDH0@Z 100c1b70 f   util.obj
 0001:000c0ba0       ?BufferHeader@CSave@@AAEXPBDH@Z 100c1ba0 f   util.obj
 0001:000c0bf0       ?BufferData@CSave@@AAEXPBDH@Z 100c1bf0 f   util.obj
 0001:000c0c60       ?ReadField@CRestore@@QAEHPAXPAUTYPEDESCRIPTION@@HHHPAD0@Z 100c1c60 f   util.obj
 0001:000c0fd0       ?ReadEntVars@CRestore@@QAEHPBDPAUentvars_s@@@Z 100c1fd0 f   util.obj
 0001:000c0ff0       ?ReadFields@CRestore@@QAEHPBDPAXPAUTYPEDESCRIPTION@@H@Z 100c1ff0 f   util.obj
 0001:000c1120       ?BufferReadHeader@CRestore@@AAEXPAUHEADER@@@Z 100c2120 f   util.obj
 0001:000c1160       ?ReadShort@CRestore@@QAEFXZ 100c2160 f   util.obj
 0001:000c1180       ?ReadInt@CRestore@@QAEHXZ  100c2180 f   util.obj
 0001:000c11a0       ?BufferPointer@CRestore@@AAEPADXZ 100c21a0 f   util.obj
 0001:000c11b0       ?BufferReadBytes@CRestore@@AAEXPADH@Z 100c21b0 f   util.obj
 0001:000c1230       ?BufferSkipBytes@CRestore@@AAEXH@Z 100c2230 f   util.obj
 0001:000c1310       ??0CVoiceGameMgr@@QAE@XZ   100c2310 f   voice_gamemgr.obj
 0001:000c1330       ??_ECVoiceGameMgr@@UAEPAXI@Z 100c2330 f i voice_gamemgr.obj
 0001:000c1330       ??_GCVoiceGameMgr@@UAEPAXI@Z 100c2330 f i voice_gamemgr.obj
 0001:000c1350       ??1CVoiceGameMgr@@UAE@XZ   100c2350 f   voice_gamemgr.obj
 0001:000c1360       ?Init@CVoiceGameMgr@@QAE_NPAVIVoiceGameMgrHelper@@H@Z 100c2360 f   voice_gamemgr.obj
 0001:000c13f0       ?Update@CVoiceGameMgr@@QAEXN@Z 100c23f0 f   voice_gamemgr.obj
 0001:000c1410       ?ClientConnected@CVoiceGameMgr@@QAEXPAUedict_s@@@Z 100c2410 f   voice_gamemgr.obj
 0001:000c14a0       ?PlayerHasBlockedPlayer@CVoiceGameMgr@@QAE_NPAVCBasePlayer@@0@Z 100c24a0 f   voice_gamemgr.obj
 0001:000c1520       ?ClientCommand@CVoiceGameMgr@@QAE_NPAVCBasePlayer@@PBD@Z 100c2520 f   voice_gamemgr.obj
 0001:000c1730       ?UpdateMasks@CVoiceGameMgr@@AAEXXZ 100c2730 f   voice_gamemgr.obj
 0001:000c1970       ??8?$CBitVec@$0CA@@@QAE_NABV0@@Z 100c2970 f i voice_gamemgr.obj
 0001:000c19a0       ?MaxAmmoCarry@@YAHH@Z      100c29a0 f   weapons.obj
 0001:000c1aa0       ?ClearMultiDamage@@YAXXZ   100c2aa0 f   weapons.obj
 0001:000c1ac0       ?ApplyMultiDamage@@YAXPAUentvars_s@@0@Z 100c2ac0 f   weapons.obj
 0001:000c1af0       ?AddMultiDamage@@YAXPAUentvars_s@@PAVCBaseEntity@@MH@Z 100c2af0 f   weapons.obj
 0001:000c1b50       ?SpawnBlood@@YAXVVector@@HM@Z 100c2b50 f   weapons.obj
 0001:000c1b80       ?DamageDecal@@YAHPAVCBaseEntity@@H@Z 100c2b80 f   weapons.obj
 0001:000c1bb0       ?DecalGunshot@@YAXPAUTraceResult@@H@Z 100c2bb0 f   weapons.obj
 0001:000c1c80       ?EjectBrass@@YAXABVVector@@0MHH@Z 100c2c80 f   weapons.obj
 0001:000c1d10       ?AddAmmoNameToAmmoRegistry@@YAXPBD@Z 100c2d10 f   weapons.obj
 0001:000c1d70       ?UTIL_PrecacheOtherWeapon@@YAXPBD@Z 100c2d70 f   weapons.obj
 0001:000c1e60       ?UTIL_PrecacheSpecialItems@@YAXXZ 100c2e60 f   weapons.obj
 0001:000c1f40       ?W_Precache@@YAXXZ         100c2f40 f   weapons.obj
 0001:000c22d0       ?Save@CBasePlayerItem@@UAEHAAVCSave@@@Z 100c32d0 f   weapons.obj
 0001:000c2340       ?Restore@CBasePlayerItem@@UAEHAAVCRestore@@@Z 100c3340 f   weapons.obj
 0001:000c2370       ?Save@CBasePlayerWeapon@@UAEHAAVCSave@@@Z 100c3370 f   weapons.obj
 0001:000c23e0       ?Restore@CBasePlayerWeapon@@UAEHAAVCRestore@@@Z 100c33e0 f   weapons.obj
 0001:000c2410       ?SetObjectCollisionBox@CBasePlayerItem@@UAEXXZ 100c3410 f   weapons.obj
 0001:000c24b0       ?FallInit@CBasePlayerItem@@QAEXXZ 100c34b0 f   weapons.obj
 0001:000c2570       ?FallThink@CBasePlayerItem@@QAEXXZ 100c3570 f   weapons.obj
 0001:000c2600       ?Materialize@CBasePlayerItem@@QAEXXZ 100c3600 f   weapons.obj
 0001:000c26b0       ?AttemptToMaterialize@CBasePlayerItem@@QAEXXZ 100c36b0 f   weapons.obj
 0001:000c26f0       ?CheckRespawn@CBasePlayerItem@@QAEXXZ 100c36f0 f   weapons.obj
 0001:000c2710       ?Respawn@CBasePlayerItem@@UAEPAVCBaseEntity@@XZ 100c3710 f   weapons.obj
 0001:000c2800       ?DefaultTouch@CBasePlayerItem@@QAEXPAVCBaseEntity@@@Z 100c3800 f   weapons.obj
 0001:000c2890       ?CanAttack@@YAHMMH@Z       100c3890 f   weapons.obj
 0001:000c28b0       ?ItemPostFrame@CBasePlayerWeapon@@UAEXXZ 100c38b0 f   weapons.obj
 0001:000c2c20       ?DestroyItem@CBasePlayerItem@@QAEXXZ 100c3c20 f   weapons.obj
 0001:000c2c50       ?AddToPlayer@CBasePlayerItem@@UAEHPAVCBasePlayer@@@Z 100c3c50 f   weapons.obj
 0001:000c2c70       ?Drop@CBasePlayerItem@@UAEXXZ 100c3c70 f   weapons.obj
 0001:000c2c70       ?Kill@CBasePlayerItem@@UAEXXZ 100c3c70 f   weapons.obj
 0001:000c2cc0       ?AttachToPlayer@CBasePlayerItem@@UAEXPAVCBasePlayer@@@Z 100c3cc0 f   weapons.obj
 0001:000c2d60       ?SetNextThink@CBasePlayerWeapon@@UAEXM@Z 100c3d60 f   weapons.obj
 0001:000c2d80       ?AddDuplicate@CBasePlayerWeapon@@UAEHPAVCBasePlayerItem@@@Z 100c3d80 f   weapons.obj
 0001:000c2db0       ?AddToPlayer@CBasePlayerWeapon@@UAEHPAVCBasePlayer@@@Z 100c3db0 f   weapons.obj
 0001:000c2e50       ?UpdateClientData@CBasePlayerWeapon@@UAEHPAVCBasePlayer@@@Z 100c3e50 f   weapons.obj
 0001:000c2f50       ?SendWeaponAnim@CBasePlayerWeapon@@UAEXHHH@Z 100c3f50 f   weapons.obj
 0001:000c2fb0       ?AddPrimaryAmmo@CBasePlayerWeapon@@QAEHHPADHH@Z 100c3fb0 f   weapons.obj
 0001:000c3080       ?AddSecondaryAmmo@CBasePlayerWeapon@@QAEHHPADH@Z 100c4080 f   weapons.obj
 0001:000c30e0       ?IsUseable@CBasePlayerWeapon@@UAEHXZ 100c40e0 f   weapons.obj
 0001:000c3130       ?CanDeploy@CBasePlayerWeapon@@UAEHXZ 100c4130 f   weapons.obj
 0001:000c31b0       ?WeaponDelay@CBasePlayerWeapon@@QAEXH@Z 100c41b0 f   weapons.obj
 0001:000c3220       ?WeaponDelayTime@CBasePlayerWeapon@@QAEXM@Z 100c4220 f   weapons.obj
 0001:000c3270       ?DefaultDeploy@CBasePlayerWeapon@@QAEHPAD0H0HH@Z 100c4270 f   weapons.obj
 0001:000c3350       ?DefaultReload@CBasePlayerWeapon@@QAEHHHMH@Z 100c4350 f   weapons.obj
 0001:000c33d0       ?PlayEmptySound@CBasePlayerWeapon@@UAEHXZ 100c43d0 f   weapons.obj
 0001:000c3420       ?ResetEmptySound@CBasePlayerWeapon@@UAEXXZ 100c4420 f   weapons.obj
 0001:000c3430       ?PrimaryAmmoIndex@CBasePlayerWeapon@@UAEHXZ 100c4430 f   weapons.obj
 0001:000c3440       ?SecondaryAmmoIndex@CBasePlayerWeapon@@UAEHXZ 100c4440 f   weapons.obj
 0001:000c3450       ?Holster@CBasePlayerWeapon@@UAEXH@Z 100c4450 f   weapons.obj
 0001:000c3480       ?Save@CBasePlayerAmmo@@UAEHAAVCSave@@@Z 100c4480 f   weapons.obj
 0001:000c34f0       ?Restore@CBasePlayerAmmo@@UAEHAAVCRestore@@@Z 100c44f0 f   weapons.obj
 0001:000c3520       ?Spawn@CBasePlayerAmmo@@UAEXXZ 100c4520 f   weapons.obj
 0001:000c35d0       ?Respawn@CBasePlayerAmmo@@UAEPAVCBaseEntity@@XZ 100c45d0 f   weapons.obj
 0001:000c3660       ?Materialize@CBasePlayerAmmo@@QAEXXZ 100c4660 f   weapons.obj
 0001:000c36f0       ?DefaultTouch@CBasePlayerAmmo@@QAEXPAVCBaseEntity@@@Z 100c46f0 f   weapons.obj
 0001:000c3790       ?ExtractAmmo@CBasePlayerWeapon@@UAEHPAV1@@Z 100c4790 f   weapons.obj
 0001:000c3810       ?ExtractClipAmmo@CBasePlayerWeapon@@UAEHPAV1@@Z 100c4810 f   weapons.obj
 0001:000c3860       ?RetireWeapon@CBasePlayerWeapon@@UAEXXZ 100c4860 f   weapons.obj
 0001:000c38a0       ?DrainClip@CBasePlayerWeapon@@QAEXPAVCBasePlayer@@HHHHHHHHHHHHHHHHHH@Z 100c48a0 f   weapons.obj
 0001:000c3aa0       _weaponbox                 100c4aa0 f   weapons.obj
 0001:000c3af0       ?Save@CWeaponBox@@UAEHAAVCSave@@@Z 100c4af0 f   weapons.obj
 0001:000c3b60       ?Restore@CWeaponBox@@UAEHAAVCRestore@@@Z 100c4b60 f   weapons.obj
 0001:000c3b90       ?Precache@CWeaponBox@@EAEXXZ 100c4b90 f   weapons.obj
 0001:000c3ba0       ?KeyValue@CWeaponBox@@EAEXPAUKeyValueData_s@@@Z 100c4ba0 f   weapons.obj
 0001:000c3c10       ?Spawn@CWeaponBox@@EAEXXZ  100c4c10 f   weapons.obj
 0001:000c3c60       ?Kill@CWeaponBox@@QAEXXZ   100c4c60 f   weapons.obj
 0001:000c3cc0       ?Touch@CWeaponBox@@EAEXPAVCBaseEntity@@@Z 100c4cc0 f   weapons.obj
 0001:000c3de0       ?PackWeapon@CWeaponBox@@QAEHPAVCBasePlayerItem@@@Z 100c4de0 f   weapons.obj
 0001:000c3ec0       ?PackAmmo@CWeaponBox@@QAEHHH@Z 100c4ec0 f   weapons.obj
 0001:000c3f20       ?GiveAmmo@CWeaponBox@@AAEHHPADHPAH@Z 100c4f20 f   weapons.obj
 0001:000c4000       ?HasWeapon@CWeaponBox@@QAEHPAVCBasePlayerItem@@@Z 100c5000 f   weapons.obj
 0001:000c4090       ?SetObjectCollisionBox@CWeaponBox@@EAEXXZ 100c5090 f   weapons.obj
 0001:000c4130       ?Save@CGauss@@UAEHAAVCSave@@@Z 100c5130 f   weapons.obj
 0001:000c41a0       ?Restore@CGauss@@UAEHAAVCRestore@@@Z 100c51a0 f   weapons.obj
 0001:000c41d0       ?Save@CEgon@@UAEHAAVCSave@@@Z 100c51d0 f   weapons.obj
 0001:000c4240       ?Restore@CEgon@@UAEHAAVCRestore@@@Z 100c5240 f   weapons.obj
 0001:000c4270       ?Save@CSatchel@@UAEHAAVCSave@@@Z 100c5270 f   weapons.obj
 0001:000c42e0       ?Restore@CSatchel@@UAEHAAVCRestore@@@Z 100c52e0 f   weapons.obj
 0001:000c4310       _item_painkiller           100c5310 f   weapons.obj
 0001:000c4360       ?Spawn@CPainkiller@@EAEXXZ 100c5360 f i weapons.obj
 0001:000c4390       ?Precache@CPainkiller@@EAEXXZ 100c5390 f i weapons.obj
 0001:000c43b0       ?AddAmmo@CPainkiller@@EAEHPAVCBaseEntity@@@Z 100c53b0 f i weapons.obj
 0001:000c4450       _infodecal                 100c5450 f   world.obj
 0001:000c44a0       ?Spawn@CDecal@@UAEXXZ      100c54a0 f   world.obj
 0001:000c4510       ?TriggerDecal@CDecal@@QAEXPAVCBaseEntity@@0W4USE_TYPE@@M@Z 100c5510 f   world.obj
 0001:000c4630       ?StaticDecal@CDecal@@QAEXXZ 100c5630 f   world.obj
 0001:000c4700       ?KeyValue@CDecal@@UAEXPAUKeyValueData_s@@@Z 100c5700 f   world.obj
 0001:000c4890       _bodyque                   100c5890 f   world.obj
 0001:000c48e0       ?CopyToBodyQue@@YAXPAUentvars_s@@@Z 100c58e0 f   world.obj
 0001:000c4a10       ??0CGlobalState@@QAE@XZ    100c5a10 f   world.obj
 0001:000c4a20       ?Reset@CGlobalState@@QAEXXZ 100c5a20 f   world.obj
 0001:000c4a30       ?Find@CGlobalState@@AAEPAUglobalentity_s@@H@Z 100c5a30 f   world.obj
 0001:000c4aa0       ?DumpGlobals@CGlobalState@@QAEXXZ 100c5aa0 f   world.obj
 0001:000c4af0       ?EntityAdd@CGlobalState@@QAEXHHW4GLOBALESTATE@@@Z 100c5af0 f   world.obj
 0001:000c4b90       ?EntitySetState@CGlobalState@@QAEXHW4GLOBALESTATE@@@Z 100c5b90 f   world.obj
 0001:000c4bb0       ?EntityFromTable@CGlobalState@@QAEPBUglobalentity_s@@H@Z 100c5bb0 f   world.obj
 0001:000c4bc0       ?EntityGetState@CGlobalState@@QAE?AW4GLOBALESTATE@@H@Z 100c5bc0 f   world.obj
 0001:000c4be0       ?Save@CGlobalState@@QAEHAAVCSave@@@Z 100c5be0 f   world.obj
 0001:000c4c60       ?Restore@CGlobalState@@QAEHAAVCRestore@@@Z 100c5c60 f   world.obj
 0001:000c4d00       ?EntityUpdate@CGlobalState@@QAEXHH@Z 100c5d00 f   world.obj
 0001:000c4d50       ?ClearStates@CGlobalState@@QAEXXZ 100c5d50 f   world.obj
 0001:000c4d80       ?SaveGlobalState@@YAXPAUsaverestore_s@@@Z 100c5d80 f   world.obj
 0001:000c4db0       ?RestoreGlobalState@@YAXPAUsaverestore_s@@@Z 100c5db0 f   world.obj
 0001:000c4df0       ?ResetGlobalState@@YAXXZ   100c5df0 f   world.obj
 0001:000c4e10       _worldspawn                100c5e10 f   world.obj
 0001:000c4e60       ?Spawn@CWorld@@UAEXXZ      100c5e60 f   world.obj
 0001:000c4e90       ?Precache@CWorld@@UAEXXZ   100c5e90 f   world.obj
 0001:000c52d0       ?KeyValue@CWorld@@UAEXPAUKeyValueData_s@@@Z 100c62d0 f   world.obj
 0001:000c57e0       ?Save@CActAnimating@@UAEHAAVCSave@@@Z 100c67e0 f   xen.obj
 0001:000c5850       ?Restore@CActAnimating@@UAEHAAVCRestore@@@Z 100c6850 f   xen.obj
 0001:000c5880       ?SetActivity@CActAnimating@@QAEXW4Activity@@@Z 100c6880 f   xen.obj
 0001:000c58c0       _xen_plantlight            100c68c0 f   xen.obj
 0001:000c5910       ?Save@CXenPLight@@UAEHAAVCSave@@@Z 100c6910 f   xen.obj
 0001:000c5980       ?Restore@CXenPLight@@UAEHAAVCRestore@@@Z 100c6980 f   xen.obj
 0001:000c59b0       ?Spawn@CXenPLight@@UAEXXZ  100c69b0 f   xen.obj
 0001:000c5b90       ?Precache@CXenPLight@@UAEXXZ 100c6b90 f   xen.obj
 0001:000c5bb0       ?Think@CXenPLight@@UAEXXZ  100c6bb0 f   xen.obj
 0001:000c5c40       ?Touch@CXenPLight@@UAEXPAVCBaseEntity@@@Z 100c6c40 f   xen.obj
 0001:000c5c90       ?LightOn@CXenPLight@@QAEXXZ 100c6c90 f   xen.obj
 0001:000c5cc0       ?LightOff@CXenPLight@@QAEXXZ 100c6cc0 f   xen.obj
 0001:000c5cf0       _xen_hair                  100c6cf0 f   xen.obj
 0001:000c5d40       ?Spawn@CXenHair@@UAEXXZ    100c6d40 f   xen.obj
 0001:000c5e30       ?Precache@CXenHair@@UAEXXZ 100c6e30 f   xen.obj
 0001:000c5e40       _xen_ttrigger              100c6e40 f   xen.obj
 0001:000c5e90       ?TriggerCreate@CXenTreeTrigger@@SAPAV1@PAUedict_s@@ABVVector@@@Z 100c6e90 f   xen.obj
 0001:000c5f40       ?Touch@CXenTreeTrigger@@UAEXPAVCBaseEntity@@@Z 100c6f40 f   xen.obj
 0001:000c5f90       _xen_tree                  100c6f90 f   xen.obj
 0001:000c5fe0       ?TakeDamage@CXenTree@@UAEHPAUentvars_s@@0MH@Z 100c6fe0 f i xen.obj
 0001:000c5ff0       ?Save@CXenTree@@UAEHAAVCSave@@@Z 100c6ff0 f   xen.obj
 0001:000c6060       ?Restore@CXenTree@@UAEHAAVCRestore@@@Z 100c7060 f   xen.obj
 0001:000c6090       ?Spawn@CXenTree@@UAEXXZ    100c7090 f   xen.obj
 0001:000c6240       ?Precache@CXenTree@@UAEXXZ 100c7240 f   xen.obj
 0001:000c62a0       ?Touch@CXenTree@@UAEXPAVCBaseEntity@@@Z 100c72a0 f   xen.obj
 0001:000c6310       ?Attack@CXenTree@@QAEXXZ   100c7310 f   xen.obj
 0001:000c6390       ?HandleAnimEvent@CXenTree@@UAEXPAUMonsterEvent_t@@@Z 100c7390 f   xen.obj
 0001:000c6500       ?Think@CXenTree@@UAEXXZ    100c7500 f   xen.obj
 0001:000c6570       ?CreateHull@CXenHull@@SAPAV1@PAVCBaseEntity@@ABVVector@@11@Z 100c7570 f   xen.obj
 0001:000c66a0       ?Classify@CXenTree@@UAEHXZ 100c76a0 f i xen.obj
 0001:000c66a0       ?Classify@CXenHull@@UAEHXZ 100c76a0 f i xen.obj
 0001:000c66b0       _xen_spore_small           100c76b0 f   xen.obj
 0001:000c6700       ?TakeDamage@CXenSpore@@UAEHPAUentvars_s@@0MH@Z 100c7700 f i xen.obj
 0001:000c6710       _xen_spore_medium          100c7710 f   xen.obj
 0001:000c6760       _xen_spore_large           100c7760 f   xen.obj
 0001:000c67b0       _xen_hull                  100c77b0 f   xen.obj
 0001:000c6800       ?Spawn@CXenSporeSmall@@EAEXXZ 100c7800 f   xen.obj
 0001:000c6870       ?Spawn@CXenSporeMed@@EAEXXZ 100c7870 f   xen.obj
 0001:000c6990       ?Spawn@CXenSporeLarge@@EAEXXZ 100c7990 f   xen.obj
 0001:000c6ac0       ?Spawn@CXenSpore@@UAEXXZ   100c7ac0 f   xen.obj
 0001:000c6b70       ?Precache@CXenSpore@@UAEXXZ 100c7b70 f   xen.obj
 0001:000c6b90       ?Think@CXenSpore@@UAEXXZ   100c7b90 f   xen.obj
 0001:000c6bb0       _monster_zombie            100c7bb0 f   zombie.obj
 0001:000c6c10       ?TakeDamage@CZombie@@UAEHPAUentvars_s@@0MH@Z 100c7c10 f   zombie.obj
 0001:000c6db0       ?TraceAttack@CZombie@@UAEXPAUentvars_s@@MVVector@@PAUTraceResult@@H@Z 100c7db0 f   zombie.obj
 0001:000c6fc0       ?AlertSound@CZombie@@UAEXXZ 100c7fc0 f   zombie.obj
 0001:000c70f0       ?AttackSound@CZombie@@QAEXXZ 100c80f0 f   zombie.obj
 0001:000c7250       ?PainSound@CZombie@@UAEXXZ 100c8250 f   zombie.obj
 0001:000c7390       ?IdleSound@CZombie@@UAEXXZ 100c8390 f   zombie.obj
 0001:000c73f0       ?HandleAnimEvent@CZombie@@UAEXPAUMonsterEvent_t@@@Z 100c83f0 f   zombie.obj
 0001:000c77c0       ?Spawn@CZombie@@UAEXXZ     100c87c0 f   zombie.obj
 0001:000c79f0       ?Precache@CZombie@@UAEXXZ  100c89f0 f   zombie.obj
 0001:000c7c10       ?IgnoreConditions@CZombie@@UAEHXZ 100c8c10 f   zombie.obj
 0001:000c7c70       _atof                      100c8c70 f   LIBCMT:atof.obj
 0001:000c7cc7       _atol                      100c8cc7 f   LIBCMT:atox.obj
 0001:000c7d52       _atoi                      100c8d52 f   LIBCMT:atox.obj
 0001:000c7d5d       __fpmath                   100c8d5d f   LIBCMT:fpinit.obj
 0001:000c7d74       __fpclear                  100c8d74 f   LIBCMT:fpinit.obj
 0001:000c7d75       __cfltcvt_init             100c8d75 f   LIBCMT:fpinit.obj
 0001:000c7db0       __ftol                     100c8db0 f   LIBCMT:ftol.obj
 0001:000c7dd7       _srand                     100c8dd7 f   LIBCMT:rand.obj
 0001:000c7de4       _rand                      100c8de4 f   LIBCMT:rand.obj
 0001:000c7e06       _sprintf                   100c8e06 f   LIBCMT:sprintf.obj
 0001:000c7e58       _isalpha                   100c8e58 f   LIBCMT:_ctype.obj
 0001:000c7e86       _isdigit                   100c8e86 f   LIBCMT:_ctype.obj
 0001:000c7eae       _isspace                   100c8eae f   LIBCMT:_ctype.obj
 0001:000c7ed6       _isalnum                   100c8ed6 f   LIBCMT:_ctype.obj
 0001:000c7f04       _isprint                   100c8f04 f   LIBCMT:_ctype.obj
 0001:000c7f40       _strncpy                   100c8f40 f   LIBCMT:strncpy.obj
 0001:000c8040       _strstr                    100c9040 f   LIBCMT:strstr.obj
 0001:000c80c0       _fmod                      100c90c0 f   LIBCMT:87fmod.obj
 0001:000c80ca       __CIfmod                   100c90ca f   LIBCMT:87fmod.obj
 0001:000c8100       _strncmp                   100c9100 f   LIBCMT:strncmp.obj
 0001:000c8138       ??2@YAPAXI@Z               100c9138 f   LIBCMT:new.obj
 0001:000c8146       _sscanf                    100c9146 f   LIBCMT:sscanf.obj
 0001:000c8180       __CIpow                    100c9180 f   LIBCMT:pow.obj
 0001:000c8199       _pow                       100c9199 f   LIBCMT:pow.obj
 0001:000c839d       __onexit                   100c939d f   LIBCMT:onexit.obj
 0001:000c841b       _atexit                    100c941b f   LIBCMT:onexit.obj
 0001:000c842d       ___onexitinit              100c942d f   LIBCMT:onexit.obj
 0001:000c845c       __purecall                 100c945c f   LIBCMT:purevirt.obj
 0001:000c8465       ??3@YAXPAX@Z               100c9465 f   LIBCMT:delete.obj
 0001:000c8470       _free                      100c9470 f   LIBCMT:free.obj
 0001:000c8559       _calloc                    100c9559 f   LIBCMT:calloc.obj
 0001:000c8696       _fprintf                   100c9696 f   LIBCMT:fprintf.obj
 0001:000c86d2       _fclose                    100c96d2 f   LIBCMT:fclose.obj
 0001:000c8703       __fclose_lk                100c9703 f   LIBCMT:fclose.obj
 0001:000c874f       __fsopen                   100c974f f   LIBCMT:fopen.obj
 0001:000c8780       _fopen                     100c9780 f   LIBCMT:fopen.obj
 0001:000c8793       _printf                    100c9793 f   LIBCMT:printf.obj
 0001:000c87d4       _fwrite                    100c97d4 f   LIBCMT:fwrite.obj
 0001:000c8803       __fwrite_lk                100c9803 f   LIBCMT:fwrite.obj
 0001:000c8910       __CIacos                   100c9910 f   LIBCMT:acos.obj
 0001:000c8924       _acos                      100c9924 f   LIBCMT:acos.obj
 0001:000c89db       _toupper                   100c99db f   LIBCMT:toupper.obj
 0001:000c8a4a       __toupper_lk               100c9a4a f   LIBCMT:toupper.obj
 0001:000c8b16       __isctype                  100c9b16 f   LIBCMT:isctype.obj
 0001:000c8b8b       _strtok                    100c9b8b f   LIBCMT:strtok.obj
 0001:000c8c2f       _tolower                   100c9c2f f   LIBCMT:tolower.obj
 0001:000c8c9e       __tolower_lk               100c9c9e f   LIBCMT:tolower.obj
 0001:000c8d70       __chkstk                   100c9d70 f   LIBCMT:chkstk.obj
 0001:000c8d70       __alloca_probe             100c9d70 f   LIBCMT:chkstk.obj
 0001:000c8da0       __CIasin                   100c9da0 f   LIBCMT:asin.obj
 0001:000c8db4       _asin                      100c9db4 f   LIBCMT:asin.obj
 0001:000c8e6b       _vsprintf                  100c9e6b f   LIBCMT:vsprintf.obj
 0001:000c8ebc       __vsnprintf                100c9ebc f   LIBCMT:vsnprint.obj
 0001:000c8f0c       __CRT_INIT@12              100c9f0c f   LIBCMT:dllcrt0.obj
 0001:000c8fe5       __DllMainCRTStartup@12     100c9fe5 f   LIBCMT:dllcrt0.obj
 0001:000c9082       __amsg_exit                100ca082 f   LIBCMT:dllcrt0.obj
 0001:000c90b5       __fltin2                   100ca0b5 f   LIBCMT:cfin.obj
 0001:000c9140       _strlen                    100ca140 f   LIBCMT:strlen.obj
 0001:000c91c0       __allmul                   100ca1c0 f   LIBCMT:llmul.obj
 0001:000c91f4       __setdefaultprecision      100ca1f4 f   LIBCMT:fp8.obj
 0001:000c9206       __ms_p5_test_fdiv          100ca206 f   LIBCMT:testfdiv.obj
 0001:000c9244       __ms_p5_mp_test_fdiv       100ca244 f   LIBCMT:testfdiv.obj
 0001:000c926d       __forcdecpt                100ca26d f   LIBCMT:cvt.obj
 0001:000c92c7       __cropzeros                100ca2c7 f   LIBCMT:cvt.obj
 0001:000c9315       __positive                 100ca315 f   LIBCMT:cvt.obj
 0001:000c932d       __fassign                  100ca32d f   LIBCMT:cvt.obj
 0001:000c936b       __cftoe                    100ca36b f   LIBCMT:cvt.obj
 0001:000c948e       __cftof                    100ca48e f   LIBCMT:cvt.obj
 0001:000c958a       __cftog                    100ca58a f   LIBCMT:cvt.obj
 0001:000c961d       __cfltcvt                  100ca61d f   LIBCMT:cvt.obj
 0001:000c9693       __mtinit                   100ca693 f   LIBCMT:tidtable.obj
 0001:000c96e7       __mtterm                   100ca6e7 f   LIBCMT:tidtable.obj
 0001:000c9705       __initptd                  100ca705 f   LIBCMT:tidtable.obj
 0001:000c9718       __getptd                   100ca718 f   LIBCMT:tidtable.obj
 0001:000c977f       __freeptd                  100ca77f f   LIBCMT:tidtable.obj
 0001:000c981f       __flsbuf                   100ca81f f   LIBCMT:_flsbuf.obj
 0001:000c9937       __output                   100ca937 f   LIBCMT:output.obj
 0001:000ca1b0       _strchr                    100cb1b0 f   LIBCMT:strchr.obj
 0001:000ca1b6       ___from_strstr_to_strchr   100cb1b6 f   LIBCMT:strchr.obj
 0001:000ca270       __cintrindisp2             100cb270 f   LIBCMT:87cdisp.obj
 0001:000ca2ae       __cintrindisp1             100cb2ae f   LIBCMT:87cdisp.obj
 0001:000ca2eb       __ctrandisp2               100cb2eb f   LIBCMT:87cdisp.obj
 0001:000ca46b       __ctrandisp1               100cb46b f   LIBCMT:87cdisp.obj
 0001:000ca49e       __fload                    100cb49e f   LIBCMT:87cdisp.obj
 0001:000ca4e0       __trandisp1                100cb4e0 f   LIBCMT:87disp.obj
 0001:000ca547       __trandisp2                100cb547 f   LIBCMT:87disp.obj
 0001:000ca5d3       __rttospopde               100cb5d3 f   LIBCMT:87disp.obj
 0001:000ca5d8       __rttospop                 100cb5d8 f   LIBCMT:87disp.obj
 0001:000ca5da       __rtnospop                 100cb5da f   LIBCMT:87disp.obj
 0001:000ca5dc       __rttosnpop                100cb5dc f   LIBCMT:87disp.obj
 0001:000ca5dd       __rtnospopde               100cb5dd f   LIBCMT:87disp.obj
 0001:000ca5e4       __rtzeropop                100cb5e4 f   LIBCMT:87disp.obj
 0001:000ca5e6       __rtzeronpop               100cb5e6 f   LIBCMT:87disp.obj
 0001:000ca5eb       __rtonepop                 100cb5eb f   LIBCMT:87disp.obj
 0001:000ca5ed       __rtonenpop                100cb5ed f   LIBCMT:87disp.obj
 0001:000ca5f2       __tosnan1                  100cb5f2 f   LIBCMT:87disp.obj
 0001:000ca61d       __nosnan2                  100cb61d f   LIBCMT:87disp.obj
 0001:000ca61f       __tosnan2                  100cb61f f   LIBCMT:87disp.obj
 0001:000ca647       __nan2                     100cb647 f   LIBCMT:87disp.obj
 0001:000ca686       __rtindfpop                100cb686 f   LIBCMT:87disp.obj
 0001:000ca688       __rtindfnpop               100cb688 f   LIBCMT:87disp.obj
 0001:000ca699       __rttosnpopde              100cb699 f   LIBCMT:87disp.obj
 0001:000ca6a3       __rtchsifneg               100cb6a3 f   LIBCMT:87disp.obj
 0001:000ca6b0       _fdiv_main_routine         100cb6b0 f   LIBCMT:adj_fdiv.obj
 0001:000ca7c7       __adj_fdiv_r               100cb7c7 f   LIBCMT:adj_fdiv.obj
 0001:000cac66       __fdivp_sti_st             100cbc66 f   LIBCMT:adj_fdiv.obj
 0001:000cac79       __fdivrp_sti_st            100cbc79 f   LIBCMT:adj_fdiv.obj
 0001:000cac8c       __adj_fdiv_m32             100cbc8c f   LIBCMT:adj_fdiv.obj
 0001:000cacd8       __adj_fdiv_m64             100cbcd8 f   LIBCMT:adj_fdiv.obj
 0001:000cad24       __adj_fdiv_m16i            100cbd24 f   LIBCMT:adj_fdiv.obj
 0001:000cad58       __adj_fdiv_m32i            100cbd58 f   LIBCMT:adj_fdiv.obj
 0001:000cad8c       __adj_fdivr_m32            100cbd8c f   LIBCMT:adj_fdiv.obj
 0001:000cadd8       __adj_fdivr_m64            100cbdd8 f   LIBCMT:adj_fdiv.obj
 0001:000cae24       __adj_fdivr_m16i           100cbe24 f   LIBCMT:adj_fdiv.obj
 0001:000cae58       __adj_fdivr_m32i           100cbe58 f   LIBCMT:adj_fdiv.obj
 0001:000cae8c       __safe_fdiv                100cbe8c f   LIBCMT:adj_fdiv.obj
 0001:000caea1       __safe_fdivr               100cbea1 f   LIBCMT:adj_fdiv.obj
 0001:000caeb6       __fprem_common             100cbeb6 f   LIBCMT:adj_fdiv.obj
 0001:000cb0bc       __adj_fprem                100cc0bc f   LIBCMT:adj_fdiv.obj
 0001:000cb16e       __fprem1_common            100cc16e f   LIBCMT:adj_fdiv.obj
 0001:000cb374       __adj_fprem1               100cc374 f   LIBCMT:adj_fdiv.obj
 0001:000cb429       __safe_fprem               100cc429 f   LIBCMT:adj_fdiv.obj
 0001:000cb42f       __safe_fprem1              100cc42f f   LIBCMT:adj_fdiv.obj
 0001:000cb435       __adj_fpatan               100cc435 f   LIBCMT:adj_fdiv.obj
 0001:000cb438       __adj_fptan                100cc438 f   LIBCMT:adj_fdiv.obj
 0001:000cb43b       _malloc                    100cc43b f   LIBCMT:malloc.obj
 0001:000cb44d       __nh_malloc                100cc44d f   LIBCMT:malloc.obj
 0001:000cb479       __heap_alloc               100cc479 f   LIBCMT:malloc.obj
 0001:000cb575       __input                    100cc575 f   LIBCMT:input.obj
 0001:000cc041       __fFEXP                    100cd041 f   LIBCMT:87tran.obj
 0001:000cc0a8       __rtinfpopse               100cd0a8 f   LIBCMT:87tran.obj
 0001:000cc0aa       __rtinfnpopse              100cd0aa f   LIBCMT:87tran.obj
 0001:000cc0ba       __fFLN                     100cd0ba f   LIBCMT:87tran.obj
 0001:000cc16f       __rtinfpop                 100cd16f f   LIBCMT:87tran.obj
 0001:000cc171       __rtinfnpop                100cd171 f   LIBCMT:87tran.obj
 0001:000cc18e       __ffexpm1                  100cd18e f   LIBCMT:87tran.obj
 0001:000cc240       __startTwoArgErrorHandling 100cd240 f   LIBCMT:genexcep.obj
 0001:000cc257       __startOneArgErrorHandling 100cd257 f   LIBCMT:genexcep.obj
 0001:000cc2a0       __twoToTOS                 100cd2a0 f   LIBCMT:common.obj
 0001:000cc2b5       __load_CW                  100cd2b5 f   LIBCMT:common.obj
 0001:000cc2cc       __convertTOStoQNaN         100cd2cc f   LIBCMT:common.obj
 0001:000cc2e5       __fload_withFB             100cd2e5 f   LIBCMT:common.obj
 0001:000cc328       __checkTOS_withFB          100cd328 f   LIBCMT:common.obj
 0001:000cc33e       __fast_exit                100cd33e f   LIBCMT:common.obj
 0001:000cc34b       __math_exit                100cd34b f   LIBCMT:common.obj
 0001:000cc375       __check_overflow_exit      100cd375 f   LIBCMT:common.obj
 0001:000cc389       __check_range_exit         100cd389 f   LIBCMT:common.obj
 0001:000cc42c       __powhlp                   100cd42c f   LIBCMT:powhlp.obj
 0001:000cc55c       __d_inttype                100cd55c f   LIBCMT:powhlp.obj
 0001:000cc5c1       __cinit                    100cd5c1 f   LIBCMT:crt0dat.obj
 0001:000cc5ee       __exit                     100cd5ee f   LIBCMT:crt0dat.obj
 0001:000cc5ff       __cexit                    100cd5ff f   LIBCMT:crt0dat.obj
 0001:000cc6b3       __lockexit                 100cd6b3 f   LIBCMT:crt0dat.obj
 0001:000cc6bc       __unlockexit               100cd6bc f   LIBCMT:crt0dat.obj
 0001:000cc6df       _realloc                   100cd6df f   LIBCMT:realloc.obj
 0001:000cca0e       __msize                    100cda0e f   LIBCMT:msize.obj
 0001:000ccafc       __GetLinkerVersion         100cdafc f   LIBCMT:heapinit.obj
 0001:000ccb29       ___heap_select             100cdb29 f   LIBCMT:heapinit.obj
 0001:000ccc71       __heap_init                100cdc71 f   LIBCMT:heapinit.obj
 0001:000cccce       __heap_term                100cdcce f   LIBCMT:heapinit.obj
 0001:000ccd76       ___sbh_heap_init           100cdd76 f   LIBCMT:sbheap.obj
 0001:000ccdbe       ___sbh_find_block          100cddbe f   LIBCMT:sbheap.obj
 0001:000ccde9       ___sbh_free_block          100cdde9 f   LIBCMT:sbheap.obj
 0001:000cd112       ___sbh_alloc_block         100ce112 f   LIBCMT:sbheap.obj
 0001:000cd41b       ___sbh_alloc_new_region    100ce41b f   LIBCMT:sbheap.obj
 0001:000cd4cc       ___sbh_alloc_new_group     100ce4cc f   LIBCMT:sbheap.obj
 0001:000cd5c7       ___sbh_resize_block        100ce5c7 f   LIBCMT:sbheap.obj
 0001:000cd8bd       ___old_sbh_new_region      100ce8bd f   LIBCMT:sbheap.obj
 0001:000cda01       ___old_sbh_release_region  100cea01 f   LIBCMT:sbheap.obj
 0001:000cda57       ___old_sbh_decommit_pages  100cea57 f   LIBCMT:sbheap.obj
 0001:000cdb19       ___old_sbh_find_block      100ceb19 f   LIBCMT:sbheap.obj
 0001:000cdb70       ___old_sbh_free_block      100ceb70 f   LIBCMT:sbheap.obj
 0001:000cdbb5       ___old_sbh_alloc_block     100cebb5 f   LIBCMT:sbheap.obj
 0001:000cddbd       ___old_sbh_alloc_block_from_page 100cedbd f   LIBCMT:sbheap.obj
 0001:000cdee1       ___old_sbh_resize_block    100ceee1 f   LIBCMT:sbheap.obj
 0001:000cdf8a       __mtinitlocks              100cef8a f   LIBCMT:mlock.obj
 0001:000cdfb3       __mtdeletelocks            100cefb3 f   LIBCMT:mlock.obj
 0001:000ce01f       __lock                     100cf01f f   LIBCMT:mlock.obj
 0001:000ce080       __unlock                   100cf080 f   LIBCMT:mlock.obj
 0001:000ce098       __global_unwind2           100cf098 f   LIBCMT:exsup.obj
 0001:000ce0da       __local_unwind2            100cf0da f   LIBCMT:exsup.obj
 0001:000ce132       __NLG_Return2              100cf132 f   LIBCMT:exsup.obj
 0001:000ce142       __abnormal_termination     100cf142 f   LIBCMT:exsup.obj
 0001:000ce165       __NLG_Notify1              100cf165 f   LIBCMT:exsup.obj
 0001:000ce16e       __NLG_Notify               100cf16e f   LIBCMT:exsup.obj
 0001:000ce181       __NLG_Dispatch             100cf181 f   LIBCMT:exsup.obj
 0001:000ce190       __except_handler3          100cf190 f   LIBCMT:exsup3.obj
 0001:000ce24d       __seh_longjmp_unwind@4     100cf24d f   LIBCMT:exsup3.obj
 0001:000ce268       __callnewh                 100cf268 f   LIBCMT:handler.obj
 0001:000ce290       _memset                    100cf290 f   LIBCMT:memset.obj
 0001:000ce2e8       ___initstdio               100cf2e8 f   LIBCMT:_file.obj
 0001:000ce390       ___endstdio                100cf390 f   LIBCMT:_file.obj
 0001:000ce3a4       __lock_file                100cf3a4 f   LIBCMT:_file.obj
 0001:000ce3d3       __lock_file2               100cf3d3 f   LIBCMT:_file.obj
 0001:000ce3f6       __unlock_file              100cf3f6 f   LIBCMT:_file.obj
 0001:000ce425       __unlock_file2             100cf425 f   LIBCMT:_file.obj
 0001:000ce448       __stbuf                    100cf448 f   LIBCMT:_sftbuf.obj
 0001:000ce4d5       __ftbuf                    100cf4d5 f   LIBCMT:_sftbuf.obj
 0001:000ce4ff       __close                    100cf4ff f   LIBCMT:close.obj
 0001:000ce55c       __close_lk                 100cf55c f   LIBCMT:close.obj
 0001:000ce5df       __freebuf                  100cf5df f   LIBCMT:_freebuf.obj
 0001:000ce60a       __fflush_lk                100cf60a f   LIBCMT:fflush.obj
 0001:000ce638       __flush                    100cf638 f   LIBCMT:fflush.obj
 0001:000ce694       __flushall                 100cf694 f   LIBCMT:fflush.obj
 0001:000ce741       __openfile                 100cf741 f   LIBCMT:_open.obj
 0001:000ce8b1       __getstream                100cf8b1 f   LIBCMT:stream.obj
 0001:000ce979       __write                    100cf979 f   LIBCMT:write.obj
 0001:000ce9de       __write_lk                 100cf9de f   LIBCMT:write.obj
 0001:000ceb70       _memcpy                    100cfb70 f   LIBCMT:memcpy.obj
 0001:000ceea5       ___crtLCMapStringA         100cfea5 f   LIBCMT:a_map.obj
 0001:000cf0f4       ___crtGetStringTypeA       100d00f4 f   LIBCMT:a_str.obj
 0001:000cf23d       __ioinit                   100d023d f   LIBCMT:ioinit.obj
 0001:000cf3f9       __ioterm                   100d03f9 f   LIBCMT:ioinit.obj
 0001:000cf44d       __setenvp                  100d044d f   LIBCMT:stdenvp.obj
 0001:000cf506       __setargv                  100d0506 f   LIBCMT:stdargv.obj
 0001:000cf753       ___crtGetEnvironmentStringsA 100d0753 f   LIBCMT:a_env.obj
 0001:000cf885       __FF_MSGBANNER             100d0885 f   LIBCMT:crt0msg.obj
 0001:000cf8be       __NMSG_WRITE               100d08be f   LIBCMT:crt0msg.obj
 0001:000cfa11       __ZeroTail                 100d0a11 f   LIBCMT:intrncvt.obj
 0001:000cfa5a       __IncMan                   100d0a5a f   LIBCMT:intrncvt.obj
 0001:000cfab0       __RoundMan                 100d0ab0 f   LIBCMT:intrncvt.obj
 0001:000cfb3c       __CopyMan                  100d0b3c f   LIBCMT:intrncvt.obj
 0001:000cfb57       __FillZeroMan              100d0b57 f   LIBCMT:intrncvt.obj
 0001:000cfb63       __IsZeroMan                100d0b63 f   LIBCMT:intrncvt.obj
 0001:000cfb7e       __ShrMan                   100d0b7e f   LIBCMT:intrncvt.obj
 0001:000cfc0b       __ld12cvt                  100d0c0b f   LIBCMT:intrncvt.obj
 0001:000cfd77       __ld12tod                  100d0d77 f   LIBCMT:intrncvt.obj
 0001:000cfd8d       __ld12tof                  100d0d8d f   LIBCMT:intrncvt.obj
 0001:000cfda3       __atodbl                   100d0da3 f   LIBCMT:intrncvt.obj
 0001:000cfdd0       __atoflt                   100d0dd0 f   LIBCMT:intrncvt.obj
 0001:000cfdfd       ___strgtold12              100d0dfd f   LIBCMT:strgtold.obj
 0001:000d02ce       __control87                100d12ce f   LIBCMT:ieee87.obj
 0001:000d0303       __controlfp                100d1303 f   LIBCMT:ieee87.obj
 0001:000d0434       __fptostr                  100d1434 f   LIBCMT:_fptostr.obj
 0001:000d04ab       __fltout2                  100d14ab f   LIBCMT:cfout.obj
 0001:000d0507       ___dtold                   100d1507 f   LIBCMT:cfout.obj
 0001:000d05c0       _strcpy                    100d15c0 f   LIBCMT:strcat.obj
 0001:000d05d0       _strcat                    100d15d0 f   LIBCMT:strcat.obj
 0001:000d06b0       _memmove                   100d16b0 f   LIBCMT:memmove.obj
 0001:000d09e5       __fptrap                   100d19e5 f   LIBCMT:crt0fp.obj
 0001:000d09ee       __lseek                    100d19ee f   LIBCMT:lseek.obj
 0001:000d0a53       __lseek_lk                 100d1a53 f   LIBCMT:lseek.obj
 0001:000d0ac6       __getbuf                   100d1ac6 f   LIBCMT:_getbuf.obj
 0001:000d0b0a       __isatty                   100d1b0a f   LIBCMT:isatty.obj
 0001:000d0b33       _wctomb                    100d1b33 f   LIBCMT:wctomb.obj
 0001:000d0b8c       __wctomb_lk                100d1b8c f   LIBCMT:wctomb.obj
 0001:000d0c00       __aulldiv                  100d1c00 f   LIBCMT:ulldiv.obj
 0001:000d0c70       __aullrem                  100d1c70 f   LIBCMT:ullrem.obj
 0001:000d0ce5       __87except                 100d1ce5 f   LIBCMT:87except.obj
 0001:000d0db5       _mbtowc                    100d1db5 f   LIBCMT:mbtowc.obj
 0001:000d0e12       __mbtowc_lk                100d1e12 f   LIBCMT:mbtowc.obj
 0001:000d0ee0       __allshl                   100d1ee0 f   LIBCMT:llshl.obj
 0001:000d0eff       __filbuf                   100d1eff f   LIBCMT:_filbuf.obj
 0001:000d0fdb       __ungetc_lk                100d1fdb f   LIBCMT:ungetc.obj
 0001:000d1049       __set_exp                  100d2049 f   LIBCMT:util.obj
 0001:000d1072       __sptype                   100d2072 f   LIBCMT:util.obj
 0001:000d10cc       __decomp                   100d20cc f   LIBCMT:util.obj
 0001:000d118d       __frnd                     100d218d f   LIBCMT:frnd.obj
 0001:000d119f       __fpclass                  100d219f f   LIBCMT:ieeemisc.obj
 0001:000d1231       _strtol                    100d2231 f   LIBCMT:strtol.obj
 0001:000d144d       __fcloseall                100d244d f   LIBCMT:closeall.obj
 0001:000d14ce       __dosmaperr                100d24ce f   LIBCMT:dosmap.obj
 0001:000d1541       __errno                    100d2541 f   LIBCMT:dosmap.obj
 0001:000d154a       ___doserrno                100d254a f   LIBCMT:dosmap.obj
 0001:000d1553       __alloc_osfhnd             100d2553 f   LIBCMT:osfinfo.obj
 0001:000d1676       __set_osfhnd               100d2676 f   LIBCMT:osfinfo.obj
 0001:000d16f2       __free_osfhnd              100d26f2 f   LIBCMT:osfinfo.obj
 0001:000d1771       __get_osfhandle            100d2771 f   LIBCMT:osfinfo.obj
 0001:000d17b3       __lock_fhandle             100d27b3 f   LIBCMT:osfinfo.obj
 0001:000d1812       __unlock_fhandle           100d2812 f   LIBCMT:osfinfo.obj
 0001:000d1834       __commit                   100d2834 f   LIBCMT:commit.obj
 0001:000d18c7       __sopen                    100d28c7 f   LIBCMT:open.obj
 0001:000d1ba0       _strcmp                    100d2ba0 f   LIBCMT:strcmp.obj
 0001:000d1c30       _strcspn                   100d2c30 f   LIBCMT:strcspn.obj
 0001:000d1c70       _strpbrk                   100d2c70 f   LIBCMT:strpbrk.obj
 0001:000d1caa       __setmbcp                  100d2caa f   LIBCMT:mbctype.obj
 0001:000d2082       ___initmbctable            100d3082 f   LIBCMT:mbctype.obj
 0001:000d209e       ___crtMessageBoxA          100d309e f   LIBCMT:crtmbox.obj
 0001:000d2127       ___addl                    100d3127 f   LIBCMT:mantold.obj
 0001:000d2148       ___add_12                  100d3148 f   LIBCMT:mantold.obj
 0001:000d21a6       ___shl_12                  100d31a6 f   LIBCMT:mantold.obj
 0001:000d21d4       ___shr_12                  100d31d4 f   LIBCMT:mantold.obj
 0001:000d2201       ___mtold12                 100d3201 f   LIBCMT:mantold.obj
 0001:000d22c8       ___ld12mul                 100d32c8 f   LIBCMT:tenpow.obj
 0001:000d24e8       ___multtenpow12            100d34e8 f   LIBCMT:tenpow.obj
 0001:000d2564       _$I10_OUTPUT               100d3564 f   LIBCMT:x10fout.obj
 0001:000d27f7       __raise_exc                100d37f7 f   LIBCMT:fpexcept.obj
 0001:000d2aaa       __handle_exc               100d3aaa f   LIBCMT:fpexcept.obj
 0001:000d2cc1       __set_errno                100d3cc1 f   LIBCMT:fpexcept.obj
 0001:000d2ce9       __matherr                  100d3ce9 f   LIBCMT:matherr.obj
 0001:000d2cec       __statfp                   100d3cec f   LIBCMT:fpctrl.obj
 0001:000d2cfa       __clrfp                    100d3cfa f   LIBCMT:fpctrl.obj
 0001:000d2d09       __ctrlfp                   100d3d09 f   LIBCMT:fpctrl.obj
 0001:000d2d2c       __set_statfp               100d3d2c f   LIBCMT:fpctrl.obj
 0001:000d2d82       __read                     100d3d82 f   LIBCMT:read.obj
 0001:000d2de7       __read_lk                  100d3de7 f   LIBCMT:read.obj
 0001:000d2fc0       __chsize_lk                100d3fc0 f   LIBCMT:chsize.obj
 0001:000d30e5       __itoa                     100d40e5 f   LIBCMT:xtoa.obj
 0001:000d30e5       _itoa                      100d40e5 f   LIBCMT:xtoa.obj
 0001:000d3170       __stricmp                  100d4170 f   LIBCMT:stricmp.obj
 0001:000d3170       __strcmpi                  100d4170 f   LIBCMT:stricmp.obj
 0001:000d3170       _stricmp                   100d4170 f   LIBCMT:stricmp.obj
 0001:000d3240       _strnicmp                  100d4240 f   LIBCMT:strnicmp.obj
 0001:000d3240       __strnicmp                 100d4240 f   LIBCMT:strnicmp.obj
 0001:000d3341       __setmode_lk               100d4341 f   LIBCMT:setmode.obj
 0001:000d33b0       _RtlUnwind@16              100d43b0 f   kernel32:KERNEL32.dll
 0002:00000000       __imp__CreateDirectoryA@8  100d5000     kernel32:KERNEL32.dll
 0002:00000004       __imp__HeapFree@12         100d5004     kernel32:KERNEL32.dll
 0002:00000008       __imp__HeapAlloc@12        100d5008     kernel32:KERNEL32.dll
 0002:0000000c       __imp__InterlockedDecrement@4 100d500c     kernel32:KERNEL32.dll
 0002:00000010       __imp__InterlockedIncrement@4 100d5010     kernel32:KERNEL32.dll
 0002:00000014       __imp__GetCommandLineA@0   100d5014     kernel32:KERNEL32.dll
 0002:00000018       __imp__GetVersion@0        100d5018     kernel32:KERNEL32.dll
 0002:0000001c       __imp__GetProcAddress@8    100d501c     kernel32:KERNEL32.dll
 0002:00000020       __imp__GetModuleHandleA@4  100d5020     kernel32:KERNEL32.dll
 0002:00000024       __imp__GetCurrentThreadId@0 100d5024     kernel32:KERNEL32.dll
 0002:00000028       __imp__TlsSetValue@8       100d5028     kernel32:KERNEL32.dll
 0002:0000002c       __imp__TlsAlloc@0          100d502c     kernel32:KERNEL32.dll
 0002:00000030       __imp__TlsFree@4           100d5030     kernel32:KERNEL32.dll
 0002:00000034       __imp__SetLastError@4      100d5034     kernel32:KERNEL32.dll
 0002:00000038       __imp__TlsGetValue@4       100d5038     kernel32:KERNEL32.dll
 0002:0000003c       __imp__GetLastError@0      100d503c     kernel32:KERNEL32.dll
 0002:00000040       __imp__ExitProcess@4       100d5040     kernel32:KERNEL32.dll
 0002:00000044       __imp__TerminateProcess@8  100d5044     kernel32:KERNEL32.dll
 0002:00000048       __imp__GetCurrentProcess@0 100d5048     kernel32:KERNEL32.dll
 0002:0000004c       __imp__HeapReAlloc@16      100d504c     kernel32:KERNEL32.dll
 0002:00000050       __imp__HeapSize@12         100d5050     kernel32:KERNEL32.dll
 0002:00000054       __imp__GetModuleFileNameA@12 100d5054     kernel32:KERNEL32.dll
 0002:00000058       __imp__GetEnvironmentVariableA@12 100d5058     kernel32:KERNEL32.dll
 0002:0000005c       __imp__GetVersionExA@4     100d505c     kernel32:KERNEL32.dll
 0002:00000060       __imp__HeapDestroy@4       100d5060     kernel32:KERNEL32.dll
 0002:00000064       __imp__HeapCreate@12       100d5064     kernel32:KERNEL32.dll
 0002:00000068       __imp__VirtualFree@12      100d5068     kernel32:KERNEL32.dll
 0002:0000006c       __imp__VirtualAlloc@16     100d506c     kernel32:KERNEL32.dll
 0002:00000070       __imp__InitializeCriticalSection@4 100d5070     kernel32:KERNEL32.dll
 0002:00000074       __imp__DeleteCriticalSection@4 100d5074     kernel32:KERNEL32.dll
 0002:00000078       __imp__EnterCriticalSection@4 100d5078     kernel32:KERNEL32.dll
 0002:0000007c       __imp__LeaveCriticalSection@4 100d507c     kernel32:KERNEL32.dll
 0002:00000080       __imp__RtlUnwind@16        100d5080     kernel32:KERNEL32.dll
 0002:00000084       __imp__CloseHandle@4       100d5084     kernel32:KERNEL32.dll
 0002:00000088       __imp__WriteFile@20        100d5088     kernel32:KERNEL32.dll
 0002:0000008c       __imp__WideCharToMultiByte@32 100d508c     kernel32:KERNEL32.dll
 0002:00000090       __imp__MultiByteToWideChar@24 100d5090     kernel32:KERNEL32.dll
 0002:00000094       __imp__LCMapStringA@24     100d5094     kernel32:KERNEL32.dll
 0002:00000098       __imp__LCMapStringW@24     100d5098     kernel32:KERNEL32.dll
 0002:0000009c       __imp__GetStringTypeA@20   100d509c     kernel32:KERNEL32.dll
 0002:000000a0       __imp__GetStringTypeW@16   100d50a0     kernel32:KERNEL32.dll
 0002:000000a4       __imp__SetHandleCount@4    100d50a4     kernel32:KERNEL32.dll
 0002:000000a8       __imp__GetStdHandle@4      100d50a8     kernel32:KERNEL32.dll
 0002:000000ac       __imp__GetFileType@4       100d50ac     kernel32:KERNEL32.dll
 0002:000000b0       __imp__GetStartupInfoA@4   100d50b0     kernel32:KERNEL32.dll
 0002:000000b4       __imp__FreeEnvironmentStringsA@4 100d50b4     kernel32:KERNEL32.dll
 0002:000000b8       __imp__FreeEnvironmentStringsW@4 100d50b8     kernel32:KERNEL32.dll
 0002:000000bc       __imp__GetEnvironmentStrings@0 100d50bc     kernel32:KERNEL32.dll
 0002:000000c0       __imp__GetEnvironmentStringsW@0 100d50c0     kernel32:KERNEL32.dll
 0002:000000c4       __imp__SetFilePointer@16   100d50c4     kernel32:KERNEL32.dll
 0002:000000c8       __imp__SetStdHandle@8      100d50c8     kernel32:KERNEL32.dll
 0002:000000cc       __imp__FlushFileBuffers@4  100d50cc     kernel32:KERNEL32.dll
 0002:000000d0       __imp__CreateFileA@28      100d50d0     kernel32:KERNEL32.dll
 0002:000000d4       __imp__GetCPInfo@8         100d50d4     kernel32:KERNEL32.dll
 0002:000000d8       __imp__GetACP@0            100d50d8     kernel32:KERNEL32.dll
 0002:000000dc       __imp__GetOEMCP@0          100d50dc     kernel32:KERNEL32.dll
 0002:000000e0       __imp__LoadLibraryA@4      100d50e0     kernel32:KERNEL32.dll
 0002:000000e4       __imp__RaiseException@16   100d50e4     kernel32:KERNEL32.dll
 0002:000000e8       __imp__ReadFile@20         100d50e8     kernel32:KERNEL32.dll
 0002:000000ec       __imp__SetEndOfFile@4      100d50ec     kernel32:KERNEL32.dll
 0002:000000f0       \177KERNEL32_NULL_THUNK_DATA 100d50f0     kernel32:KERNEL32.dll
 0002:00000100       ??_7CFlockingFlyer@@6B@    100d5100     aflock.obj
 0002:00000340       ??_7CFlockingFlyerFlock@@6B@ 100d5340     aflock.obj
 0002:00000580       __real@4@4002f000000000000000 100d5580     aflock.obj
 0002:00000584       __real@4@4001a000000000000000 100d5584     aflock.obj
 0002:00000588       __real@4@3ffff333330000000000 100d5588     aflock.obj
 0002:00000590       __real@8@3ffff333333333333000 100d5590     aflock.obj
 0002:00000598       __real@4@3ffd8000000000000000 100d5598     aflock.obj
 0002:000005a0       __real@8@3ffd8000000000000000 100d55a0     aflock.obj
 0002:000005a8       __real@4@00000000000000000000 100d55a8     aflock.obj
 0002:000005b0       __real@8@3ffeccccccccccccd000 100d55b0     aflock.obj
 0002:000005b8       __real@8@3ffcccccccccccccd000 100d55b8     aflock.obj
 0002:000005c0       __real@4@3ffbccccccccccccd000 100d55c0     aflock.obj
 0002:000005c4       __real@4@3ffe8000000000000000 100d55c4     aflock.obj
 0002:000005c8       __real@4@3fff8000000000000000 100d55c8     aflock.obj
 0002:000005cc       __real@4@4005c800000000000000 100d55cc     aflock.obj
 0002:000005d0       __real@4@4001c000000000000000 100d55d0     aflock.obj
 0002:000005d4       __real@4@4002c000000000000000 100d55d4     aflock.obj
 0002:000005d8       __real@8@3fff8000000000000000 100d55d8     aflock.obj
 0002:000005e0       __real@4@4006c000000000000000 100d55e0     aflock.obj
 0002:000005e4       __real@4@40038000000000000000 100d55e4     aflock.obj
 0002:000005e8       __real@4@4005fa00000000000000 100d55e8     aflock.obj
 0002:000005ec       __real@4@4002a000000000000000 100d55ec     aflock.obj
 0002:000005f0       __real@4@4006fa00000000000000 100d55f0     aflock.obj
 0002:000005f8       __real@8@3ffe8000000000000000 100d55f8     aflock.obj
 0002:00000600       __real@8@3fffc000000000000000 100d5600     aflock.obj
 0002:00000608       __real@4@40078000000000000000 100d5608     aflock.obj
 0002:0000060c       ??_7CBaseToggle@@6B@       100d560c     aflock.obj
 0002:0000072c       ??_7CBaseEntity@@6B@       100d572c     aflock.obj
 0002:00000848       __real@4@4008c400000000000000 100d5848     aflock.obj
 0002:0000084c       ??_7CAGrunt@@6B@           100d584c     agrunt.obj
 0002:00000a8c       __real@4@4005aa00000000000000 100d5a8c     agrunt.obj
 0002:00000a90       __real@4@40048000000000000000 100d5a90     agrunt.obj
 0002:00000a94       __real@4@4003a000000000000000 100d5a94     agrunt.obj
 0002:00000a98       __real@4@c0088000000000000000 100d5a98     agrunt.obj
 0002:00000a9c       __real@4@4000c000000000000000 100d5a9c     agrunt.obj
 0002:00000aa0       __real@8@3ffe9999999999999800 100d5aa0     agrunt.obj
 0002:00000aa8       __real@4@c006fa00000000000000 100d5aa8     agrunt.obj
 0002:00000aac       __real@4@40079600000000000000 100d5aac     agrunt.obj
 0002:00000ab0       __real@4@4007b400000000000000 100d5ab0     agrunt.obj
 0002:00000ab4       __real@4@4006b400000000000000 100d5ab4     agrunt.obj
 0002:00000ab8       __real@4@40098000000000000000 100d5ab8     agrunt.obj
 0002:00000abc       __real@4@40068000000000000000 100d5abc     agrunt.obj
 0002:00000ac0       __real@4@4004c800000000000000 100d5ac0     agrunt.obj
 0002:00000ac4       __real@4@4006ff00000000000000 100d5ac4     AI_BaseNPC_Schedule.obj
 0002:00000ac8       __real@4@40078700000000000000 100d5ac8     AI_BaseNPC_Schedule.obj
 0002:00000acc       __real@4@4006be00000000000000 100d5acc     AI_BaseNPC_Schedule.obj
 0002:00000ad0       __real@4@4004b400000000000000 100d5ad0     AI_BaseNPC_Schedule.obj
 0002:00000ad4       __real@4@c004b400000000000000 100d5ad4     AI_BaseNPC_Schedule.obj
 0002:00000ad8       __real@4@40058000000000000000 100d5ad8     AI_BaseNPC_Schedule.obj
 0002:00000ae0       __real@8@4004f000000000000000 100d5ae0     AI_BaseNPC_Schedule.obj
 0002:00000ae8       ??_7CAirtank@@6B@          100d5ae8     airtank.obj
 0002:00000d2c       ??_7CInfoAlias@@6B@        100d5d2c     alias.obj
 0002:00000e58       ??_7CInfoGroup@@6B@        100d5e58     alias.obj
 0002:00000f74       ??_7CMultiAlias@@6B@       100d5f74     alias.obj
 0002:000010a0       ??_7CTriggerChangeAlias@@6B@ 100d60a0     alias.obj
 0002:000011c0       __real@8@3ff78000000000000000 100d61c0     animating.obj
 0002:000011c8       __real@8@40078000000000000000 100d61c8     animating.obj
 0002:000011d0       __real@8@3ff583126e978d4fe000 100d61d0     animating.obj
 0002:000011d8       __real@8@00000000000000000000 100d61d8     animating.obj
 0002:000011e0       __real@4@3ffbcccccd0000000000 100d61e0     animating.obj
 0002:000011e8       __real@8@3ff98efa351294e9c800 100d61e8     animating.obj
 0002:000011f0       __real@8@3ff78080808080808000 100d61f0     animation.obj
 0002:000011f8       __real@8@bff6b60b60b60b60b800 100d61f8     animation.obj
 0002:00001200       __real@8@4007b400000000000000 100d6200     animation.obj
 0002:00001208       __real@8@3ff6b60b60b60b60b800 100d6208     animation.obj
 0002:00001210       __real@8@4006b400000000000000 100d6210     animation.obj
 0002:00001218       __real@8@4007b380000000000000 100d6218     animation.obj
 0002:00001220       __real@4@bfff8000000000000000 100d6220     animation.obj
 0002:00001224       ??_7CApache@@6B@           100d6224     apache.obj
 0002:00001464       __real@4@40028000000000000000 100d6464     apache.obj
 0002:00001468       __real@4@4006ac00000000000000 100d6468     apache.obj
 0002:00001470       __real@8@4002f000000000000000 100d6470     apache.obj
 0002:00001478       __real@8@40018000000000000000 100d6478     apache.obj
 0002:00001480       __real@4@4009fa00000000000000 100d6480     apache.obj
 0002:00001484       __real@4@40088000000000000000 100d6484     apache.obj
 0002:00001488       __real@4@3fff828f5c0000000000 100d6488     apache.obj
 0002:0000148c       __real@4@4006c800000000000000 100d648c     apache.obj
 0002:00001490       __real@4@400b8000000000000000 100d6490     apache.obj
 0002:00001498       __real@8@3ffef70a3d70a3d70800 100d6498     apache.obj
 0002:000014a0       __real@4@4004f000000000000000 100d64a0     apache.obj
 0002:000014a4       __real@4@c005c800000000000000 100d64a4     apache.obj
 0002:000014a8       __real@8@4002a000000000000000 100d64a8     apache.obj
 0002:000014b0       __real@4@4007c800000000000000 100d64b0     apache.obj
 0002:000014b4       __real@4@40008000000000000000 100d64b4     apache.obj
 0002:000014b8       __real@4@4005b400000000000000 100d64b8     apache.obj
 0002:000014bc       __real@4@4008c800000000000000 100d64bc     apache.obj
 0002:000014c0       __real@4@4005ca00000000000000 100d64c0     apache.obj
 0002:000014c8       __real@8@4005c800000000000000 100d64c8     apache.obj
 0002:000014d0       __real@8@3ff9a3d70a3d70a3d800 100d64d0     apache.obj
 0002:000014d8       __real@4@c004c800000000000000 100d64d8     apache.obj
 0002:000014e0       __real@8@4002c000000000000000 100d64e0     apache.obj
 0002:000014e8       __real@4@c004a000000000000000 100d64e8     apache.obj
 0002:000014ec       __real@4@4005a000000000000000 100d64ec     apache.obj
 0002:000014f0       __real@4@3ffefeb8520000000000 100d64f0     apache.obj
 0002:000014f8       __real@8@3ffaccccccccccccd000 100d64f8     apache.obj
 0002:00001500       __real@4@4003f000000000000000 100d6500     apache.obj
 0002:00001504       __real@4@40018000000000000000 100d6504     apache.obj
 0002:00001508       __real@4@c002f000000000000000 100d6508     apache.obj
 0002:0000150c       __real@4@c003f000000000000000 100d650c     apache.obj
 0002:00001510       __real@8@40049999999999999800 100d6510     apache.obj
 0002:00001518       __real@4@4008c000000000000000 100d6518     apache.obj
 0002:00001520       __real@8@3ffefae147ae147ae000 100d6520     apache.obj
 0002:00001528       __real@4@c004f000000000000000 100d6528     apache.obj
 0002:0000152c       __real@4@4003a800000000000000 100d652c     apache.obj
 0002:00001530       __real@4@40058c00000000000000 100d6530     apache.obj
 0002:00001534       __real@4@c0059e00000000000000 100d6534     apache.obj
 0002:00001538       __real@4@c006b400000000000000 100d6538     apache.obj
 0002:00001540       __real@8@4000c000000000000000 100d6540     apache.obj
 0002:00001548       ??_7CApacheHVR@@6B@        100d6548     apache.obj
 0002:0000178c       __real@4@4009e100000000000000 100d678c     apache.obj
 0002:00001790       __real@4@c00b8000000000000000 100d6790     apache.obj
 0002:00001794       ??_7CBarnacle@@6B@         100d6794     barnacle.obj
 0002:000019d8       __real@8@4004b000000000000000 100d69d8     barnacle.obj
 0002:000019e0       __real@8@4001c000000000000000 100d69e0     barnacle.obj
 0002:000019e8       __real@4@400a8000000000000000 100d69e8     barnacle.obj
 0002:000019ec       ??_7CBarney@@6B@           100d69ec     barney.obj
 0002:00001c40       __real@4@4004dc00000000000000 100d6c40     barney.obj
 0002:00001c48       __real@8@3ffef5c28f5c28f5c000 100d6c48     barney.obj
 0002:00001c50       ??_7CDeadBarney@@6B@       100d6c50     barney.obj
 0002:00001e90       ??_7CInfoBM@@6B@           100d6e90     bigmomma.obj
 0002:00001fac       ??_7CBMortar@@6B@          100d6fac     bigmomma.obj
 0002:000020c8       ??_7CBigMomma@@6B@         100d70c8     bigmomma.obj
 0002:00002308       __real@4@4005be00000000000000 100d7308     bigmomma.obj
 0002:0000230c       __real@4@4007fa00000000000000 100d730c     bigmomma.obj
 0002:00002310       __real@4@40069600000000000000 100d7310     bigmomma.obj
 0002:00002314       __real@4@4006dc00000000000000 100d7314     bigmomma.obj
 0002:00002318       __real@4@4006aa00000000000000 100d7318     bigmomma.obj
 0002:00002320       __real@8@3ffeb333333333333000 100d7320     bigmomma.obj
 0002:00002328       __real@4@4012f424000000000000 100d7328     bigmomma.obj
 0002:00002330       __real@8@3ffdccccccccccccd000 100d7330     bigmomma.obj
 0002:00002338       ??_7CBloater@@6B@          100d7338     bloater.obj
 0002:00002578       ??_7CFuncWall@@6B@         100d7578     bmodels.obj
 0002:00002694       ??_7CFuncWallToggle@@6B@   100d7694     bmodels.obj
 0002:000027b0       ??_7CFuncConveyor@@6B@     100d77b0     bmodels.obj
 0002:000028d0       __real@8@40038000000000000000 100d78d0     bmodels.obj
 0002:000028d8       ??_7CFuncIllusionary@@6B@  100d78d8     bmodels.obj
 0002:000029f8       ??_7CFuncShine@@6B@        100d79f8     bmodels.obj
 0002:00002b14       ??_7CFuncMonsterClip@@6B@  100d7b14     bmodels.obj
 0002:00002c30       ??_7CFuncRotating@@6B@     100d7c30     bmodels.obj
 0002:00002d50       __real@8@3ffbccccccccccccd000 100d7d50     bmodels.obj
 0002:00002d58       __real@8@3ff8a3d70a3d70a3d800 100d7d58     bmodels.obj
 0002:00002d60       ??_7CPendulum@@6B@         100d7d60     bmodels.obj
 0002:00002e80       __real@8@4003f000000000000000 100d7e80     bmodels.obj
 0002:00002e88       ??_7CSquidSpit@@6B@        100d7e88     bullsquid.obj
 0002:00002fa4       ??_7CBullsquid@@6B@        100d7fa4     bullsquid.obj
 0002:000031e8       __real@8@3ffea000000000000000 100d81e8     bullsquid.obj
 0002:000031f0       __real@4@4008e100000000000000 100d81f0     bullsquid.obj
 0002:000031f4       __real@4@40049400000000000000 100d81f4     bullsquid.obj
 0002:000031f8       __real@4@4003b800000000000000 100d81f8     bullsquid.obj
 0002:000031fc       ??_7CEnvGlobal@@6B@        100d81fc     buttons.obj
 0002:00003318       ??_7CEnvState@@6B@         100d8318     buttons.obj
 0002:00003434       ??_7CMultiSource@@6B@      100d8434     buttons.obj
 0002:00003550       ??_7CBaseButton@@6B@       100d8550     buttons.obj
 0002:00003670       ??_7CRotButton@@6B@        100d8670     buttons.obj
 0002:00003790       ??_7CMomentaryRotButton@@6B@ 100d8790     buttons.obj
 0002:000038b0       ??_7CEnvSpark@@6B@         100d88b0     buttons.obj
 0002:000039cc       ??_7CButtonTarget@@6B@     100d89cc     buttons.obj
 0002:00003ae8       __real@8@4012f424000000000000 100d8ae8     cbase.obj
 0002:00003af0       __real@4@4008fa00000000000000 100d8af0     cbase.obj
 0002:00003af8       __real@8@4008fa00000000000000 100d8af8     cbase.obj
 0002:00003b00       __real@8@4001a000000000000000 100d8b00     cbase.obj
 0002:00003b08       __real@8@400f9000000000000000 100d8b08     cbase.obj
 0002:00003b10       __real@4@c009fa00000000000000 100d8b10     cbase.obj
 0002:00003b14       ??_7CBasePlayer@@6B@       100d8b14     client.obj
 0002:00003d6c       __real@4@40039000000000000000 100d8d6c     client.obj
 0002:00003d70       ??_7CBaseMonster@@6B@      100d8d70     client.obj
 0002:00003fb0       __real@4@4009bb80000000000000 100d8fb0     combat.obj
 0002:00003fb8       __real@8@4009bb80000000000000 100d8fb8     combat.obj
 0002:00003fc0       __real@4@c006c800000000000000 100d8fc0     combat.obj
 0002:00003fc4       __real@4@3ffeb333330000000000 100d8fc4     combat.obj
 0002:00003fc8       ??_7CGib@@6B@              100d8fc8     combat.obj
 0002:000040e8       __real@8@bffd9999999999999800 100d90e8     combat.obj
 0002:000040f0       __real@8@3ffd9999999999999800 100d90f0     combat.obj
 0002:000040f8       __real@4@c005c600000000000000 100d90f8     combat.obj
 0002:000040fc       __real@4@4001e000000000000000 100d90fc     combat.obj
 0002:00004100       __real@8@3ff691a2b3c4d5e6f800 100d9100     combat.obj
 0002:00004108       __real@4@4003c000000000000000 100d9108     combat.obj
 0002:0000410c       __real@4@3ffee666660000000000 100d910c     combat.obj
 0002:00004110       __real@8@4000a000000000000000 100d9110     combat.obj
 0002:00004118       __real@8@3ff98000000000000000 100d9118     combat.obj
 0002:00004120       __real@4@c006ac00000000000000 100d9120     combat.obj
 0002:00004124       __real@4@4003c800000000000000 100d9124     combat.obj
 0002:00004128       ??_7CController@@6B@       100d9128     controller.obj
 0002:00004368       __real@8@3ffb8888888888888800 100d9368     controller.obj
 0002:00004370       __real@4@c0018000000000000000 100d9370     controller.obj
 0002:00004378       __real@8@40048000000000000000 100d9378     controller.obj
 0002:00004380       __real@4@3ffecccccd0000000000 100d9380     controller.obj
 0002:00004384       __real@4@4004a000000000000000 100d9384     controller.obj
 0002:00004388       __real@4@3ffccccccd0000000000 100d9388     controller.obj
 0002:0000438c       ??_7CControllerHeadBall@@6B@ 100d938c     controller.obj
 0002:000045cc       __real@4@3ffb8000000000000000 100d95cc     controller.obj
 0002:000045d0       __real@4@3ffd99999a0000000000 100d95d0     controller.obj
 0002:000045d4       ??_7CControllerZapBall@@6B@ 100d95d4     controller.obj
 0002:00004814       ??_7CCrossbowBolt@@6B@     100d9814     crossbow.obj
 0002:00004930       ??_7CCrossbow@@6B@         100d9930     crossbow.obj
 0002:00004adc       __real@4@400c8000000000000000 100d9adc     crossbow.obj
 0002:00004ae0       __real@8@3ffec000000000000000 100d9ae0     crossbow.obj
 0002:00004ae8       __real@8@4000aaaaaaaaaaaaa800 100d9ae8     crossbow.obj
 0002:00004af0       ??_7CCrossbowAmmo@@6B@     100d9af0     crossbow.obj
 0002:00004c10       ??_7CCrowbar@@6B@          100d9c10     crowbar.obj
 0002:00004dc0       __real@8@3ffea666666666666800 100d9dc0     crowbar.obj
 0002:00004dc8       __real@8@3ffdbd70a3d70a3d7000 100d9dc8     crowbar.obj
 0002:00004dd0       __real@8@3ffc8000000000000000 100d9dd0     doors.obj
 0002:00004dd8       ??_7CBaseDoor@@6B@         100d9dd8     doors.obj
 0002:00004ef8       ??_7CRotDoor@@6B@          100d9ef8     doors.obj
 0002:00005018       ??_7CMomentaryDoor@@6B@    100da018     doors.obj
 0002:00005138       ??_7CInfoTarget@@6B@       100da138     effects.obj
 0002:00005254       ??_7CBubbling@@6B@         100da254     effects.obj
 0002:00005370       ??_7CBeam@@6B@             100da370     effects.obj
 0002:0000548c       ??_7CLightning@@6B@        100da48c     effects.obj
 0002:000055a8       ??_7CLaser@@6B@            100da5a8     effects.obj
 0002:000056c4       ??_7CGlow@@6B@             100da6c4     effects.obj
 0002:000057e0       ??_7CSprite@@6B@           100da7e0     effects.obj
 0002:000058fc       ??_7CEnvModel@@6B@         100da8fc     effects.obj
 0002:00005a1c       ??_7CGibShooter@@6B@       100daa1c     effects.obj
 0002:00005b3c       ??_7CEnvShooter@@6B@       100dab3c     effects.obj
 0002:00005c5c       ??_7CShot@@6B@             100dac5c     effects.obj
 0002:00005d78       ??_7CTestEffect@@6B@       100dad78     effects.obj
 0002:00005e94       ??_7CBlood@@6B@            100dae94     effects.obj
 0002:00005fb0       ??_7CShake@@6B@            100dafb0     effects.obj
 0002:000060cc       ??_7CFade@@6B@             100db0cc     effects.obj
 0002:000061e8       ??_7CMessage@@6B@          100db1e8     effects.obj
 0002:00006304       ??_7CEnvFunnel@@6B@        100db304     effects.obj
 0002:00006420       ??_7CEnvQuakeFx@@6B@       100db420     effects.obj
 0002:0000653c       ??_7CEnvBeamTrail@@6B@     100db53c     effects.obj
 0002:00006658       ??_7CEnvFootsteps@@6B@     100db658     effects.obj
 0002:00006774       ??_7CEnvRain@@6B@          100db774     effects.obj
 0002:00006890       ??_7CEnvWarpBall@@6B@      100db890     effects.obj
 0002:000069ac       ??_7CEnvShockwave@@6B@     100db9ac     effects.obj
 0002:00006ac8       ??_7CEnvDLight@@6B@        100dbac8     effects.obj
 0002:00006be8       ??_7CEnvELight@@6B@        100dbbe8     effects.obj
 0002:00006d08       ??_7CEnvDecal@@6B@         100dbd08     effects.obj
 0002:00006e24       __real@4@400afa00000000000000 100dbe24     effects.obj
 0002:00006e28       ??_7CEnvBeverage@@6B@      100dbe28     effects.obj
 0002:00006f44       ??_7CItemSoda@@6B@         100dbf44     effects.obj
 0002:00007060       ??_7CEnvFog@@6B@           100dc060     effects.obj
 0002:0000717c       ??_7CEnvSky@@6B@           100dc17c     effects.obj
 0002:00007298       ??_7CParticle@@6B@         100dc298     effects.obj
 0002:000073b4       ??_7CRainSettings@@6B@     100dc3b4     effects.obj
 0002:000074d0       ??_7CRainModify@@6B@       100dc4d0     effects.obj
 0002:000075ec       ??_7CGrassSprite@@6B@      100dc5ec     effects.obj
 0002:00007708       ??_7CStaticDecal@@6B@      100dc708     effects.obj
 0002:00007824       ??_7CEnvPos_Sky@@6B@       100dc824     effects.obj
 0002:00007940       ??_7CEnvPos_World@@6B@     100dc940     effects.obj
 0002:00007a5c       ??_7CTriggerFollow@@6B@    100dca5c     effects.obj
 0002:00007b78       ??_7CDynamicLight@@6B@     100dcb78     effects.obj
 0002:00007c94       __real@4@3ffc8000000000000000 100dcc94     effects.obj
 0002:00007c98       ??_7CEgon@@6B@             100dcc98     egon.obj
 0002:00007e48       __real@8@3ffca9fbe76c8b439800 100dce48     egon.obj
 0002:00007e50       __real@4@c0028000000000000000 100dce50     egon.obj
 0002:00007e54       __real@4@4005f000000000000000 100dce54     egon.obj
 0002:00007e58       __real@8@40058000000000000000 100dce58     egon.obj
 0002:00007e60       __real@8@4005a000000000000000 100dce60     egon.obj
 0002:00007e68       __real@8@40008000000000000000 100dce68     egon.obj
 0002:00007e70       ??_7CEgonAmmo@@6B@         100dce70     egon.obj
 0002:00007f90       ??_7CShower@@6B@           100dcf90     explode.obj
 0002:000080ac       __real@4@3ffe99999a0000000000 100dd0ac     explode.obj
 0002:000080b0       ??_7CEnvExplosion@@6B@     100dd0b0     explode.obj
 0002:000082f0       __real@8@4006dc00000000000000 100dd2f0     flyingmonster.obj
 0002:000082f8       __real@4@c003a000000000000000 100dd2f8     flyingmonster.obj
 0002:00008300       __real@8@400b8000000000000000 100dd300     flyingmonster.obj
 0002:00008308       ??_7CBreakable@@6B@        100dd308     func_break.obj
 0002:00008424       ??_7CPushable@@6B@         100dd424     func_break.obj
 0002:00008540       __real@8@3ff483126e978d4fe000 100dd540     func_break.obj
 0002:00008548       __real@4@4007c780000000000000 100dd548     func_break.obj
 0002:0000854c       ??_7CPointEntity@@6B@      100dd54c     func_tank.obj
 0002:00008668       __real@8@4004e52ee0d31e0fc000 100dd668     func_tank.obj
 0002:00008670       __real@4@3ff98888888888888800 100dd670     func_tank.obj
 0002:00008674       ??_7CFuncTankGun@@6B@      100dd674     func_tank.obj
 0002:00008798       ??_7CFuncTankLaser@@6B@    100dd798     func_tank.obj
 0002:000088bc       ??_7CFuncTankRocket@@6B@   100dd8bc     func_tank.obj
 0002:000089e0       ??_7CFuncTankMortar@@6B@   100dd9e0     func_tank.obj
 0002:00008b04       ??_7CFuncTankControls@@6B@ 100ddb04     func_tank.obj
 0002:00008c20       ??_7CTankSequence@@6B@     100ddc20     func_tank.obj
 0002:00008d40       ??_7CSpiral@@6B@           100ddd40     gargantua.obj
 0002:00008e5c       ??_7CStomp@@6B@            100dde5c     gargantua.obj
 0002:00008f78       __real@4@3ff9cccccd0000000000 100ddf78     gargantua.obj
 0002:00008f80       __real@8@3ff9ccccccccccccd000 100ddf80     gargantua.obj
 0002:00008f88       ??_7CGargantua@@6B@        100ddf88     gargantua.obj
 0002:000091c8       __real@4@4006d600000000000000 100de1c8     gargantua.obj
 0002:000091cc       __real@4@40048c00000000000000 100de1cc     gargantua.obj
 0002:000091d0       __real@4@4007a500000000000000 100de1d0     gargantua.obj
 0002:000091d4       __real@4@3ffdcccccd0000000000 100de1d4     gargantua.obj
 0002:000091d8       __real@8@3fffccccccccccccd000 100de1d8     gargantua.obj
 0002:000091e0       __real@8@40019000000000000000 100de1e0     gargantua.obj
 0002:000091e8       ??_7CSmoker@@6B@           100de1e8     gargantua.obj
 0002:00009308       __real@8@3fff8cccccccccccd000 100de308     gargantua.obj
 0002:00009310       __real@4@400ab400000000000000 100de310     gargantua.obj
 0002:00009314       ??_7CGauss@@6B@            100de314     gauss.obj
 0002:000094c0       __real@4@3fffc000000000000000 100de4c0     gauss.obj
 0002:000094c8       __real@8@3ffc9999999999999800 100de4c8     gauss.obj
 0002:000094d0       __real@8@3fffe000000000000000 100de4d0     gauss.obj
 0002:000094d8       ??_7CGaussAmmo@@6B@        100de4d8     gauss.obj
 0002:000095f8       ??_7CGenericMonster@@6B@   100de5f8     genericmonster.obj
 0002:00009838       ??_7CDeadGenericMonster@@6B@ 100de838     genericmonster.obj
 0002:00009a78       ??_7CGrenade@@6B@          100dea78     ggrenade.obj
 0002:00009cc0       __real@8@3ff7a3d70a3d70a3d800 100decc0     ggrenade.obj
 0002:00009cc8       __real@8@3ffde666666666666800 100decc8     ggrenade.obj
 0002:00009cd0       __real@4@3ffef333330000000000 100decd0     ggrenade.obj
 0002:00009cd4       ??_7CGMan@@6B@             100decd4     gman.obj
 0002:00009f14       ??_7CRecharge@@6B@         100def14     h_battery.obj
 0002:0000a038       __real@8@3ffe9eb851eb851eb800 100df038     h_battery.obj
 0002:0000a040       __real@8@3ffe8f5c28f5c28f6000 100df040     h_battery.obj
 0002:0000a048       ??_7CCineScientist@@6B@    100df048     h_cine.obj
 0002:0000a288       ??_7CCinePanther@@6B@      100df288     h_cine.obj
 0002:0000a4c8       ??_7CCineBarney@@6B@       100df4c8     h_cine.obj
 0002:0000a708       ??_7CCine2Scientist@@6B@   100df708     h_cine.obj
 0002:0000a948       ??_7CCine2HeavyWeapons@@6B@ 100df948     h_cine.obj
 0002:0000ab88       ??_7CCine2Slave@@6B@       100dfb88     h_cine.obj
 0002:0000adc8       ??_7CCine3Scientist@@6B@   100dfdc8     h_cine.obj
 0002:0000b008       ??_7CCine3Barney@@6B@      100e0008     h_cine.obj
 0002:0000b248       ??_7CCineBlood@@6B@        100e0248     h_cine.obj
 0002:0000b364       ??_7CGenericCycler@@6B@    100e0364     h_cycler.obj
 0002:0000b5a4       ??_7CCyclerProbe@@6B@      100e05a4     h_cycler.obj
 0002:0000b7e4       ??_7CCyclerSprite@@6B@     100e07e4     h_cycler.obj
 0002:0000b900       ??_7CWeaponCycler@@6B@     100e0900     h_cycler.obj
 0002:0000baac       ??_7CWreckage@@6B@         100e0aac     h_cycler.obj
 0002:0000bcec       ??_7CHandGrenade@@6B@      100e0cec     handgrenade.obj
 0002:0000be98       __real@8@3fff8e38e38e38e39000 100e0e98     handgrenade.obj
 0002:0000bea0       __real@8@3ffee38e38e38e38e000 100e0ea0     handgrenade.obj
 0002:0000bea8       ??_7CHAssassin@@6B@        100e0ea8     hassassin.obj
 0002:0000c0e8       __real@4@40048800000000000000 100e10e8     hassassin.obj
 0002:0000c0ec       __real@4@4006a000000000000000 100e10ec     hassassin.obj
 0002:0000c0f0       __real@4@3ff7ccccccccccccd000 100e10f0     hassassin.obj
 0002:0000c0f8       __real@8@4006a000000000000000 100e10f8     hassassin.obj
 0002:0000c100       __real@4@40049000000000000000 100e1100     hassassin.obj
 0002:0000c104       ??_7CHeadCrab@@6B@         100e1104     headcrab.obj
 0002:0000c350       __real@4@4007af00000000000000 100e1350     headcrab.obj
 0002:0000c358       __real@8@4008a280000000000000 100e1358     headcrab.obj
 0002:0000c360       __real@4@4008a280000000000000 100e1360     headcrab.obj
 0002:0000c364       ??_7CBabyCrab@@6B@         100e1364     headcrab.obj
 0002:0000c5b0       __real@8@3ffe8cccccccccccd000 100e15b0     headcrab.obj
 0002:0000c5b8       ??_7CHealthKit@@6B@        100e15b8     healthkit.obj
 0002:0000c6d8       ??_7CBigHealthKit@@6B@     100e16d8     healthkit.obj
 0002:0000c7f8       ??_7CWallHealth@@6B@       100e17f8     healthkit.obj
 0002:0000c918       ??_7CHGrunt@@6B@           100e1918     hgrunt.obj
 0002:0000cb60       __real@4@c0068000000000000000 100e1b60     hgrunt.obj
 0002:0000cb64       ??_7CHGruntRepel@@6B@      100e1b64     hgrunt.obj
 0002:0000cda4       __real@4@4005e000000000000000 100e1da4     hgrunt.obj
 0002:0000cda8       ??_7CDeadHGrunt@@6B@       100e1da8     hgrunt.obj
 0002:0000cfe8       ??_7CHGruntGlock@@6B@      100e1fe8     hgrunt.obj
 0002:0000d230       ??_7CTerror@@6B@           100e2230     hgrunt.obj
 0002:0000d478       ??_7CClone@@6B@            100e2478     hgrunt.obj
 0002:0000d6c0       ??_7CCloneHeavy@@6B@       100e26c0     hgrunt.obj
 0002:0000d908       ??_7CBaseAnimating@@6B@    100e2908     hgrunt.obj
 0002:0000da28       ??_7CBaseDelay@@6B@        100e2a28     hgrunt.obj
 0002:0000db44       ??_7CHornet@@6B@           100e2b44     hornet.obj
 0002:0000dd88       __real@8@4000e000000000000000 100e2d88     hornet.obj
 0002:0000dd90       ??_7CHgun@@6B@             100e2d90     hornetgun.obj
 0002:0000df3c       __real@4@c002c000000000000000 100e2f3c     hornetgun.obj
 0002:0000df40       __real@8@40008c00000000000000 100e2f40     hornetgun.obj
 0002:0000df48       __real@8@3ffee000000000000000 100e2f48     hornetgun.obj
 0002:0000df50       __real@8@4000f000000000000000 100e2f50     hornetgun.obj
 0002:0000df58       ??_7CHoundeye@@6B@         100e2f58     houndeye.obj
 0002:0000e198       __real@8@4006c000000000000000 100e3198     houndeye.obj
 0002:0000e1a0       __real@4@3ff6aaaaaaaaaaaaa800 100e31a0     houndeye.obj
 0002:0000e1a4       __real@4@3fff8ccccd0000000000 100e31a4     houndeye.obj
 0002:0000e1a8       __real@8@4008f000000000000000 100e31a8     houndeye.obj
 0002:0000e1b0       __real@8@4009f000000000000000 100e31b0     houndeye.obj
 0002:0000e1b8       __real@8@3ffaa3d70a3d70a3d800 100e31b8     houndeye.obj
 0002:0000e1c0       ??_7CIchthyosaur@@6B@      100e31c0     ichthyosaur.obj
 0002:0000e400       __real@8@bffeb333333333333000 100e3400     ichthyosaur.obj
 0002:0000e408       __real@8@3ffeb4fdf3b645a1c800 100e3408     ichthyosaur.obj
 0002:0000e410       __real@4@c005a000000000000000 100e3410     ichthyosaur.obj
 0002:0000e418       __real@8@3ff7da740da740da7800 100e3418     ichthyosaur.obj
 0002:0000e420       __real@8@3ffefd70a3d70a3d7000 100e3420     ichthyosaur.obj
 0002:0000e428       ??_7CISlave@@6B@           100e3428     islave.obj
 0002:0000e668       __real@4@40049800000000000000 100e3668     islave.obj
 0002:0000e66c       ??_7CWorldItem@@6B@        100e366c     items.obj
 0002:0000e788       ??_7CItemSuit@@6B@         100e3788     items.obj
 0002:0000e8a8       ??_7CItemBattery@@6B@      100e38a8     items.obj
 0002:0000e9c8       ??_7CItemArmour@@6B@       100e39c8     items.obj
 0002:0000eae8       ??_7CItemAntidote@@6B@     100e3ae8     items.obj
 0002:0000ec08       ??_7CItemSecurity@@6B@     100e3c08     items.obj
 0002:0000ed28       ??_7CItemLongJump@@6B@     100e3d28     items.obj
 0002:0000ee48       ??_7CItemGasMask@@6B@      100e3e48     items.obj
 0002:0000ef68       ??_7CItemHeadShield@@6B@   100e3f68     items.obj
 0002:0000f088       ??_7CLeech@@6B@            100e4088     leech.obj
 0002:0000f2c8       __real@8@3ffee666666666666800 100e42c8     leech.obj
 0002:0000f2d0       __real@4@c002a000000000000000 100e42d0     leech.obj
 0002:0000f2d4       __real@4@c0069600000000000000 100e42d4     leech.obj
 0002:0000f2d8       __real@8@bffbccccccccccccd000 100e42d8     leech.obj
 0002:0000f2e0       __real@8@40058700000000000000 100e42e0     leech.obj
 0002:0000f2e8       __real@8@c0058700000000000000 100e42e8     leech.obj
 0002:0000f2f0       ??_7CLight@@6B@            100e42f0     lights.obj
 0002:0000f40c       ??_7CEnvLight@@6B@         100e440c     lights.obj
 0002:0000f528       __real@8@40078400000000000000 100e4528     lights.obj
 0002:0000f530       __real@8@3ff88fb823ee08fb8000 100e4530     lights.obj
 0002:0000f538       ??_7CLightDynamic@@6B@     100e4538     lights.obj
 0002:0000f654       ??_7CLightFader@@6B@       100e4654     lights.obj
 0002:0000f770       ??_7CTriggerLightstyle@@6B@ 100e4770     lights.obj
 0002:0000f88c       ??_7CLocusAlias@@6B@       100e488c     locus.obj
 0002:0000f9b8       ??_7CLocusBeam@@6B@        100e49b8     locus.obj
 0002:0000fad4       ??_7CCalcPosition@@6B@     100e4ad4     locus.obj
 0002:0000fbf0       ??_7CCalcRatio@@6B@        100e4bf0     locus.obj
 0002:0000fd0c       ??_7CCalcSubVelocity@@6B@  100e4d0c     locus.obj
 0002:0000fe28       ??_7CCalcVelocityPath@@6B@ 100e4e28     locus.obj
 0002:0000ff44       ??_7CCalcVelocityPolar@@6B@ 100e4f44     locus.obj
 0002:00010060       ??_7CLocusVariable@@6B@    100e5060     locus.obj
 0002:0001017c       ??_7CMark@@6B@             100e517c     locus.obj
 0002:00010298       ??_7CGameScore@@6B@        100e5298     maprules.obj
 0002:000103b4       ??_7CGameEnd@@6B@          100e53b4     maprules.obj
 0002:000104d0       ??_7CGameText@@6B@         100e54d0     maprules.obj
 0002:000105ec       ??_7CGameTeamMaster@@6B@   100e55ec     maprules.obj
 0002:00010708       ??_7CGameTeamSet@@6B@      100e5708     maprules.obj
 0002:00010824       ??_7CGamePlayerZone@@6B@   100e5824     maprules.obj
 0002:00010940       ??_7CGamePlayerHurt@@6B@   100e5940     maprules.obj
 0002:00010a5c       ??_7CGameCounter@@6B@      100e5a5c     maprules.obj
 0002:00010b78       ??_7CGameCounterSet@@6B@   100e5b78     maprules.obj
 0002:00010c94       ??_7CGamePlayerEquip@@6B@  100e5c94     maprules.obj
 0002:00010db0       ??_7CGamePlayerTeam@@6B@   100e5db0     maprules.obj
 0002:00010ecc       ??_7CMonsterMaker@@6B@     100e5ecc     monstermaker.obj
 0002:00011110       __real@8@4004c000000000000000 100e6110     monsters.obj
 0002:00011118       __real@8@4003c000000000000000 100e6118     monsters.obj
 0002:00011120       __real@4@4004c000000000000000 100e6120     monsters.obj
 0002:00011128       __real@8@3ff7c49ba5e353f7d000 100e6128     monsters.obj
 0002:00011130       ??_7CMonsterTarget@@6B@    100e6130     monsters.obj
 0002:0001124c       ??_7CFuncMortarField@@6B@  100e624c     mortar.obj
 0002:0001136c       ??_7CMortar@@6B@           100e636c     mortar.obj
 0002:000115b0       ??_7CMP5@@6B@              100e65b0     mp5.obj
 0002:00011784       ??_7CMP5AmmoClip@@6B@      100e6784     mp5.obj
 0002:000118a4       ??_7CMP5Chainammo@@6B@     100e68a4     mp5.obj
 0002:000119c4       ??_7CMP5AmmoGrenade@@6B@   100e69c4     mp5.obj
 0002:00011ae4       ??_7CMultiplayGameMgrHelper@@6B@ 100e6ae4     multiplay_gamerules.obj
 0002:00011aec       ??_7IVoiceGameMgrHelper@@6B@ 100e6aec     multiplay_gamerules.obj
 0002:00011af4       ??_7CHalfLifeMultiplay@@6B@ 100e6af4     multiplay_gamerules.obj
 0002:00011bec       __real@4@3ffce6a171024e6a1800 100e6bec     multiplay_gamerules.obj
 0002:00011bf0       __real@4@40089100000000000000 100e6bf0     multiplay_gamerules.obj
 0002:00011bf4       ??_7CNihilanth@@6B@        100e6bf4     nihilanth.obj
 0002:00011e34       __real@4@4007d200000000000000 100e6e34     nihilanth.obj
 0002:00011e38       __real@4@4008b400000000000000 100e6e38     nihilanth.obj
 0002:00011e3c       __real@4@4006f000000000000000 100e6e3c     nihilanth.obj
 0002:00011e40       ??_7CNihilanthHVR@@6B@     100e6e40     nihilanth.obj
 0002:00012084       __real@4@40089600000000000000 100e7084     nihilanth.obj
 0002:00012088       __real@8@40068000000000000000 100e7088     nihilanth.obj
 0002:00012090       __real@4@3ffaccccccccccccd000 100e7090     nihilanth.obj
 0002:00012094       __real@4@3fff99999a0000000000 100e7094     nihilanth.obj
 0002:00012098       ??_7CNodeEnt@@6B@          100e7098     nodes.obj
 0002:000121b8       __real@8@bffe8000000000000000 100e71b8     nodes.obj
 0002:000121c0       __real@8@3ffeff7ced916872b000 100e71c0     nodes.obj
 0002:000121c8       ??_7CTestHull@@6B@         100e71c8     nodes.obj
 0002:00012408       __real@4@4007c000000000000000 100e7408     nodes.obj
 0002:0001240c       ??_7CNodeViewer@@6B@       100e740c     nodes.obj
 0002:00012528       ??_7COsprey@@6B@           100e7528     osprey.obj
 0002:00012768       __real@4@c0058000000000000000 100e7768     osprey.obj
 0002:0001276c       __real@4@c005c000000000000000 100e776c     osprey.obj
 0002:00012770       __real@8@3ff8da740da740da7800 100e7770     osprey.obj
 0002:00012778       __real@4@c005b400000000000000 100e7778     osprey.obj
 0002:0001277c       __real@4@4007aa00000000000000 100e777c     osprey.obj
 0002:00012780       __real@4@c007aa00000000000000 100e7780     osprey.obj
 0002:00012784       ??_7CAK47@@6B@             100e7784     paranoia_ak47.obj
 0002:00012958       ??_7CAK74AmmoClip@@6B@     100e7958     paranoia_ak47.obj
 0002:00012a78       ??_7CAK74AmmoBox@@6B@      100e7a78     paranoia_ak47.obj
 0002:00012b98       ??_7CAKS@@6B@              100e7b98     paranoia_aks.obj
 0002:00012d6c       ??_7CAksAmmoClip@@6B@      100e7d6c     paranoia_aks.obj
 0002:00012e8c       ??_7CAksAmmoBox@@6B@       100e7e8c     paranoia_aks.obj
 0002:00012fac       ??_7CAPS@@6B@              100e7fac     paranoia_aps.obj
 0002:00013180       ??_7CApsAmmoClip@@6B@      100e8180     paranoia_aps.obj
 0002:000132a0       ??_7CApsAmmoBox@@6B@       100e82a0     paranoia_aps.obj
 0002:000133c0       ??_7CGlock@@6B@            100e83c0     paranoia_glock.obj
 0002:00013594       ??_7CGlockAmmo@@6B@        100e8594     paranoia_glock.obj
 0002:000136b4       ??_7CGlockBox@@6B@         100e86b4     paranoia_glock.obj
 0002:000137d4       ??_7CGroza@@6B@            100e87d4     paranoia_groza.obj
 0002:000139a8       __real@8@3ffcae147ae147ae1800 100e89a8     paranoia_groza.obj
 0002:000139b0       ??_7CGrozaAmmoClip@@6B@    100e89b0     paranoia_groza.obj
 0002:00013ad0       ??_7CGrozaAmmoBox@@6B@     100e8ad0     paranoia_groza.obj
 0002:00013bf0       ??_7CMilitary@@6B@         100e8bf0     paranoia_military.obj
 0002:00013e48       ??_7CMilitaryRepel@@6B@    100e8e48     paranoia_military.obj
 0002:00014088       ??_7CDeadMilitary@@6B@     100e9088     paranoia_military.obj
 0002:000142c8       ??_7CSpetsnaz@@6B@         100e92c8     paranoia_military.obj
 0002:00014520       ??_7CSpetsnazAPS@@6B@      100e9520     paranoia_military.obj
 0002:00014778       ??_7CRPK@@6B@              100e9778     paranoia_rpk.obj
 0002:0001494c       ??_7CRpkAmmoClip@@6B@      100e994c     paranoia_rpk.obj
 0002:00014a6c       ??_7CRpkAmmoBox@@6B@       100e9a6c     paranoia_rpk.obj
 0002:00014b8c       ??_7CShotgun@@6B@          100e9b8c     paranoia_shotgun.obj
 0002:00014d60       __real@8@3fffb333333333333000 100e9d60     paranoia_shotgun.obj
 0002:00014d68       ??_7CShotgunAmmo@@6B@      100e9d68     paranoia_shotgun.obj
 0002:00014e88       ??_7CFuncMachinegun@@6B@   100e9e88     paranoia_turret.obj
 0002:00014fa8       __real@4@c000c000000000000000 100e9fa8     paranoia_turret.obj
 0002:00014fac       ??_7CVAL@@6B@              100e9fac     paranoia_val.obj
 0002:00015180       ??_7CValAmmoClip@@6B@      100ea180     paranoia_val.obj
 0002:000152a0       ??_7CValAmmoBox@@6B@       100ea2a0     paranoia_val.obj
 0002:000153c0       ??_7CPathCorner@@6B@       100ea3c0     pathcorner.obj
 0002:000154dc       ??_7CPathTrack@@6B@        100ea4dc     pathcorner.obj
 0002:000155f8       ??_7CFuncPlat@@6B@         100ea5f8     plats.obj
 0002:0001572c       ??_7CPlatTrigger@@6B@      100ea72c     plats.obj
 0002:00015848       ??_7CFuncPlatRot@@6B@      100ea848     plats.obj
 0002:0001597c       ??_7CFuncTrain@@6B@        100ea97c     plats.obj
 0002:00015aa0       __real@4@40059000000000000000 100eaaa0     plats.obj
 0002:00015aa4       ??_7CFuncTrackTrain@@6B@   100eaaa4     plats.obj
 0002:00015bc0       __real@8@4004a000000000000000 100eabc0     plats.obj
 0002:00015bc8       __real@4@c001a000000000000000 100eabc8     plats.obj
 0002:00015bcc       ??_7CFuncTrainControls@@6B@ 100eabcc     plats.obj
 0002:00015ce8       ??_7CFuncTrackChange@@6B@  100eace8     plats.obj
 0002:00015e20       ??_7CFuncTrackAuto@@6B@    100eae20     plats.obj
 0002:00015f58       ??_7CGunTarget@@6B@        100eaf58     plats.obj
 0002:00016198       ??_7CTrainSequence@@6B@    100eb198     plats.obj
 0002:000162b8       __real@8@3ffea8f5c28f5c28f800 100eb2b8     player.obj
 0002:000162c0       __real@8@3ffda8f5c28f5c28f800 100eb2c0     player.obj
 0002:000162c8       __real@4@40029000000000000000 100eb2c8     player.obj
 0002:000162d0       __real@8@3fff9999999999999800 100eb2d0     player.obj
 0002:000162d8       ??_7CSprayCan@@6B@         100eb2d8     player.obj
 0002:000163f4       ??_7CBloodSplat@@6B@       100eb3f4     player.obj
 0002:00016510       __real@4@3ffeab851f0000000000 100eb510     player.obj
 0002:00016514       __real@4@3ffda8f5c30000000000 100eb514     player.obj
 0002:00016518       __real@4@c003c800000000000000 100eb518     player.obj
 0002:0001651c       ??_7CDeadHEV@@6B@          100eb51c     player.obj
 0002:0001675c       ??_7CStripWeapons@@6B@     100eb75c     player.obj
 0002:00016878       ??_7CRevertSaved@@6B@      100eb878     player.obj
 0002:00016994       ??_7CPlayerFreeze@@6B@     100eb994     player.obj
 0002:00016ab0       ??_7CInfoIntermission@@6B@ 100ebab0     player.obj
 0002:00016bcc       ??_7CHudSprite@@6B@        100ebbcc     player.obj
 0002:00016ce8       __real@8@3ffdb333333333333000 100ebce8     pm_shared.obj
 0002:00016cf0       __real@4@3ff8a3d70a3d70a3d800 100ebcf0     pm_shared.obj
 0002:00016cf8       __real@8@4004c800000000000000 100ebcf8     pm_shared.obj
 0002:00016d00       __real@4@c001c000000000000000 100ebd00     pm_shared.obj
 0002:00016d04       __real@4@4003e000000000000000 100ebd04     pm_shared.obj
 0002:00016d08       __real@8@3ffdaa7ef9db22d0e800 100ebd08     pm_shared.obj
 0002:00016d10       __real@4@400c9c40000000000000 100ebd10     pm_shared.obj
 0002:00016d14       __real@4@3fffd9999a0000000000 100ebd14     pm_shared.obj
 0002:00016d18       __real@8@400f8ca0000000000000 100ebd18     pm_shared.obj
 0002:00016d20       __real@8@400faf00000000000000 100ebd20     pm_shared.obj
 0002:00016d28       __real@8@4004b400000000000000 100ebd28     pm_shared.obj
 0002:00016d30       __real@8@3ffbcccccd0000000000 100ebd30     pm_shared.obj
 0002:00016d38       __real@4@bffbccccccccccccd000 100ebd38     pm_shared.obj
 0002:00016d40       __real@8@3ffdd70a3d70a3d70800 100ebd40     pm_shared.obj
 0002:00016d48       __real@4@4008af00000000000000 100ebd48     pm_shared.obj
 0002:00016d4c       __real@4@40079100000000000000 100ebd4c     pm_shared.obj
 0002:00016d50       __real@4@c006b300000000000000 100ebd50     pm_shared.obj
 0002:00016d54       __real@4@4006b300000000000000 100ebd54     pm_shared.obj
 0002:00016d58       __real@4@c005b200000000000000 100ebd58     pm_shared.obj
 0002:00016d5c       __real@4@4005b200000000000000 100ebd5c     pm_shared.obj
 0002:00016d60       __real@4@40058200000000000000 100ebd60     pm_shared.obj
 0002:00016d64       __real@4@c0008000000000000000 100ebd64     pm_shared.obj
 0002:00016d68       __real@4@bffc8000000000000000 100ebd68     pm_shared.obj
 0002:00016d6c       ??_7CPython@@6B@           100ebd6c     python.obj
 0002:00016f18       ??_7CPythonAmmo@@6B@       100ebf18     python.obj
 0002:00017038       ??_7CRat@@6B@              100ec038     roach.obj
 0002:00017278       ??_7CRpg@@6B@              100ec278     rpg.obj
 0002:0001744c       ??_7CLaserSpot@@6B@        100ec44c     rpg.obj
 0002:00017568       ??_7CRpgRocket@@6B@        100ec568     rpg.obj
 0002:000177ac       __real@4@3ffecc49ba0000000000 100ec7ac     rpg.obj
 0002:000177b0       __real@8@4007c800000000000000 100ec7b0     rpg.obj
 0002:000177b8       __real@8@40008666666666666800 100ec7b8     rpg.obj
 0002:000177c0       ??_7CRpgAmmo@@6B@          100ec7c0     rpg.obj
 0002:000178e0       ??_7CSatchelCharge@@6B@    100ec8e0     satchel.obj
 0002:00017b24       ??_7CSatchel@@6B@          100ecb24     satchel.obj
 0002:00017cd0       __real@4@40078900000000000000 100eccd0     satchel.obj
 0002:00017cd4       ??_7CScientist@@6B@        100eccd4     scientist.obj
 0002:00017f28       __real@4@40099600000000000000 100ecf28     scientist.obj
 0002:00017f2c       ??_7CDeadScientist@@6B@    100ecf2c     scientist.obj
 0002:0001816c       ??_7CSittingScientist@@6B@ 100ed16c     scientist.obj
 0002:000183c0       ??_7CTalkMonster@@6B@      100ed3c0     scientist.obj
 0002:00018614       ??_7CCineMonster@@6B@      100ed614     scripted.obj
 0002:00018860       __real@8@40028000000000000000 100ed860     scripted.obj
 0002:00018868       ??_7CScriptedSentence@@6B@ 100ed868     scripted.obj
 0002:00018988       ??_7CFurniture@@6B@        100ed988     scripted.obj
 0002:00018bc8       ??_7CHalfLifeRules@@6B@    100edbc8     singleplay_gamerules.obj
 0002:00018cb8       ??_7CAmbientGeneric@@6B@   100edcb8     sound.obj
 0002:00018dd4       __real@4@3ff8a3d70a0000000000 100eddd4     sound.obj
 0002:00018dd8       ??_7CEnvSound@@6B@         100eddd8     sound.obj
 0002:00018ef4       ??_7CTriggerSound@@6B@     100edef4     sound.obj
 0002:00019010       __real@8@3ffeaaaaaaaaaaaaa800 100ee010     sound.obj
 0002:00019018       ??_7CSpeaker@@6B@          100ee018     sound.obj
 0002:00019134       ??_7CRadio@@6B@            100ee134     sound.obj
 0002:00019250       ??_7CSoundEnt@@6B@         100ee250     soundent.obj
 0002:0001936c       ??_7CSqueakGrenade@@6B@    100ee36c     squeakgrenade.obj
 0002:000195b0       __real@8@40069b00000000000000 100ee5b0     squeakgrenade.obj
 0002:000195b8       ??_7CSqueak@@6B@           100ee5b8     squeakgrenade.obj
 0002:00019764       __real@4@c0039000000000000000 100ee764     squeakgrenade.obj
 0002:00019768       __real@8@40018c00000000000000 100ee768     squeakgrenade.obj
 0002:00019770       ??_7CNullEntity@@6B@       100ee770     subs.obj
 0002:0001988c       ??_7CBaseDMStart@@6B@      100ee88c     subs.obj
 0002:000199a8       ??_7CInfoMoveWith@@6B@     100ee9a8     subs.obj
 0002:00019ac8       __real@8@4007fa00000000000000 100eeac8     talkmonster.obj
 0002:00019ad0       ??_7CHalfLifeTeamplay@@6B@ 100eead0     teamplay_gamerules.obj
 0002:00019bc8       ??_7CTentacle@@6B@         100eebc8     tentacle.obj
 0002:00019e08       __real@4@4008d480000000000000 100eee08     tentacle.obj
 0002:00019e0c       __real@4@4007cc00000000000000 100eee0c     tentacle.obj
 0002:00019e10       __real@4@4006d800000000000000 100eee10     tentacle.obj
 0002:00019e14       __real@4@4007e000000000000000 100eee14     tentacle.obj
 0002:00019e18       __real@4@4008a000000000000000 100eee18     tentacle.obj
 0002:00019e1c       ??_7CTentacleMaw@@6B@      100eee1c     tentacle.obj
 0002:0001a05c       ??_7CFrictionModifier@@6B@ 100ef05c     triggers.obj
 0002:0001a178       ??_7CAutoTrigger@@6B@      100ef178     triggers.obj
 0002:0001a294       ??_7CTriggerRelay@@6B@     100ef294     triggers.obj
 0002:0001a3b0       ??_7CTriggerRotTest@@6B@   100ef3b0     triggers.obj
 0002:0001a4cc       ??_7CMultiManager@@6B@     100ef4cc     triggers.obj
 0002:0001a5e8       ??_7CStateWatcher@@6B@     100ef5e8     triggers.obj
 0002:0001a708       ??_7CWatcherCount@@6B@     100ef708     triggers.obj
 0002:0001a828       ??_7CRenderFxManager@@6B@  100ef828     triggers.obj
 0002:0001a944       ??_7CRenderFxFader@@6B@    100ef944     triggers.obj
 0002:0001aa60       ??_7CEnvCustomize@@6B@     100efa60     triggers.obj
 0002:0001ab7c       ??_7CBaseTrigger@@6B@      100efb7c     triggers.obj
 0002:0001ac9c       ??_7CTriggerHurt@@6B@      100efc9c     triggers.obj
 0002:0001adbc       ??_7CTriggerHevCharge@@6B@ 100efdbc     triggers.obj
 0002:0001aedc       ??_7CTriggerMonsterJump@@6B@ 100efedc     triggers.obj
 0002:0001affc       ??_7CTriggerCDAudio@@6B@   100efffc     triggers.obj
 0002:0001b11c       ??_7CTargetCDAudio@@6B@    100f011c     triggers.obj
 0002:0001b238       ??_7CTriggerMultiple@@6B@  100f0238     triggers.obj
 0002:0001b358       ??_7CTriggerOnce@@6B@      100f0358     triggers.obj
 0002:0001b478       ??_7CInOutRegister@@6B@    100f0478     triggers.obj
 0002:0001b594       ??_7CTriggerInOut@@6B@     100f0594     triggers.obj
 0002:0001b6b4       ??_7CTriggerCounter@@6B@   100f06b4     triggers.obj
 0002:0001b7d4       ??_7CTriggerVolume@@6B@    100f07d4     triggers.obj
 0002:0001b8f0       ??_7CFireAndDie@@6B@       100f08f0     triggers.obj
 0002:0001ba0c       ??_7CChangeLevel@@6B@      100f0a0c     triggers.obj
 0002:0001bb2c       ??_7CLadder@@6B@           100f0b2c     triggers.obj
 0002:0001bc4c       ??_7CTriggerPush@@6B@      100f0c4c     triggers.obj
 0002:0001bd6c       ??_7CTriggerBounce@@6B@    100f0d6c     triggers.obj
 0002:0001be8c       ??_7CTriggerOnSight@@6B@   100f0e8c     triggers.obj
 0002:0001bfa8       ??_7CTriggerTeleport@@6B@  100f0fa8     triggers.obj
 0002:0001c0c8       ??_7CTriggerSave@@6B@      100f10c8     triggers.obj
 0002:0001c1e8       ??_7CTriggerEndSection@@6B@ 100f11e8     triggers.obj
 0002:0001c308       ??_7CTriggerGravity@@6B@   100f1308     triggers.obj
 0002:0001c428       ??_7CTriggerSetPatrol@@6B@ 100f1428     triggers.obj
 0002:0001c544       ??_7CTriggerMotion@@6B@    100f1544     triggers.obj
 0002:0001c660       ??_7CMotionManager@@6B@    100f1660     triggers.obj
 0002:0001c77c       ??_7CMotionThread@@6B@     100f177c     triggers.obj
 0002:0001c898       ??_7CTriggerChangeTarget@@6B@ 100f1898     triggers.obj
 0002:0001c9b4       ??_7CTriggerChangeValue@@6B@ 100f19b4     triggers.obj
 0002:0001cad0       ??_7CTriggerCommand@@6B@   100f1ad0     triggers.obj
 0002:0001cbec       ??_7CTriggerChangeCVar@@6B@ 100f1bec     triggers.obj
 0002:0001cd08       ??_7CTriggerCamera@@6B@    100f1d08     triggers.obj
 0002:0001ce24       ??_7CTriggerTextWindow@@6B@ 100f1e24     triggers.obj
 0002:0001cf40       ??_7CTriggerMP3@@6B@       100f1f40     triggers.obj
 0002:0001d05c       ??_7CTriggerGoal@@6B@      100f205c     triggers.obj
 0002:0001d178       ??_7CStartRush@@6B@        100f2178     triggers.obj
 0002:0001d294       ??_7CGasArea@@6B@          100f2294     triggers.obj
 0002:0001d3b0       ??_7CTripmineGrenade@@6B@  100f23b0     tripmine.obj
 0002:0001d5f4       ??_7CTripmine@@6B@         100f25f4     tripmine.obj
 0002:0001d7a0       __real@8@4000d555555555555800 100f27a0     tripmine.obj
 0002:0001d7a8       ??_7CTurret@@6B@           100f27a8     turret.obj
 0002:0001da04       ??_7CMiniTurret@@6B@       100f2a04     turret.obj
 0002:0001dc60       __real@8@3ffeddb22d0e56041800 100f2c60     turret.obj
 0002:0001dc68       __real@8@3ffb9999999999999800 100f2c68     turret.obj
 0002:0001dc70       ??_7CSentry@@6B@           100f2c70     turret.obj
 0002:0001ded0       __real@8@3fef8000000000000000 100f2ed0     util.obj
 0002:0001ded8       __real@4@3ff6b60b60b60b60b800 100f2ed8     util.obj
 0002:0001dedc       __real@4@bff6b60b60b60b60b800 100f2edc     util.obj
 0002:0001dee0       __real@8@c004e52ee0d31e0fc000 100f2ee0     util.obj
 0002:0001dee8       ??_7CVoiceGameMgr@@6B@     100f2ee8     voice_gamemgr.obj
 0002:0001deec       ??_7CWeaponBox@@6B@        100f2eec     weapons.obj
 0002:0001e008       ??_7CPainkiller@@6B@       100f3008     weapons.obj
 0002:0001e128       ??_7CDecal@@6B@            100f3128     world.obj
 0002:0001e244       ??_7CCorpse@@6B@           100f3244     world.obj
 0002:0001e360       ??_7CWorld@@6B@            100f3360     world.obj
 0002:0001e47c       ??_7CXenPLight@@6B@        100f347c     xen.obj
 0002:0001e59c       ??_7CXenHair@@6B@          100f359c     xen.obj
 0002:0001e6bc       ??_7CXenTreeTrigger@@6B@   100f36bc     xen.obj
 0002:0001e7d8       ??_7CXenTree@@6B@          100f37d8     xen.obj
 0002:0001e8f8       ??_7CXenHull@@6B@          100f38f8     xen.obj
 0002:0001ea14       ??_7CXenSporeSmall@@6B@    100f3a14     xen.obj
 0002:0001eb34       ??_7CXenSporeMed@@6B@      100f3b34     xen.obj
 0002:0001ec54       ??_7CXenSporeLarge@@6B@    100f3c54     xen.obj
 0002:0001ed74       ??_7CZombie@@6B@           100f3d74     zombie.obj
 0002:0001efe8       __real@8@4015800bf60000000000 100f3fe8     LIBCMT:testfdiv.obj
 0002:0001eff0       __real@8@4014bffffc0000000000 100f3ff0     LIBCMT:testfdiv.obj
 0002:0001eff8       ??_C@_0BK@JEGK@IsProcessorFeaturePresent?$AA@ 100f3ff8     LIBCMT:testfdiv.obj
 0002:0001f014       ??_C@_08OBID@KERNEL32?$AA@ 100f4014     LIBCMT:testfdiv.obj
 0002:0001f020       ??_C@_05OFLO@e?$CL000?$AA@ 100f4020     LIBCMT:cvt.obj
 0002:0001f028       ___lookuptable             100f4028     LIBCMT:output.obj
 0002:0001f084       ??_C@_1O@POHA@?$AA?$CI?$AAn?$AAu?$AAl?$AAl?$AA?$CJ?$AA?$AA@ 100f4084     LIBCMT:output.obj
 0002:0001f094       ??_C@_06ONKE@?$CInull?$CJ?$AA@ 100f4094     LIBCMT:output.obj
 0002:0001f0f8       __DEFAULT_CW_in_mem        100f40f8     LIBCMT:common.obj
 0002:0001f0fa       __pi_by_2_to_61            100f40fa     LIBCMT:common.obj
 0002:0001f168       ??_C@_0BH@PHHF@__GLOBAL_HEAP_SELECTED?$AA@ 100f4168     LIBCMT:heapinit.obj
 0002:0001f180       ??_C@_0BF@BBGL@__MSVCRT_HEAP_SELECT?$AA@ 100f4180     LIBCMT:heapinit.obj
 0002:0001f198       ??_C@_01A@?$AA?$AA@        100f4198     LIBCMT:a_map.obj
 0002:0001f19c       ??_C@_13A@?$AA?$AA?$AA?$AA@ 100f419c     LIBCMT:a_map.obj
 0002:0001f1c4       ??_C@_0P@GGKG@runtime?5error?5?$AA@ 100f41c4     LIBCMT:crt0msg.obj
 0002:0001f1d4       ??_C@_02PIMC@?$AN?6?$AA@   100f41d4     LIBCMT:crt0msg.obj
 0002:0001f1d8       ??_C@_0O@DELO@TLOSS?5error?$AN?6?$AA@ 100f41d8     LIBCMT:crt0msg.obj
 0002:0001f1e8       ??_C@_0N@OMLL@SING?5error?$AN?6?$AA@ 100f41e8     LIBCMT:crt0msg.obj
 0002:0001f1f8       ??_C@_0P@OJAK@DOMAIN?5error?$AN?6?$AA@ 100f41f8     LIBCMT:crt0msg.obj
 0002:0001f208       ??_C@_0CF@EANP@R6028?$AN?6?9?5unable?5to?5initialize?5he@ 100f4208     LIBCMT:crt0msg.obj
 0002:0001f230       ??_C@_0DF@ECGN@R6027?$AN?6?9?5not?5enough?5space?5for?5lo@ 100f4230     LIBCMT:crt0msg.obj
 0002:0001f268       ??_C@_0DF@FKAC@R6026?$AN?6?9?5not?5enough?5space?5for?5st@ 100f4268     LIBCMT:crt0msg.obj
 0002:0001f2a0       ??_C@_0CG@DPMN@R6025?$AN?6?9?5pure?5virtual?5function?5c@ 100f42a0     LIBCMT:crt0msg.obj
 0002:0001f2c8       ??_C@_0DF@CKIP@R6024?$AN?6?9?5not?5enough?5space?5for?5_o@ 100f42c8     LIBCMT:crt0msg.obj
 0002:0001f300       ??_C@_0CJ@GGOE@R6019?$AN?6?9?5unable?5to?5open?5console?5@ 100f4300     LIBCMT:crt0msg.obj
 0002:0001f32c       ??_C@_0CB@LBOB@R6018?$AN?6?9?5unexpected?5heap?5error?$AN?6@ 100f432c     LIBCMT:crt0msg.obj
 0002:0001f350       ??_C@_0CN@FPEG@R6017?$AN?6?9?5unexpected?5multithread?5@ 100f4350     LIBCMT:crt0msg.obj
 0002:0001f380       ??_C@_0CM@OBIC@R6016?$AN?6?9?5not?5enough?5space?5for?5th@ 100f4380     LIBCMT:crt0msg.obj
 0002:0001f3ac       ??_C@_0CB@HPAL@?$AN?6abnormal?5program?5termination?$AN?6@ 100f43ac     LIBCMT:crt0msg.obj
 0002:0001f3d0       ??_C@_0CM@JOOB@R6009?$AN?6?9?5not?5enough?5space?5for?5en@ 100f43d0     LIBCMT:crt0msg.obj
 0002:0001f3fc       ??_C@_0CK@OIBL@R6008?$AN?6?9?5not?5enough?5space?5for?5ar@ 100f43fc     LIBCMT:crt0msg.obj
 0002:0001f428       ??_C@_0CF@LKPB@R6002?$AN?6?9?5floating?5point?5not?5load@ 100f4428     LIBCMT:crt0msg.obj
 0002:0001f450       ??_C@_0CF@JPDF@Microsoft?5Visual?5C?$CL?$CL?5Runtime?5Lib@ 100f4450     LIBCMT:crt0msg.obj
 0002:0001f478       ??_C@_0BK@DEOK@Runtime?5Error?$CB?6?6Program?3?5?$AA@ 100f4478     LIBCMT:crt0msg.obj
 0002:0001f494       ??_C@_03NAME@?4?4?4?$AA@   100f4494     LIBCMT:crt0msg.obj
 0002:0001f498       ??_C@_0BH@NNCD@?$DMprogram?5name?5unknown?$DO?$AA@ 100f4498     LIBCMT:crt0msg.obj
 0002:0001f4b0       ??_C@_0BD@NJFP@GetLastActivePopup?$AA@ 100f44b0     LIBCMT:crtmbox.obj
 0002:0001f4c4       ??_C@_0BA@GILI@GetActiveWindow?$AA@ 100f44c4     LIBCMT:crtmbox.obj
 0002:0001f4d4       ??_C@_0M@PKCK@MessageBoxA?$AA@ 100f44d4     LIBCMT:crtmbox.obj
 0002:0001f4e0       ??_C@_0L@HKL@user32?4dll?$AA@ 100f44e0     LIBCMT:crtmbox.obj
 0002:0001f4ec       ??_C@_06PAPI@1?$CDQNAN?$AA@ 100f44ec     LIBCMT:x10fout.obj
 0002:0001f4f4       ??_C@_05BGNL@1?$CDINF?$AA@ 100f44f4     LIBCMT:x10fout.obj
 0002:0001f4fc       ??_C@_05EDPF@1?$CDIND?$AA@ 100f44fc     LIBCMT:x10fout.obj
 0002:0001f504       ??_C@_06LKFM@1?$CDSNAN?$AA@ 100f4504     LIBCMT:x10fout.obj
 0002:0001f50c       ??_C@_03GAFO@_yn?$AA@      100f450c     LIBCMT:fpexcept.obj
 0002:0001f510       ??_C@_03GNLD@_y1?$AA@      100f4510     LIBCMT:fpexcept.obj
 0002:0001f514       ??_C@_03MHCE@_y0?$AA@      100f4514     LIBCMT:fpexcept.obj
 0002:0001f518       ??_C@_05PAK@frexp?$AA@     100f4518     LIBCMT:fpexcept.obj
 0002:0001f520       ??_C@_04JKCH@fmod?$AA@     100f4520     LIBCMT:fpexcept.obj
 0002:0001f528       ??_C@_06GGHF@_hypot?$AA@   100f4528     LIBCMT:fpexcept.obj
 0002:0001f530       ??_C@_05JNMC@_cabs?$AA@    100f4530     LIBCMT:fpexcept.obj
 0002:0001f538       ??_C@_05MEKH@ldexp?$AA@    100f4538     LIBCMT:fpexcept.obj
 0002:0001f540       ??_C@_04KAOJ@modf?$AA@     100f4540     LIBCMT:fpexcept.obj
 0002:0001f548       ??_C@_04EHAJ@fabs?$AA@     100f4548     LIBCMT:fpexcept.obj
 0002:0001f550       ??_C@_05MFBN@floor?$AA@    100f4550     LIBCMT:fpexcept.obj
 0002:0001f558       ??_C@_04JJMP@ceil?$AA@     100f4558     LIBCMT:fpexcept.obj
 0002:0001f560       ??_C@_03JLPI@tan?$AA@      100f4560     LIBCMT:fpexcept.obj
 0002:0001f564       ??_C@_03DLFL@cos?$AA@      100f4564     LIBCMT:fpexcept.obj
 0002:0001f568       ??_C@_03JAMN@sin?$AA@      100f4568     LIBCMT:fpexcept.obj
 0002:0001f56c       ??_C@_04LMBE@sqrt?$AA@     100f456c     LIBCMT:fpexcept.obj
 0002:0001f574       ??_C@_05BFPO@atan2?$AA@    100f4574     LIBCMT:fpexcept.obj
 0002:0001f57c       ??_C@_04EAGN@atan?$AA@     100f457c     LIBCMT:fpexcept.obj
 0002:0001f584       ??_C@_04OAMO@acos?$AA@     100f4584     LIBCMT:fpexcept.obj
 0002:0001f58c       ??_C@_04ELFI@asin?$AA@     100f458c     LIBCMT:fpexcept.obj
 0002:0001f594       ??_C@_04LFAD@tanh?$AA@     100f4594     LIBCMT:fpexcept.obj
 0002:0001f59c       ??_C@_04PFKD@cosh?$AA@     100f459c     LIBCMT:fpexcept.obj
 0002:0001f5a4       ??_C@_04NPAI@sinh?$AA@     100f45a4     LIBCMT:fpexcept.obj
 0002:0001f5ac       ??_C@_05IJHH@log10?$AA@    100f45ac     LIBCMT:fpexcept.obj
 0002:0001f5b4       ??_C@_03BGKD@log?$AA@      100f45b4     LIBCMT:fpexcept.obj
 0002:0001f5b8       ??_C@_03EGFG@pow?$AA@      100f45b8     LIBCMT:fpexcept.obj
 0002:0001f5bc       ??_C@_03CDGJ@exp?$AA@      100f45bc     LIBCMT:fpexcept.obj
 0002:0001f5c0       ??_C@_07CJME@H?3mm?3ss?$AA@ 100f45c0     LIBCMT:strftime.obj
 0002:0001f5c8       ??_C@_0BE@MHI@dddd?0?5MMMM?5dd?0?5yyyy?$AA@ 100f45c8     LIBCMT:strftime.obj
 0002:0001f5dc       ??_C@_06HCAD@M?1d?1yy?$AA@ 100f45dc     LIBCMT:strftime.obj
 0002:0001f5e4       ??_C@_02DBLP@PM?$AA@       100f45e4     LIBCMT:strftime.obj
 0002:0001f5e8       ??_C@_02ENLM@AM?$AA@       100f45e8     LIBCMT:strftime.obj
 0002:0001f5ec       ??_C@_08LIDF@December?$AA@ 100f45ec     LIBCMT:strftime.obj
 0002:0001f5f8       ??_C@_08NJLI@November?$AA@ 100f45f8     LIBCMT:strftime.obj
 0002:0001f604       ??_C@_07IAMM@October?$AA@  100f4604     LIBCMT:strftime.obj
 0002:0001f60c       ??_C@_09MKGD@September?$AA@ 100f460c     LIBCMT:strftime.obj
 0002:0001f618       ??_C@_06PADP@August?$AA@   100f4618     LIBCMT:strftime.obj
 0002:0001f620       ??_C@_04PIJO@July?$AA@     100f4620     LIBCMT:strftime.obj
 0002:0001f628       ??_C@_04ICFP@June?$AA@     100f4628     LIBCMT:strftime.obj
 0002:0001f630       ??_C@_05JFGC@April?$AA@    100f4630     LIBCMT:strftime.obj
 0002:0001f638       ??_C@_05FGPD@March?$AA@    100f4638     LIBCMT:strftime.obj
 0002:0001f640       ??_C@_08PGBA@February?$AA@ 100f4640     LIBCMT:strftime.obj
 0002:0001f64c       ??_C@_07BPKJ@January?$AA@  100f464c     LIBCMT:strftime.obj
 0002:0001f654       ??_C@_03PGJO@Dec?$AA@      100f4654     LIBCMT:strftime.obj
 0002:0001f658       ??_C@_03PDLM@Nov?$AA@      100f4658     LIBCMT:strftime.obj
 0002:0001f65c       ??_C@_03BLHK@Oct?$AA@      100f465c     LIBCMT:strftime.obj
 0002:0001f660       ??_C@_03DPFM@Sep?$AA@      100f4660     LIBCMT:strftime.obj
 0002:0001f664       ??_C@_03CMCH@Aug?$AA@      100f4664     LIBCMT:strftime.obj
 0002:0001f668       ??_C@_03OBKI@Jul?$AA@      100f4668     LIBCMT:strftime.obj
 0002:0001f66c       ??_C@_03LEIG@Jun?$AA@      100f466c     LIBCMT:strftime.obj
 0002:0001f670       ??_C@_03MGHB@May?$AA@      100f4670     LIBCMT:strftime.obj
 0002:0001f674       ??_C@_03MJJM@Apr?$AA@      100f4674     LIBCMT:strftime.obj
 0002:0001f678       ??_C@_03GNHA@Mar?$AA@      100f4678     LIBCMT:strftime.obj
 0002:0001f67c       ??_C@_03PICE@Feb?$AA@      100f467c     LIBCMT:strftime.obj
 0002:0001f680       ??_C@_03IEIF@Jan?$AA@      100f4680     LIBCMT:strftime.obj
 0002:0001f684       ??_C@_08FAKH@Saturday?$AA@ 100f4684     LIBCMT:strftime.obj
 0002:0001f690       ??_C@_06ONCK@Friday?$AA@   100f4690     LIBCMT:strftime.obj
 0002:0001f698       ??_C@_08CCFO@Thursday?$AA@ 100f4698     LIBCMT:strftime.obj
 0002:0001f6a4       ??_C@_09PBIN@Wednesday?$AA@ 100f46a4     LIBCMT:strftime.obj
 0002:0001f6b0       ??_C@_07BMBC@Tuesday?$AA@  100f46b0     LIBCMT:strftime.obj
 0002:0001f6b8       ??_C@_06CHLK@Monday?$AA@   100f46b8     LIBCMT:strftime.obj
 0002:0001f6c0       ??_C@_06OOEM@Sunday?$AA@   100f46c0     LIBCMT:strftime.obj
 0002:0001f6c8       ??_C@_03MPKK@Sat?$AA@      100f46c8     LIBCMT:strftime.obj
 0002:0001f6cc       ??_C@_03FINJ@Fri?$AA@      100f46cc     LIBCMT:strftime.obj
 0002:0001f6d0       ??_C@_03HIKC@Thu?$AA@      100f46d0     LIBCMT:strftime.obj
 0002:0001f6d4       ??_C@_03HECK@Wed?$AA@      100f46d4     LIBCMT:strftime.obj
 0002:0001f6d8       ??_C@_03ECCP@Tue?$AA@      100f46d8     LIBCMT:strftime.obj
 0002:0001f6dc       ??_C@_03PIEP@Mon?$AA@      100f46dc     LIBCMT:strftime.obj
 0002:0001f6e0       ??_C@_03FHEP@Sun?$AA@      100f46e0     LIBCMT:strftime.obj
 0002:0001f6e4       ___dnames                  100f46e4     LIBCMT:timeset.obj
 0002:0001f6fc       ___mnames                  100f46fc     LIBCMT:timeset.obj
 0002:0001f724       __IMPORT_DESCRIPTOR_KERNEL32 100f4724     kernel32:KERNEL32.dll
 0002:0001f738       __NULL_IMPORT_DESCRIPTOR   100f4738     kernel32:KERNEL32.dll
 0003:00000000       ___xc_a                    100fb000     LIBCMT:crt0init.obj
 0003:00000040       ___xc_z                    100fb040     LIBCMT:crt0init.obj
 0003:00000044       ___xi_a                    100fb044     LIBCMT:crt0init.obj
 0003:00000054       ___xi_z                    100fb054     LIBCMT:crt0init.obj
 0003:00000058       ___xp_a                    100fb058     LIBCMT:crt0init.obj
 0003:00000060       ___xp_z                    100fb060     LIBCMT:crt0init.obj
 0003:00000064       ___xt_a                    100fb064     LIBCMT:crt0init.obj
 0003:00000068       ___xt_z                    100fb068     LIBCMT:crt0init.obj
 0003:00000070       ?m_SaveData@CFlockingFlyerFlock@@2PAUTYPEDESCRIPTION@@A 100fb070     aflock.obj
 0003:00000090       ?m_SaveData@CFlockingFlyer@@2PAUTYPEDESCRIPTION@@A 100fb090     aflock.obj
 0003:00000140       ??_C@_0O@PJLM@m_flAlertTime?$AA@ 100fb140     aflock.obj
 0003:00000150       ??_C@_0BE@MHFF@m_flFakeBlockedTime?$AA@ 100fb150     aflock.obj
 0003:00000164       ??_C@_0BE@HJOE@m_flLastBlockedTime?$AA@ 100fb164     aflock.obj
 0003:00000178       ??_C@_0O@JM@m_flGoalSpeed?$AA@ 100fb178     aflock.obj
 0003:00000188       ??_C@_0BG@LMFG@m_vecAdjustedVelocity?$AA@ 100fb188     aflock.obj
 0003:000001a0       ??_C@_0BE@KKEG@m_vecReferencePoint?$AA@ 100fb1a0     aflock.obj
 0003:000001b4       ??_C@_0P@DOLO@m_fPathBlocked?$AA@ 100fb1b4     aflock.obj
 0003:000001c4       ??_C@_0BA@HNLM@m_fCourseAdjust?$AA@ 100fb1c4     aflock.obj
 0003:000001d4       ??_C@_0L@HOPG@m_fTurning?$AA@ 100fb1d4     aflock.obj
 0003:000001e0       ??_C@_0N@JOGK@m_pSquadNext?$AA@ 100fb1e0     aflock.obj
 0003:000001f0       ??_C@_0P@HGBA@m_pSquadLeader?$AA@ 100fb1f0     aflock.obj
 0003:00000200       ??_C@_0BA@EKPC@m_flFlockRadius?$AA@ 100fb200     aflock.obj
 0003:00000210       ??_C@_0N@FFB@m_cFlockSize?$AA@ 100fb210     aflock.obj
 0003:00000220       ??_C@_0BE@DCKP@CFlockingFlyerFlock?$AA@ 100fb220     aflock.obj
 0003:00000234       ??_C@_0P@DAIG@CFlockingFlyer?$AA@ 100fb234     aflock.obj
 0003:00000244       ??_C@_0O@BJLP@flFlockRadius?$AA@ 100fb244     aflock.obj
 0003:00000254       ??_C@_0L@NMPM@iFlockSize?$AA@ 100fb254     aflock.obj
 0003:00000260       ??_C@_0BA@NKN@models?1boid?4mdl?$AA@ 100fb260     aflock.obj
 0003:00000270       ??_C@_0BE@PLFM@boid?1boid_idle2?4wav?$AA@ 100fb270     aflock.obj
 0003:00000284       ??_C@_0BE@BLDD@boid?1boid_idle1?4wav?$AA@ 100fb284     aflock.obj
 0003:00000298       ??_C@_0BF@BFMG@boid?1boid_alert2?4wav?$AA@ 100fb298     aflock.obj
 0003:000002b0       ??_C@_0BF@PFKJ@boid?1boid_alert1?4wav?$AA@ 100fb2b0     aflock.obj
 0003:000002c8       ??_C@_0L@LME@worldspawn?$AA@ 100fb2c8     aflock.obj
 0003:000002d4       ??_C@_0O@EJCH@monster_flyer?$AA@ 100fb2d4     aflock.obj
 0003:000002e4       ??_C@_05JCDO@style?$AA@    100fb2e4     aflock.obj
 0003:000002ec       ??_C@_05MIHE@skill?$AA@    100fb2ec     aflock.obj
 0003:000002f4       ??_C@_08IDGH@movewith?$AA@ 100fb2f4     aflock.obj
 0003:00000300       ?m_SaveData@CAGrunt@@2PAUTYPEDESCRIPTION@@A 100fb300     agrunt.obj
 0003:00000360       ?pAttackHitSounds@CAGrunt@@2PAPBDA 100fb360     agrunt.obj
 0003:0000036c       ?pAttackMissSounds@CAGrunt@@2PAPBDA 100fb36c     agrunt.obj
 0003:00000374       ?pAttackSounds@CAGrunt@@2PAPBDA 100fb374     agrunt.obj
 0003:00000380       ?pDieSounds@CAGrunt@@2PAPBDA 100fb380     agrunt.obj
 0003:0000038c       ?pPainSounds@CAGrunt@@2PAPBDA 100fb38c     agrunt.obj
 0003:000003a0       ?pIdleSounds@CAGrunt@@2PAPBDA 100fb3a0     agrunt.obj
 0003:000003b0       ?pAlertSounds@CAGrunt@@2PAPBDA 100fb3b0     agrunt.obj
 0003:000003c0       ?tlAGruntFail@@3PAUTask_t@@A 100fb3c0     agrunt.obj
 0003:000003e0       ?slAGruntFail@@3PAUSchedule_t@@A 100fb3e0     agrunt.obj
 0003:000003f8       ?tlAGruntCombatFail@@3PAUTask_t@@A 100fb3f8     agrunt.obj
 0003:00000418       ?slAGruntCombatFail@@3PAUSchedule_t@@A 100fb418     agrunt.obj
 0003:00000430       ?tlAGruntStandoff@@3PAUTask_t@@A 100fb430     agrunt.obj
 0003:00000448       ?slAGruntStandoff@@3PAUSchedule_t@@A 100fb448     agrunt.obj
 0003:00000460       ?tlAGruntSuppressHornet@@3PAUTask_t@@A 100fb460     agrunt.obj
 0003:00000470       ?slAGruntSuppress@@3PAUSchedule_t@@A 100fb470     agrunt.obj
 0003:00000488       ?tlAGruntRangeAttack1@@3PAUTask_t@@A 100fb488     agrunt.obj
 0003:000004a0       ?slAGruntRangeAttack1@@3PAUSchedule_t@@A 100fb4a0     agrunt.obj
 0003:000004b8       ?tlAGruntHiddenRangeAttack1@@3PAUTask_t@@A 100fb4b8     agrunt.obj
 0003:000004e0       ?slAGruntHiddenRangeAttack@@3PAUSchedule_t@@A 100fb4e0     agrunt.obj
 0003:000004f8       ?tlAGruntTakeCoverFromEnemy@@3PAUTask_t@@A 100fb4f8     agrunt.obj
 0003:00000530       ?slAGruntTakeCoverFromEnemy@@3PAUSchedule_t@@A 100fb530     agrunt.obj
 0003:00000548       ?tlAGruntVictoryDance@@3PAUTask_t@@A 100fb548     agrunt.obj
 0003:000005e0       ?slAGruntVictoryDance@@3PAUSchedule_t@@A 100fb5e0     agrunt.obj
 0003:000005f8       ?tlAGruntThreatDisplay@@3PAUTask_t@@A 100fb5f8     agrunt.obj
 0003:00000610       ?slAGruntThreatDisplay@@3PAUSchedule_t@@A 100fb610     agrunt.obj
 0003:00000624       ?m_scheduleList@CAGrunt@@2PAPAUSchedule_t@@A 100fb624     agrunt.obj
 0003:00000648       ??_C@_0BE@MHD@AGruntThreatDisplay?$AA@ 100fb648     agrunt.obj
 0003:0000065c       ??_C@_0BD@CHML@AGruntVictoryDance?$AA@ 100fb65c     agrunt.obj
 0003:00000670       ??_C@_0BJ@DFPL@AGruntTakeCoverFromEnemy?$AA@ 100fb670     agrunt.obj
 0003:0000068c       ??_C@_0BM@EMLH@AGrunt?5Hidden?5Range?5Attack1?$AA@ 100fb68c     agrunt.obj
 0003:000006a8       ??_C@_0BF@HKLN@AGrunt?5Range?5Attack1?$AA@ 100fb6a8     agrunt.obj
 0003:000006c0       ??_C@_0BH@ILLA@AGrunt?5Suppress?5Hornet?$AA@ 100fb6c0     agrunt.obj
 0003:000006d8       ??_C@_0BA@DNDO@Agrunt?5Standoff?$AA@ 100fb6d8     agrunt.obj
 0003:000006e8       ??_C@_0BD@HPKP@AGrunt?5Combat?5Fail?$AA@ 100fb6e8     agrunt.obj
 0003:000006fc       ??_C@_0M@HCFA@AGrunt?5Fail?$AA@ 100fb6fc     agrunt.obj
 0003:00000708       ??_C@_0BF@OEPG@agrunt?1ag_alert5?4wav?$AA@ 100fb708     agrunt.obj
 0003:00000720       ??_C@_0BF@EEND@agrunt?1ag_alert4?4wav?$AA@ 100fb720     agrunt.obj
 0003:00000738       ??_C@_0BF@CECJ@agrunt?1ag_alert3?4wav?$AA@ 100fb738     agrunt.obj
 0003:00000750       ??_C@_0BF@GEGD@agrunt?1ag_alert1?4wav?$AA@ 100fb750     agrunt.obj
 0003:00000768       ??_C@_0BE@PBHP@agrunt?1ag_idle4?4wav?$AA@ 100fb768     agrunt.obj
 0003:0000077c       ??_C@_0BE@JBIF@agrunt?1ag_idle3?4wav?$AA@ 100fb77c     agrunt.obj
 0003:00000790       ??_C@_0BE@DBKA@agrunt?1ag_idle2?4wav?$AA@ 100fb790     agrunt.obj
 0003:000007a4       ??_C@_0BE@NBMP@agrunt?1ag_idle1?4wav?$AA@ 100fb7a4     agrunt.obj
 0003:000007b8       ??_C@_0BE@EKGH@agrunt?1ag_pain5?4wav?$AA@ 100fb7b8     agrunt.obj
 0003:000007cc       ??_C@_0BE@OKEC@agrunt?1ag_pain4?4wav?$AA@ 100fb7cc     agrunt.obj
 0003:000007e0       ??_C@_0BE@IKLI@agrunt?1ag_pain3?4wav?$AA@ 100fb7e0     agrunt.obj
 0003:000007f4       ??_C@_0BE@CKJN@agrunt?1ag_pain2?4wav?$AA@ 100fb7f4     agrunt.obj
 0003:00000808       ??_C@_0BE@MKPC@agrunt?1ag_pain1?4wav?$AA@ 100fb808     agrunt.obj
 0003:0000081c       ??_C@_0BD@BFMF@agrunt?1ag_die5?4wav?$AA@ 100fb81c     agrunt.obj
 0003:00000830       ??_C@_0BD@LFOA@agrunt?1ag_die4?4wav?$AA@ 100fb830     agrunt.obj
 0003:00000844       ??_C@_0BD@JFFA@agrunt?1ag_die1?4wav?$AA@ 100fb844     agrunt.obj
 0003:00000858       ??_C@_0BG@LIJA@agrunt?1ag_attack3?4wav?$AA@ 100fb858     agrunt.obj
 0003:00000870       ??_C@_0BG@BILF@agrunt?1ag_attack2?4wav?$AA@ 100fb870     agrunt.obj
 0003:00000888       ??_C@_0BG@PINK@agrunt?1ag_attack1?4wav?$AA@ 100fb888     agrunt.obj
 0003:000008a0       ??_C@_0BG@CPHF@zombie?1claw_miss2?4wav?$AA@ 100fb8a0     agrunt.obj
 0003:000008b8       ??_C@_0BG@MPBK@zombie?1claw_miss1?4wav?$AA@ 100fb8b8     agrunt.obj
 0003:000008d0       ??_C@_0BI@NMAI@zombie?1claw_strike3?4wav?$AA@ 100fb8d0     agrunt.obj
 0003:000008e8       ??_C@_0BI@HMCN@zombie?1claw_strike2?4wav?$AA@ 100fb8e8     agrunt.obj
 0003:00000900       ??_C@_0BI@JMEC@zombie?1claw_strike1?4wav?$AA@ 100fb900     agrunt.obj
 0003:00000918       ??_C@_0M@MDBP@m_iLastWord?$AA@ 100fb918     agrunt.obj
 0003:00000924       ??_C@_0BB@JBOM@m_flNextWordTime?$AA@ 100fb924     agrunt.obj
 0003:00000938       ??_C@_0BC@FFFE@m_flNextSpeakTime?$AA@ 100fb938     agrunt.obj
 0003:0000094c       ??_C@_0BB@PCHG@m_flNextPainTime?$AA@ 100fb94c     agrunt.obj
 0003:00000960       ??_C@_0BK@DNNA@m_flNextHornetAttackCheck?$AA@ 100fb960     agrunt.obj
 0003:0000097c       ??_C@_0BD@MEAK@m_fCanHornetAttack?$AA@ 100fb97c     agrunt.obj
 0003:00000990       ??_C@_07BGJK@CAGrunt?$AA@  100fb990     agrunt.obj
 0003:00000998       ??_C@_0BE@HADJ@monster_human_grunt?$AA@ 100fb998     agrunt.obj
 0003:000009ac       ??_C@_0BG@JJNA@player?1pl_ladder1?4wav?$AA@ 100fb9ac     agrunt.obj
 0003:000009c4       ??_C@_0BG@NJJK@player?1pl_ladder3?4wav?$AA@ 100fb9c4     agrunt.obj
 0003:000009dc       ??_C@_0BG@HJLP@player?1pl_ladder2?4wav?$AA@ 100fb9dc     agrunt.obj
 0003:000009f4       ??_C@_0BG@LJGA@player?1pl_ladder4?4wav?$AA@ 100fb9f4     agrunt.obj
 0003:00000a0c       ??_C@_06IACG@hornet?$AA@   100fba0c     agrunt.obj
 0003:00000a14       ??_C@_0BC@FMFA@models?1agrunt?4mdl?$AA@ 100fba14     agrunt.obj
 0003:00000a28       ??_C@_0BB@IBAG@sprites?1muz4?4spr?$AA@ 100fba28     agrunt.obj
 0003:00000a3c       ??_C@_0BH@HLMD@hassault?1hw_shoot1?4wav?$AA@ 100fba3c     agrunt.obj
 0003:00000a54       ??_C@_0CC@DMIM@AGRunt?5?9?5no?5enemy?5monster?5ptr?$CB?$CB?$CB@ 100fba54     agrunt.obj
 0003:00000a78       ??_C@_0CF@MHKL@AGruntGetPathToEnemyCorpse?5faile@ 100fba78     agrunt.obj
 0003:00000aa0       ??_C@_0BB@CILK@weapon_hornetgun?$AA@ 100fbaa0     agrunt.obj
 0003:00000ab4       ??_C@_0CF@PJNP@Sound?5mask?5without?5COND_HEAR_SOU@ 100fbab4     AI_BaseNPC_Schedule.obj
 0003:00000adc       ??_C@_0CF@IACH@COND_HEAR_SOUND?5with?5no?5sound?5ma@ 100fbadc     AI_BaseNPC_Schedule.obj
 0003:00000b04       ??_C@_0BI@IIBF@Schedule?5Failed?5at?5?$CFd?$CB?6?$AA@ 100fbb04     AI_BaseNPC_Schedule.obj
 0003:00000b1c       ??_C@_0CM@FKPG@ERROR?3?5reached?5target?0?5but?5no?5ru@ 100fbb1c     AI_BaseNPC_Schedule.obj
 0003:00000b48       ??_C@_0BL@NJKC@No?5StartTask?5entry?5for?5?$CFd?6?$AA@ 100fbb48     AI_BaseNPC_Schedule.obj
 0003:00000b64       ??_C@_0BA@FOHM@scripted_action?$AA@ 100fbb64     AI_BaseNPC_Schedule.obj
 0003:00000b74       ??_C@_06FNCA@SOUND?6?$AA@  100fbb74     AI_BaseNPC_Schedule.obj
 0003:00000b7c       ??_C@_0BN@CFOD@GetPathToBestScent?5failed?$CB?$CB?6?$AA@ 100fbb7c     AI_BaseNPC_Schedule.obj
 0003:00000b9c       ??_C@_0BN@BIAP@GetPathToBestSound?5failed?$CB?$CB?6?$AA@ 100fbb9c     AI_BaseNPC_Schedule.obj
 0003:00000bbc       ??_C@_0CA@EEMG@GetPathToLastPosition?5failed?$CB?$CB?6?$AA@ 100fbbbc     AI_BaseNPC_Schedule.obj
 0003:00000bdc       ??_C@_0BM@FLOM@GetPathToHintNode?5failed?$CB?$CB?6?$AA@ 100fbbdc     AI_BaseNPC_Schedule.obj
 0003:00000bf8       ??_C@_0BI@CIDC@GetPathToSpot?5failed?$CB?$CB?6?$AA@ 100fbbf8     AI_BaseNPC_Schedule.obj
 0003:00000c10       ??_C@_06MNOE@player?$AA@   100fbc10     AI_BaseNPC_Schedule.obj
 0003:00000c18       ??_C@_0BP@JGDO@GetPathToEnemyCorpse?5failed?$CB?$CB?6?$AA@ 100fbc18     AI_BaseNPC_Schedule.obj
 0003:00000c38       ??_C@_0BJ@HDON@GetPathToEnemy?5failed?$CB?$CB?6?$AA@ 100fbc38     AI_BaseNPC_Schedule.obj
 0003:00000c54       ??_C@_0BM@DBNL@GetPathToEnemyLKP?5failed?$CB?$CB?6?$AA@ 100fbc54     AI_BaseNPC_Schedule.obj
 0003:00000c70       ??_C@_0BO@ONGN@?$CFs?3?5MoveTarget?5is?5missing?$CB?$DP?$CB?6?$AA@ 100fbc70     AI_BaseNPC_Schedule.obj
 0003:00000c90       ??_C@_0BO@JCMA@?$CFs?5Failed?5to?5reach?5script?$CB?$CB?$CB?6?$AA@ 100fbc90     AI_BaseNPC_Schedule.obj
 0003:00000cb0       ??_C@_0DP@KBFC@Rush?5target?3?5monster?5?$CFs?5doesnt?5s@ 100fbcb0     AI_BaseNPC_Schedule.obj
 0003:00000cf0       ??_C@_0BD@NIBM@No?5route?5to?5face?$CB?6?$AA@ 100fbcf0     AI_BaseNPC_Schedule.obj
 0003:00000d04       ??_C@_0CA@CBOA@Invalid?5State?5for?5GetSchedule?$CB?6?$AA@ 100fbd04     AI_BaseNPC_Schedule.obj
 0003:00000d24       ??_C@_0BG@EPLP@Script?5failed?5for?5?$CFs?6?$AA@ 100fbd24     AI_BaseNPC_Schedule.obj
 0003:00000d3c       ??_C@_0BO@DFO@No?5suitable?5combat?5schedule?$CB?6?$AA@ 100fbd3c     AI_BaseNPC_Schedule.obj
 0003:00000d5c       ??_C@_0BH@GBLM@MONSTERSTATE?5IS?5NONE?$CB?6?$AA@ 100fbd5c     AI_BaseNPC_Schedule.obj
 0003:00000d78       ?m_SaveData@CAirtank@@0PAUTYPEDESCRIPTION@@A 100fbd78     airtank.obj
 0003:00000d88       ??_C@_07BMME@m_state?$AA@  100fbd88     airtank.obj
 0003:00000d90       ??_C@_08LJNM@CAirtank?$AA@ 100fbd90     airtank.obj
 0003:00000d9c       ??_C@_0BE@DOEH@models?1w_oxygen?4mdl?$AA@ 100fbd9c     airtank.obj
 0003:00000db0       ??_C@_0BF@NHKL@doors?1aliendoor3?4wav?$AA@ 100fbdb0     airtank.obj
 0003:00000dc8       ??_C@_0BE@PCJE@player?1pl_swim2?4wav?$AA@ 100fbdc8     airtank.obj
 0003:00000de0       ?m_SaveData@CBaseAlias@@2PAUTYPEDESCRIPTION@@A 100fbde0     alias.obj
 0003:00000df0       ?m_SaveData@CInfoGroup@@2PAUTYPEDESCRIPTION@@A 100fbdf0     alias.obj
 0003:00000e30       ?m_SaveData@CMultiAlias@@2PAUTYPEDESCRIPTION@@A 100fbe30     alias.obj
 0003:00000e80       ??_C@_07LJDL@m_iMode?$AA@  100fbe80     alias.obj
 0003:00000e88       ??_C@_09NCHK@m_iValues?$AA@ 100fbe88     alias.obj
 0003:00000e94       ??_C@_0O@KJMG@m_iTotalValue?$AA@ 100fbe94     alias.obj
 0003:00000ea4       ??_C@_0N@GCKM@m_iszTargets?$AA@ 100fbea4     alias.obj
 0003:00000eb4       ??_C@_0L@DMEJ@m_cTargets?$AA@ 100fbeb4     alias.obj
 0003:00000ec0       ??_C@_0BD@MECE@m_iszDefaultMember?$AA@ 100fbec0     alias.obj
 0003:00000ed4       ??_C@_0BB@MEJG@m_iszMemberValue?$AA@ 100fbed4     alias.obj
 0003:00000ee8       ??_C@_0BA@LNCB@m_iszMemberName?$AA@ 100fbee8     alias.obj
 0003:00000ef8       ??_C@_0L@HNML@m_cMembers?$AA@ 100fbef8     alias.obj
 0003:00000f04       ??_C@_0N@DIHP@m_pNextAlias?$AA@ 100fbf04     alias.obj
 0003:00000f14       ??_C@_0L@OHAF@CBaseAlias?$AA@ 100fbf14     alias.obj
 0003:00000f20       ??_C@_0CA@KANL@DEBUG?3?5info_alias?5?$CFs?5turns?5off?6?$AA@ 100fbf20     alias.obj
 0003:00000f40       ??_C@_0BP@PBFM@DEBUG?3?5info_alias?5?$CFs?5turns?5on?6?$AA@ 100fbf40     alias.obj
 0003:00000f60       ??_C@_0CJ@END@DEBUG?3?5info_alias?5?$CFs?5now?5refers?5@ 100fbf60     alias.obj
 0003:00000f8c       ??_C@_0L@LCLG@CInfoGroup?$AA@ 100fbf8c     alias.obj
 0003:00000f98       ??_C@_0DC@JLHK@Too?5many?5members?5for?5info_group?5@ 100fbf98     alias.obj
 0003:00000fcc       ??_C@_0O@PLIK@defaultmember?$AA@ 100fbfcc     alias.obj
 0003:00000fdc       ??_C@_0DL@JDCN@info_group?5?$CC?$CFs?$CC?3?5alias?5?$CC?$CFs?$CC?5was?5@ 100fbfdc     alias.obj
 0003:00001018       ??_C@_0DG@BKOL@DEBUG?3?5info_group?5?$CFs?5changes?5the@ 100fc018     alias.obj
 0003:00001050       ??_C@_0CM@IAME@info_group?5?$CC?$CFs?$CC?5has?5no?5member?5ca@ 100fc050     alias.obj
 0003:0000107c       ??_C@_0DH@DKNN@info_group?3?5GetMember?5called?5wit@ 100fc07c     alias.obj
 0003:000010b4       ??_C@_0M@BMAM@CMultiAlias?$AA@ 100fc0b4     alias.obj
 0003:000010c0       ??_C@_0DD@BMBN@Too?5many?5targets?5for?5multi_alias@ 100fc0c0     alias.obj
 0003:000010f4       ??_C@_0EC@DDC@trigger_changealias?5?$CFs?3?5alias?5?$CC?$CF@ 100fc0f4     alias.obj
 0003:00001138       ??_C@_06FJBO@?$CKlocus?$AA@ 100fc138     alias.obj
 0003:00001140       ??_C@_0CB@BODE@?$CFs?5entities?5cannot?5change?5value?$CB@ 100fc140     alias.obj
 0003:00001168       ?m_SaveData@CBaseAnimating@@2PAUTYPEDESCRIPTION@@A 100fc168     animating.obj
 0003:000011b8       ??_C@_0BB@LNPO@m_fSequenceLoops?$AA@ 100fc1b8     animating.obj
 0003:000011cc       ??_C@_0BE@JDFI@m_fSequenceFinished?$AA@ 100fc1cc     animating.obj
 0003:000011e0       ??_C@_0BD@BBIC@m_flLastEventCheck?$AA@ 100fc1e0     animating.obj
 0003:000011f4       ??_C@_0BA@PPMC@m_flGroundSpeed?$AA@ 100fc1f4     animating.obj
 0003:00001204       ??_C@_0O@EEHF@m_flFrameRate?$AA@ 100fc204     animating.obj
 0003:00001214       ??_C@_0P@MDDK@CBaseAnimating?$AA@ 100fc214     animating.obj
 0003:00001224       ??_C@_0BN@MEKN@Gibbed?5monster?5is?5thinking?$CB?6?$AA@ 100fc224     animating.obj
 0003:00001248       ?activity_map@@3PAUactivity_map_t@@A 100fc248     animation.obj
 0003:000014b0       ??_C@_0BE@CFFC@ACT_FLINCH_RIGHTLEG?$AA@ 100fc4b0     animation.obj
 0003:000014c4       ??_C@_0BD@PLMO@ACT_FLINCH_LEFTLEG?$AA@ 100fc4c4     animation.obj
 0003:000014d8       ??_C@_0BE@KFMB@ACT_FLINCH_RIGHTARM?$AA@ 100fc4d8     animation.obj
 0003:000014ec       ??_C@_0BD@HLFN@ACT_FLINCH_LEFTARM?$AA@ 100fc4ec     animation.obj
 0003:00001500       ??_C@_0BD@GHME@ACT_FLINCH_STOMACH?$AA@ 100fc500     animation.obj
 0003:00001514       ??_C@_0BB@DJCH@ACT_FLINCH_CHEST?$AA@ 100fc514     animation.obj
 0003:00001528       ??_C@_0BA@KCMH@ACT_FLINCH_HEAD?$AA@ 100fc528     animation.obj
 0003:00001538       ??_C@_0BB@KIMF@ACT_DIE_BACKSHOT?$AA@ 100fc538     animation.obj
 0003:0000154c       ??_C@_0BA@IIOA@ACT_DIE_GUTSHOT?$AA@ 100fc54c     animation.obj
 0003:0000155c       ??_C@_0BC@EHPG@ACT_DIE_CHESTSHOT?$AA@ 100fc55c     animation.obj
 0003:00001570       ??_C@_0BB@IJCK@ACT_DIE_HEADSHOT?$AA@ 100fc570     animation.obj
 0003:00001584       ??_C@_0BC@OLLI@ACT_VICTORY_DANCE?$AA@ 100fc584     animation.obj
 0003:00001598       ??_C@_0P@FNPL@ACT_RUN_SCARED?$AA@ 100fc598     animation.obj
 0003:000015a8       ??_C@_0BA@KKFK@ACT_WALK_SCARED?$AA@ 100fc5a8     animation.obj
 0003:000015b8       ??_C@_0BA@MCPA@ACT_COMBAT_IDLE?$AA@ 100fc5b8     animation.obj
 0003:000015c8       ??_C@_0BE@EFBD@ACT_SPECIAL_ATTACK2?$AA@ 100fc5c8     animation.obj
 0003:000015dc       ??_C@_0BE@LKKK@ACT_SPECIAL_ATTACK1?$AA@ 100fc5dc     animation.obj
 0003:000015f0       ??_C@_0M@LPIN@ACT_EXCITED?$AA@ 100fc5f0     animation.obj
 0003:000015fc       ??_C@_0BB@GAPB@ACT_FEAR_DISPLAY?$AA@ 100fc5fc     animation.obj
 0003:00001610       ??_C@_0BD@NHBG@ACT_THREAT_DISPLAY?$AA@ 100fc610     animation.obj
 0003:00001624       ??_C@_08PNIC@ACT_BITE?$AA@ 100fc624     animation.obj
 0003:00001630       ??_C@_09IION@ACT_SNIFF?$AA@ 100fc630     animation.obj
 0003:0000163c       ??_C@_0BB@MJAI@ACT_DETECT_SCENT?$AA@ 100fc63c     animation.obj
 0003:00001650       ??_C@_0O@DMDJ@ACT_FLY_RIGHT?$AA@ 100fc650     animation.obj
 0003:00001660       ??_C@_0N@OMAB@ACT_FLY_LEFT?$AA@ 100fc660     animation.obj
 0003:00001670       ??_C@_09JCGF@ACT_GLIDE?$AA@ 100fc670     animation.obj
 0003:0000167c       ??_C@_09HJMC@ACT_HOVER?$AA@ 100fc67c     animation.obj
 0003:00001688       ??_C@_0N@MLHD@ACT_RUN_HURT?$AA@ 100fc688     animation.obj
 0003:00001698       ??_C@_0O@PBCP@ACT_WALK_HURT?$AA@ 100fc698     animation.obj
 0003:000016a8       ??_C@_0P@FPPM@ACT_IDLE_ANGRY?$AA@ 100fc6a8     animation.obj
 0003:000016b8       ??_C@_0BB@NPC@ACT_INSPECT_WALL?$AA@ 100fc6b8     animation.obj
 0003:000016cc       ??_C@_0BC@HBKN@ACT_INSPECT_FLOOR?$AA@ 100fc6cc     animation.obj
 0003:000016e0       ??_C@_09HHFL@ACT_SLEEP?$AA@ 100fc6e0     animation.obj
 0003:000016ec       ??_C@_0BC@DCMK@ACT_BARNACLE_CHEW?$AA@ 100fc6ec     animation.obj
 0003:00001700       ??_C@_0BD@LC@ACT_BARNACLE_CHOMP?$AA@ 100fc700     animation.obj
 0003:00001714       ??_C@_0BC@CAB@ACT_BARNACLE_PULL?$AA@ 100fc714     animation.obj
 0003:00001728       ??_C@_0BB@OMIO@ACT_BARNACLE_HIT?$AA@ 100fc728     animation.obj
 0003:0000173c       ??_C@_0P@CCI@ACT_DIEVIOLENT?$AA@ 100fc73c     animation.obj
 0003:0000174c       ??_C@_0P@MBEH@ACT_DIEFORWARD?$AA@ 100fc74c     animation.obj
 0003:0000175c       ??_C@_0BA@ONLF@ACT_DIEBACKWARD?$AA@ 100fc75c     animation.obj
 0003:0000176c       ??_C@_0O@LMAD@ACT_DIESIMPLE?$AA@ 100fc76c     animation.obj
 0003:0000177c       ??_C@_07ICAP@ACT_EAT?$AA@  100fc77c     animation.obj
 0003:00001784       ??_C@_0L@MANE@ACT_DISARM?$AA@ 100fc784     animation.obj
 0003:00001790       ??_C@_07MMFM@ACT_ARM?$AA@  100fc790     animation.obj
 0003:00001798       ??_C@_0L@DABN@ACT_RELOAD?$AA@ 100fc798     animation.obj
 0003:000017a4       ??_C@_0BC@OIBM@ACT_MELEE_ATTACK2?$AA@ 100fc7a4     animation.obj
 0003:000017b8       ??_C@_0BC@BHKF@ACT_MELEE_ATTACK1?$AA@ 100fc7b8     animation.obj
 0003:000017cc       ??_C@_0BC@LOJN@ACT_RANGE_ATTACK2?$AA@ 100fc7cc     animation.obj
 0003:000017e0       ??_C@_0BC@EBCE@ACT_RANGE_ATTACK1?$AA@ 100fc7e0     animation.obj
 0003:000017f4       ??_C@_0P@DFJK@ACT_BIG_FLINCH?$AA@ 100fc7f4     animation.obj
 0003:00001804       ??_C@_0BB@MJFP@ACT_SMALL_FLINCH?$AA@ 100fc804     animation.obj
 0003:00001818       ??_C@_09MKJB@ACT_COWER?$AA@ 100fc818     animation.obj
 0003:00001824       ??_C@_0L@CLIN@ACT_TWITCH?$AA@ 100fc824     animation.obj
 0003:00001830       ??_C@_0M@JHEO@ACT_SIGNAL3?$AA@ 100fc830     animation.obj
 0003:0000183c       ??_C@_0M@DNNJ@ACT_SIGNAL2?$AA@ 100fc83c     animation.obj
 0003:00001848       ??_C@_0M@MCGA@ACT_SIGNAL1?$AA@ 100fc848     animation.obj
 0003:00001854       ??_C@_07OHHO@ACT_USE?$AA@  100fc854     animation.obj
 0003:0000185c       ??_C@_09MNDH@ACT_STAND?$AA@ 100fc85c     animation.obj
 0003:00001868       ??_C@_0P@FFOO@ACT_CROUCHIDLE?$AA@ 100fc868     animation.obj
 0003:00001878       ??_C@_0L@DEKF@ACT_CROUCH?$AA@ 100fc878     animation.obj
 0003:00001884       ??_C@_0P@EBPN@ACT_TURN_RIGHT?$AA@ 100fc884     animation.obj
 0003:00001894       ??_C@_0O@CICP@ACT_TURN_LEFT?$AA@ 100fc894     animation.obj
 0003:000018a4       ??_C@_0P@PNHC@ACT_ROLL_RIGHT?$AA@ 100fc8a4     animation.obj
 0003:000018b4       ??_C@_0O@KHJF@ACT_ROLL_LEFT?$AA@ 100fc8b4     animation.obj
 0003:000018c4       ??_C@_0BB@MBHD@ACT_STRAFE_RIGHT?$AA@ 100fc8c4     animation.obj
 0003:000018d8       ??_C@_0BA@KGJE@ACT_STRAFE_LEFT?$AA@ 100fc8d8     animation.obj
 0003:000018e8       ??_C@_08MAHE@ACT_LAND?$AA@ 100fc8e8     animation.obj
 0003:000018f4       ??_C@_08NJKN@ACT_FALL?$AA@ 100fc8f4     animation.obj
 0003:00001900       ??_C@_08FPAD@ACT_LEAP?$AA@ 100fc900     animation.obj
 0003:0000190c       ??_C@_07GAAB@ACT_HOP?$AA@  100fc90c     animation.obj
 0003:00001914       ??_C@_08BHBM@ACT_SWIM?$AA@ 100fc914     animation.obj
 0003:00001920       ??_C@_07NJBD@ACT_FLY?$AA@  100fc920     animation.obj
 0003:00001928       ??_C@_07IFOB@ACT_RUN?$AA@  100fc928     animation.obj
 0003:00001930       ??_C@_08PMDL@ACT_WALK?$AA@ 100fc930     animation.obj
 0003:0000193c       ??_C@_09OPPC@ACT_GUARD?$AA@ 100fc93c     animation.obj
 0003:00001948       ??_C@_08ONOA@ACT_IDLE?$AA@ 100fc948     animation.obj
 0003:00001954       ??_C@_0CM@MHFB@GetEyePosition?$CI?$CJ?5Can?8t?5get?5pstud@ 100fc954     animation.obj
 0003:00001980       ??_C@_0DJ@PPBE@Bad?5sound?5event?5?$CFd?5in?5sequence?5?$CF@ 100fc980     animation.obj
 0003:000019bc       ??_C@_0BK@DMEH@error?5in?5transition?5graph?$AA@ 100fc9bc     animation.obj
 0003:000019d8       ?m_SaveData@CApache@@0PAUTYPEDESCRIPTION@@A 100fc9d8     apache.obj
 0003:00001ac0       ?m_SaveData@CApacheHVR@@0PAUTYPEDESCRIPTION@@A 100fcac0     apache.obj
 0003:00001ad0       ??_C@_0N@JPPF@m_vecForward?$AA@ 100fcad0     apache.obj
 0003:00001ae0       ??_C@_0P@FKHM@m_iDoSmokePuff?$AA@ 100fcae0     apache.obj
 0003:00001af0       ??_C@_07OGGP@m_pBeam?$AA@  100fcaf0     apache.obj
 0003:00001af8       ??_C@_0N@BGMG@m_flPrevSeen?$AA@ 100fcaf8     apache.obj
 0003:00001b08       ??_C@_0N@IIN@m_flLastSeen?$AA@ 100fcb08     apache.obj
 0003:00001b18       ??_C@_08GJEA@m_angGun?$AA@ 100fcb18     apache.obj
 0003:00001b24       ??_C@_09JOJI@m_vecGoal?$AA@ 100fcb24     apache.obj
 0003:00001b30       ??_C@_0N@KMPP@m_posDesired?$AA@ 100fcb30     apache.obj
 0003:00001b40       ??_C@_0N@JIEK@m_vecDesired?$AA@ 100fcb40     apache.obj
 0003:00001b50       ??_C@_0M@IKE@m_posTarget?$AA@ 100fcb50     apache.obj
 0003:00001b5c       ??_C@_0M@LNGH@m_vecTarget?$AA@ 100fcb5c     apache.obj
 0003:00001b68       ??_C@_0P@DPOI@m_flNextRocket?$AA@ 100fcb68     apache.obj
 0003:00001b78       ??_C@_09JDEC@m_flForce?$AA@ 100fcb78     apache.obj
 0003:00001b84       ??_C@_0L@MHHE@m_iRockets?$AA@ 100fcb84     apache.obj
 0003:00001b90       ??_C@_07PDEN@CApache?$AA@  100fcb90     apache.obj
 0003:00001b98       ??_C@_0BC@LMCH@models?1apache?4mdl?$AA@ 100fcb98     apache.obj
 0003:00001bac       ??_C@_0L@NPBL@hvr_rocket?$AA@ 100fcbac     apache.obj
 0003:00001bb8       ??_C@_0CA@PBFF@models?1metalplategibs_green?4mdl?$AA@ 100fcbb8     apache.obj
 0003:00001bd8       ??_C@_0BD@OGND@sprites?1fexplo?4spr?$AA@ 100fcbd8     apache.obj
 0003:00001bec       ??_C@_0BE@GFBO@sprites?1lgtning?4spr?$AA@ 100fcbec     apache.obj
 0003:00001c00       ??_C@_0BE@ICAP@turret?1tu_fire1?4wav?$AA@ 100fcc00     apache.obj
 0003:00001c14       ??_C@_0BC@GDBJ@sprites?1white?4spr?$AA@ 100fcc14     apache.obj
 0003:00001c28       ??_C@_0BG@DJAM@weapons?1mortarhit?4wav?$AA@ 100fcc28     apache.obj
 0003:00001c40       ??_C@_0BF@MLIA@apache?1ap_whine1?4wav?$AA@ 100fcc40     apache.obj
 0003:00001c58       ??_C@_0BF@EDAH@apache?1ap_rotor3?4wav?$AA@ 100fcc58     apache.obj
 0003:00001c70       ??_C@_0BF@ODCC@apache?1ap_rotor2?4wav?$AA@ 100fcc70     apache.obj
 0003:00001c88       ??_C@_0BF@DEN@apache?1ap_rotor1?4wav?$AA@ 100fcc88     apache.obj
 0003:00001ca0       ??_C@_0BA@KIAN@cycler_wreckage?$AA@ 100fcca0     apache.obj
 0003:00001cb0       ??_C@_0BE@NELD@monster_human_alpha?$AA@ 100fccb0     apache.obj
 0003:00001cc4       ??_C@_0L@DONG@CApacheHVR?$AA@ 100fccc4     apache.obj
 0003:00001cd0       ??_C@_0P@BDDP@models?1HVR?4mdl?$AA@ 100fccd0     apache.obj
 0003:00001ce0       ??_C@_0BE@MOAO@weapons?1rocket1?4wav?$AA@ 100fcce0     apache.obj
 0003:00001cf4       ??_C@_0BC@PKLD@sprites?1smoke?4spr?$AA@ 100fccf4     apache.obj
 0003:00001d08       ?m_SaveData@CBarnacle@@2PAUTYPEDESCRIPTION@@A 100fcd08     barnacle.obj
 0003:00001d68       ??_C@_0O@FKMD@m_flTongueAdj?$AA@ 100fcd68     barnacle.obj
 0003:00001d78       ??_C@_0P@CELG@m_fLiftingPrey?$AA@ 100fcd78     barnacle.obj
 0003:00001d88       ??_C@_0BC@EPKG@m_fTongueExtended?$AA@ 100fcd88     barnacle.obj
 0003:00001d9c       ??_C@_07FFOF@m_cGibs?$AA@  100fcd9c     barnacle.obj
 0003:00001da4       ??_C@_0BD@NCJL@m_flKillVictimTime?$AA@ 100fcda4     barnacle.obj
 0003:00001db8       ??_C@_0N@MGJB@m_flAltitude?$AA@ 100fcdb8     barnacle.obj
 0003:00001dc8       ??_C@_09PKBF@CBarnacle?$AA@ 100fcdc8     barnacle.obj
 0003:00001dd4       ??_C@_0BE@NDBF@models?1barnacle?4mdl?$AA@ 100fcdd4     barnacle.obj
 0003:00001de8       ??_C@_07EMHC@attack1?$AA@  100fcde8     barnacle.obj
 0003:00001df0       ??_C@_0BI@KDNJ@barnacle?1bcl_alert2?4wav?$AA@ 100fcdf0     barnacle.obj
 0003:00001e08       ??_C@_0BH@NIBG@barnacle?1bcl_chew1?4wav?$AA@ 100fce08     barnacle.obj
 0003:00001e20       ??_C@_0BH@DIHJ@barnacle?1bcl_chew2?4wav?$AA@ 100fce20     barnacle.obj
 0003:00001e38       ??_C@_0BH@JIFM@barnacle?1bcl_chew3?4wav?$AA@ 100fce38     barnacle.obj
 0003:00001e50       ??_C@_0BH@KELH@barnacle?1bcl_bite3?4wav?$AA@ 100fce50     barnacle.obj
 0003:00001e68       ??_C@_0BG@CJEG@barnacle?1bcl_die1?4wav?$AA@ 100fce68     barnacle.obj
 0003:00001e80       ??_C@_0BG@GJAM@barnacle?1bcl_die3?4wav?$AA@ 100fce80     barnacle.obj
 0003:00001e98       ?m_SaveData@CBarney@@2PAUTYPEDESCRIPTION@@A 100fce98     barney.obj
 0003:00001ef8       ?tlBaFollow@@3PAUTask_t@@A 100fcef8     barney.obj
 0003:00001f08       ?slBaFollow@@3PAUSchedule_t@@A 100fcf08     barney.obj
 0003:00001f20       ?tlBarneyEnemyDraw@@3PAUTask_t@@A 100fcf20     barney.obj
 0003:00001f38       ?slBarneyEnemyDraw@@3PAUSchedule_t@@A 100fcf38     barney.obj
 0003:00001f50       ?tlBaFaceTarget@@3PAUTask_t@@A 100fcf50     barney.obj
 0003:00001f70       ?slBaFaceTarget@@3PAUSchedule_t@@A 100fcf70     barney.obj
 0003:00001f88       ?tlIdleBaStand@@3PAUTask_t@@A 100fcf88     barney.obj
 0003:00001fa8       ?slIdleBaStand@@3PAUSchedule_t@@A 100fcfa8     barney.obj
 0003:00001fbc       ?m_scheduleList@CBarney@@2PAPAUSchedule_t@@A 100fcfbc     barney.obj
 0003:00001fcc       ?m_szPoses@CDeadBarney@@2PAPADA 100fcfcc     barney.obj
 0003:00001fd8       ??_C@_0BB@IACN@lying_on_stomach?$AA@ 100fcfd8     barney.obj
 0003:00001fec       ??_C@_0O@KCLP@lying_on_side?$AA@ 100fcfec     barney.obj
 0003:00001ffc       ??_C@_0O@IIOG@lying_on_back?$AA@ 100fcffc     barney.obj
 0003:0000200c       ??_C@_09GKEM@IdleStand?$AA@ 100fd00c     barney.obj
 0003:00002018       ??_C@_0L@GKLF@FaceTarget?$AA@ 100fd018     barney.obj
 0003:00002024       ??_C@_0BC@IBKD@Barney?5Enemy?5Draw?$AA@ 100fd024     barney.obj
 0003:00002038       ??_C@_06IHCL@Follow?$AA@   100fd038     barney.obj
 0003:00002040       ??_C@_0BB@HDHC@m_flPlayerDamage?$AA@ 100fd040     barney.obj
 0003:00002054       ??_C@_0BC@OPFL@m_lastAttackCheck?$AA@ 100fd054     barney.obj
 0003:00002068       ??_C@_0BC@LBLA@m_checkAttackTime?$AA@ 100fd068     barney.obj
 0003:0000207c       ??_C@_0L@DADK@m_painTime?$AA@ 100fd07c     barney.obj
 0003:00002088       ??_C@_0M@ENHN@m_fGunDrawn?$AA@ 100fd088     barney.obj
 0003:00002094       ??_C@_0M@JFJC@m_iBaseBody?$AA@ 100fd094     barney.obj
 0003:000020a0       ??_C@_07PBDD@CBarney?$AA@  100fd0a0     barney.obj
 0003:000020a8       ??_C@_09OJB@BA_ATTACK?$AA@ 100fd0a8     barney.obj
 0003:000020b4       ??_C@_07FLIB@_ATTACK?$AA@  100fd0b4     barney.obj
 0003:000020bc       ??_C@_0BG@PMKE@barney?1ba_attack2?4wav?$AA@ 100fd0bc     barney.obj
 0003:000020d4       ??_C@_0BG@DKOO@weapons?1357_shot2?4wav?$AA@ 100fd0d4     barney.obj
 0003:000020ec       ??_C@_0BG@NKIB@weapons?1357_shot1?4wav?$AA@ 100fd0ec     barney.obj
 0003:00002104       ??_C@_0BC@JNJE@models?1barney?4mdl?$AA@ 100fd104     barney.obj
 0003:00002118       ??_C@_0BD@MJPF@barney?1ba_die3?4wav?$AA@ 100fd118     barney.obj
 0003:0000212c       ??_C@_0BD@GJNA@barney?1ba_die2?4wav?$AA@ 100fd12c     barney.obj
 0003:00002140       ??_C@_0BD@IJLP@barney?1ba_die1?4wav?$AA@ 100fd140     barney.obj
 0003:00002154       ??_C@_0BE@DMKE@barney?1ba_pain3?4wav?$AA@ 100fd154     barney.obj
 0003:00002168       ??_C@_0BE@JMIB@barney?1ba_pain2?4wav?$AA@ 100fd168     barney.obj
 0003:0000217c       ??_C@_0BE@HMOO@barney?1ba_pain1?4wav?$AA@ 100fd17c     barney.obj
 0003:00002190       ??_C@_0BG@BMML@barney?1ba_attack1?4wav?$AA@ 100fd190     barney.obj
 0003:000021a8       ??_C@_09IKHK@BA_MORTAL?$AA@ 100fd1a8     barney.obj
 0003:000021b4       ??_C@_08FBCB@BA_WOUND?$AA@ 100fd1b4     barney.obj
 0003:000021c0       ??_C@_08MDJH@BA_SMELL?$AA@ 100fd1c0     barney.obj
 0003:000021cc       ??_C@_09EOAP@BA_PQUEST?$AA@ 100fd1cc     barney.obj
 0003:000021d8       ??_C@_09IJG@?$CBBA_CUREC?$AA@ 100fd1d8     barney.obj
 0003:000021e4       ??_C@_09KCAB@?$CBBA_CUREB?$AA@ 100fd1e4     barney.obj
 0003:000021f0       ??_C@_09FNLI@?$CBBA_CUREA?$AA@ 100fd1f0     barney.obj
 0003:000021fc       ??_C@_08DHAN@BA_HELLO?$AA@ 100fd1fc     barney.obj
 0003:00002208       ??_C@_09FJLE@BA_SCARED?$AA@ 100fd208     barney.obj
 0003:00002214       ??_C@_07JPOH@BA_STOP?$AA@  100fd214     barney.obj
 0003:0000221c       ??_C@_08LHJK@BA_NOTOK?$AA@ 100fd21c     barney.obj
 0003:00002228       ??_C@_06OPBH@BA_POK?$AA@   100fd228     barney.obj
 0003:00002230       ??_C@_07OMCK@BA_WAIT?$AA@  100fd230     barney.obj
 0003:00002238       ??_C@_08OPHP@BA_PWAIT?$AA@ 100fd238     barney.obj
 0003:00002244       ??_C@_05MCLI@BA_OK?$AA@    100fd244     barney.obj
 0003:0000224c       ??_C@_0L@CPDC@BA_PFOLLOW?$AA@ 100fd24c     barney.obj
 0003:00002258       ??_C@_08IHAD@BA_STARE?$AA@ 100fd258     barney.obj
 0003:00002264       ??_C@_07BJNM@BA_IDLE?$AA@  100fd264     barney.obj
 0003:0000226c       ??_C@_0M@BIBA@BA_QUESTION?$AA@ 100fd26c     barney.obj
 0003:00002278       ??_C@_09FKKH@BA_ANSWER?$AA@ 100fd278     barney.obj
 0003:00002284       ??_C@_06IHHC@BA_MAD?$AA@   100fd284     barney.obj
 0003:0000228c       ??_C@_04GNEK@_MAD?$AA@     100fd28c     barney.obj
 0003:00002294       ??_C@_07MMDO@BA_SHOT?$AA@  100fd294     barney.obj
 0003:0000229c       ??_C@_05MJNE@_SHOT?$AA@    100fd29c     barney.obj
 0003:000022a4       ??_C@_0L@DGDK@weapon_aps?$AA@ 100fd2a4     barney.obj
 0003:000022b0       ??_C@_07CHKO@BA_KILL?$AA@  100fd2b0     barney.obj
 0003:000022b8       ??_C@_05CCEE@_KILL?$AA@    100fd2b8     barney.obj
 0003:000022c0       ??_C@_04JLAH@pose?$AA@     100fd2c0     barney.obj
 0003:000022c8       ??_C@_0BL@KFHI@Dead?5barney?5with?5bad?5pose?6?$AA@ 100fd2c8     barney.obj
 0003:000022e8       ?m_SaveData@CInfoBM@@2PAUTYPEDESCRIPTION@@A 100fd2e8     bigmomma.obj
 0003:000022f8       ?m_SaveData@CBMortar@@2PAUTYPEDESCRIPTION@@A 100fd2f8     bigmomma.obj
 0003:00002308       ?m_SaveData@CBigMomma@@2PAUTYPEDESCRIPTION@@A 100fd308     bigmomma.obj
 0003:00002358       ?pChildDieSounds@CBigMomma@@2PAPBDA 100fd358     bigmomma.obj
 0003:00002364       ?pSackSounds@CBigMomma@@2PAPBDA 100fd364     bigmomma.obj
 0003:00002370       ?pDeathSounds@CBigMomma@@2PAPBDA 100fd370     bigmomma.obj
 0003:00002374       ?pAttackSounds@CBigMomma@@2PAPBDA 100fd374     bigmomma.obj
 0003:00002380       ?pAttackHitSounds@CBigMomma@@2PAPBDA 100fd380     bigmomma.obj
 0003:0000238c       ?pBirthSounds@CBigMomma@@2PAPBDA 100fd38c     bigmomma.obj
 0003:00002398       ?pAlertSounds@CBigMomma@@2PAPBDA 100fd398     bigmomma.obj
 0003:000023a4       ?pPainSounds@CBigMomma@@2PAPBDA 100fd3a4     bigmomma.obj
 0003:000023b0       ?pFootSounds@CBigMomma@@2PAPBDA 100fd3b0     bigmomma.obj
 0003:000023c0       ?tlBigNode@@3PAUTask_t@@A  100fd3c0     bigmomma.obj
 0003:00002420       ?slBigNode@@3PAUSchedule_t@@A 100fd420     bigmomma.obj
 0003:00002438       ?tlNodeFail@@3PAUTask_t@@A 100fd438     bigmomma.obj
 0003:00002448       ?slNodeFail@@3PAUSchedule_t@@A 100fd448     bigmomma.obj
 0003:0000245c       ?m_scheduleList@CBigMomma@@2PAPAUSchedule_t@@A 100fd45c     bigmomma.obj
 0003:00002464       ??_C@_08FMKB@NodeFail?$AA@ 100fd464     bigmomma.obj
 0003:00002470       ??_C@_08BMDP@Big?5Node?$AA@ 100fd470     bigmomma.obj
 0003:0000247c       ??_C@_0BG@GAED@gonarch?1gon_step3?4wav?$AA@ 100fd47c     bigmomma.obj
 0003:00002494       ??_C@_0BG@MAGG@gonarch?1gon_step2?4wav?$AA@ 100fd494     bigmomma.obj
 0003:000024ac       ??_C@_0BG@CAAJ@gonarch?1gon_step1?4wav?$AA@ 100fd4ac     bigmomma.obj
 0003:000024c4       ??_C@_0BG@EIAB@gonarch?1gon_pain5?4wav?$AA@ 100fd4c4     bigmomma.obj
 0003:000024dc       ??_C@_0BG@OICE@gonarch?1gon_pain4?4wav?$AA@ 100fd4dc     bigmomma.obj
 0003:000024f4       ??_C@_0BG@CIPL@gonarch?1gon_pain2?4wav?$AA@ 100fd4f4     bigmomma.obj
 0003:0000250c       ??_C@_0BH@HKCL@gonarch?1gon_alert3?4wav?$AA@ 100fd50c     bigmomma.obj
 0003:00002524       ??_C@_0BH@NKAO@gonarch?1gon_alert2?4wav?$AA@ 100fd524     bigmomma.obj
 0003:0000253c       ??_C@_0BH@DKGB@gonarch?1gon_alert1?4wav?$AA@ 100fd53c     bigmomma.obj
 0003:00002554       ??_C@_0BH@BNNL@gonarch?1gon_birth3?4wav?$AA@ 100fd554     bigmomma.obj
 0003:0000256c       ??_C@_0BH@LNPO@gonarch?1gon_birth2?4wav?$AA@ 100fd56c     bigmomma.obj
 0003:00002584       ??_C@_0BH@FNJB@gonarch?1gon_birth1?4wav?$AA@ 100fd584     bigmomma.obj
 0003:0000259c       ??_C@_0BI@PNMO@gonarch?1gon_attack3?4wav?$AA@ 100fd59c     bigmomma.obj
 0003:000025b4       ??_C@_0BI@FNOL@gonarch?1gon_attack2?4wav?$AA@ 100fd5b4     bigmomma.obj
 0003:000025cc       ??_C@_0BI@LNIE@gonarch?1gon_attack1?4wav?$AA@ 100fd5cc     bigmomma.obj
 0003:000025e4       ??_C@_0BF@PDGG@gonarch?1gon_die1?4wav?$AA@ 100fd5e4     bigmomma.obj
 0003:000025fc       ??_C@_0BG@CEKA@gonarch?1gon_sack3?4wav?$AA@ 100fd5fc     bigmomma.obj
 0003:00002614       ??_C@_0BG@IEIF@gonarch?1gon_sack2?4wav?$AA@ 100fd614     bigmomma.obj
 0003:0000262c       ??_C@_0BG@GEOK@gonarch?1gon_sack1?4wav?$AA@ 100fd62c     bigmomma.obj
 0003:00002644       ??_C@_0BK@BIGI@gonarch?1gon_childdie3?4wav?$AA@ 100fd644     bigmomma.obj
 0003:00002660       ??_C@_0BK@LIEN@gonarch?1gon_childdie2?4wav?$AA@ 100fd660     bigmomma.obj
 0003:0000267c       ??_C@_0BK@FICC@gonarch?1gon_childdie1?4wav?$AA@ 100fd67c     bigmomma.obj
 0003:00002698       ??_C@_0M@GGOH@m_crabCount?$AA@ 100fd698     bigmomma.obj
 0003:000026a4       ??_C@_0BA@KPPA@m_painSoundTime?$AA@ 100fd6a4     bigmomma.obj
 0003:000026b4       ??_C@_0N@CGKJ@m_mortarTime?$AA@ 100fd6b4     bigmomma.obj
 0003:000026c4       ??_C@_0L@NMPK@m_crabTime?$AA@ 100fd6c4     bigmomma.obj
 0003:000026d0       ??_C@_0L@FPPE@m_nodeTime?$AA@ 100fd6d0     bigmomma.obj
 0003:000026dc       ??_C@_0L@LEAK@m_maxFrame?$AA@ 100fd6dc     bigmomma.obj
 0003:000026e8       ??_C@_0O@EKEG@m_preSequence?$AA@ 100fd6e8     bigmomma.obj
 0003:000026f8       ??_C@_07PELG@CInfoBM?$AA@  100fd6f8     bigmomma.obj
 0003:00002700       ??_C@_0M@GMCM@presequence?$AA@ 100fd700     bigmomma.obj
 0003:0000270c       ??_C@_0O@FLOA@reachsequence?$AA@ 100fd70c     bigmomma.obj
 0003:0000271c       ??_C@_0M@NJDL@reachtarget?$AA@ 100fd71c     bigmomma.obj
 0003:00002728       ??_C@_0L@NNCO@reachdelay?$AA@ 100fd728     bigmomma.obj
 0003:00002734       ??_C@_06JGHA@radius?$AA@   100fd734     bigmomma.obj
 0003:0000273c       ??_C@_08GMLN@CBMortar?$AA@ 100fd73c     bigmomma.obj
 0003:00002748       ??_C@_09MGBH@CBigMomma?$AA@ 100fd748     bigmomma.obj
 0003:00002754       ??_C@_0BN@GCHA@BM?3?5Finished?5node?5health?$CB?$CB?$CB?6?$AA@ 100fd754     bigmomma.obj
 0003:00002774       ??_C@_0BB@JADK@monster_babycrab?$AA@ 100fd774     bigmomma.obj
 0003:00002788       ??_C@_0BD@IPGE@models?1big_mom?4mdl?$AA@ 100fd788     bigmomma.obj
 0003:0000279c       ??_C@_0BM@FNDI@bullchicken?1bc_spithit2?4wav?$AA@ 100fd79c     bigmomma.obj
 0003:000027b8       ??_C@_0BM@LNFH@bullchicken?1bc_spithit1?4wav?$AA@ 100fd7b8     bigmomma.obj
 0003:000027d4       ??_C@_0BJ@EEPM@bullchicken?1bc_acid1?4wav?$AA@ 100fd7d4     bigmomma.obj
 0003:000027f0       ??_C@_0BG@ODJJ@sprites?1mommablob?4spr?$AA@ 100fd7f0     bigmomma.obj
 0003:00002808       ??_C@_0BH@FDD@sprites?1mommaspout?4spr?$AA@ 100fd808     bigmomma.obj
 0003:00002820       ??_C@_0BG@LBLF@sprites?1mommaspit?4spr?$AA@ 100fd820     bigmomma.obj
 0003:00002838       ??_C@_0BJ@NPDN@BM?3?5Finished?5the?5path?$CB?$CB?6?$AA@ 100fd838     bigmomma.obj
 0003:00002854       ??_C@_0L@PMO@targetname?$AA@ 100fd854     bigmomma.obj
 0003:00002860       ??_C@_0BP@FOLO@?$CFs?5has?5no?5sequence?5for?5act?3?$CFd?6?$AA@ 100fd860     bigmomma.obj
 0003:00002880       ??_C@_04LKFJ@jump?$AA@     100fd880     bigmomma.obj
 0003:00002888       ??_C@_0BH@NFB@BM?3?5Moving?5to?5node?5?$CFs?6?$AA@ 100fd888     bigmomma.obj
 0003:000028a0       ??_C@_0BO@BGOB@BM?3?5Wait?5at?5node?5?$CFs?5for?5?$CF?42f?6?$AA@ 100fd8a0     bigmomma.obj
 0003:000028c0       ??_C@_0BN@HAIJ@BM?3?5Wait?5at?5node?5?$CFs?5forever?6?$AA@ 100fd8c0     bigmomma.obj
 0003:000028e0       ??_C@_0BB@NJEA@BM?3?5Sequence?5?$CFs?6?$AA@ 100fd8e0     bigmomma.obj
 0003:000028f4       ??_C@_0BO@BFEN@BM?3?5Playing?5node?5sequence?5?$CFs?6?$AA@ 100fd8f4     bigmomma.obj
 0003:00002914       ??_C@_0BF@OBKL@BM?3?5Reached?5node?5?$CFs?6?$AA@ 100fd914     bigmomma.obj
 0003:0000292c       ??_C@_0BG@LHON@BM?3?5FAIL?$CB?5Delay?5?$CF?42f?6?$AA@ 100fd92c     bigmomma.obj
 0003:00002944       ??_C@_0BD@FDAA@BM?3?5Found?5node?5?$CFs?6?$AA@ 100fd944     bigmomma.obj
 0003:00002958       ??_C@_0BH@OEKJ@BM?3?5The?5WAIT?5is?5over?$CB?6?$AA@ 100fd958     bigmomma.obj
 0003:00002970       ??_C@_0BD@DMEI@BM?3?5Reached?5node?$CB?6?$AA@ 100fd970     bigmomma.obj
 0003:00002984       ??_C@_07NJNL@bmortar?$AA@  100fd984     bigmomma.obj
 0003:0000298c       ??_C@_0BD@KHNP@models?1floater?4mdl?$AA@ 100fd98c     bloater.obj
 0003:000029a0       ?m_SaveData@CFuncRotating@@2PAUTYPEDESCRIPTION@@A 100fd9a0     bmodels.obj
 0003:00002a00       ?m_SaveData@CPendulum@@2PAUTYPEDESCRIPTION@@A 100fda00     bmodels.obj
 0003:00002a80       ??_C@_07GINM@m_start?$AA@  100fda80     bmodels.obj
 0003:00002a88       ??_C@_08EDO@m_center?$AA@  100fda88     bmodels.obj
 0003:00002a94       ??_C@_0M@ENNH@m_dampSpeed?$AA@ 100fda94     bmodels.obj
 0003:00002aa0       ??_C@_0L@ILNC@m_maxSpeed?$AA@ 100fdaa0     bmodels.obj
 0003:00002aac       ??_C@_06POOI@m_damp?$AA@   100fdaac     bmodels.obj
 0003:00002ab4       ??_C@_06JCMH@m_time?$AA@   100fdab4     bmodels.obj
 0003:00002abc       ??_C@_0L@EKAB@m_distance?$AA@ 100fdabc     bmodels.obj
 0003:00002ac8       ??_C@_07NHEF@m_accel?$AA@  100fdac8     bmodels.obj
 0003:00002ad0       ??_C@_0M@OKHP@m_fCurSpeed?$AA@ 100fdad0     bmodels.obj
 0003:00002adc       ??_C@_08KGNE@m_sounds?$AA@ 100fdadc     bmodels.obj
 0003:00002ae8       ??_C@_07FHKJ@m_pitch?$AA@  100fdae8     bmodels.obj
 0003:00002af0       ??_C@_0L@MFGO@m_flVolume?$AA@ 100fdaf0     bmodels.obj
 0003:00002afc       ??_C@_0BA@PLK@m_flAttenuation?$AA@ 100fdafc     bmodels.obj
 0003:00002b0c       ??_C@_0BA@HPGA@m_flFanFriction?$AA@ 100fdb0c     bmodels.obj
 0003:00002b1c       ??_C@_04OFAC@skin?$AA@     100fdb1c     bmodels.obj
 0003:00002b24       ??_C@_0N@MGGI@showtriggers?$AA@ 100fdb24     bmodels.obj
 0003:00002b34       ??_C@_0O@OFPB@CFuncRotating?$AA@ 100fdb34     bmodels.obj
 0003:00002b44       ??_C@_04DPCL@axes?$AA@     100fdb44     bmodels.obj
 0003:00002b4c       ??_C@_06HADE@sounds?$AA@   100fdb4c     bmodels.obj
 0003:00002b54       ??_C@_0M@MGPD@spawnorigin?$AA@ 100fdb54     bmodels.obj
 0003:00002b60       ??_C@_06OPOL@Volume?$AA@   100fdb60     bmodels.obj
 0003:00002b68       ??_C@_0M@PGKA@fanfriction?$AA@ 100fdb68     bmodels.obj
 0003:00002b74       ??_C@_0BA@LNFJ@common?1null?4wav?$AA@ 100fdb74     bmodels.obj
 0003:00002b84       ??_C@_0O@JAIP@fans?1fan5?4wav?$AA@ 100fdb84     bmodels.obj
 0003:00002b94       ??_C@_0O@DAKK@fans?1fan4?4wav?$AA@ 100fdb94     bmodels.obj
 0003:00002ba4       ??_C@_0O@FAFA@fans?1fan3?4wav?$AA@ 100fdba4     bmodels.obj
 0003:00002bb4       ??_C@_0O@PAHF@fans?1fan2?4wav?$AA@ 100fdbb4     bmodels.obj
 0003:00002bc4       ??_C@_0O@BABK@fans?1fan1?4wav?$AA@ 100fdbc4     bmodels.obj
 0003:00002bd4       ??_C@_09MBEG@CPendulum?$AA@ 100fdbd4     bmodels.obj
 0003:00002be0       ??_C@_04CGBF@damp?$AA@     100fdbe0     bmodels.obj
 0003:00002be8       ??_C@_08GHDD@distance?$AA@ 100fdbe8     bmodels.obj
 0003:00002bf4       ??_C@_0BO@DOJP@?$CK?$CKCANCELLING?5pendulum?5think?$CB?6?$AA@ 100fdbf4     bmodels.obj
 0003:00002c14       ??_C@_0O@LOEB@Not?5a?5client?6?$AA@ 100fdc14     bmodels.obj
 0003:00002c28       ?m_SaveData@CSquidSpit@@2PAUTYPEDESCRIPTION@@A 100fdc28     bullsquid.obj
 0003:00002c38       ?m_SaveData@CBullsquid@@2PAUTYPEDESCRIPTION@@A 100fdc38     bullsquid.obj
 0003:00002c70       ?tlSquidRangeAttack1@@3PAUTask_t@@A 100fdc70     bullsquid.obj
 0003:00002c90       ?slSquidRangeAttack1@@3PAUSchedule_t@@A 100fdc90     bullsquid.obj
 0003:00002ca8       ?tlSquidChaseEnemy1@@3PAUTask_t@@A 100fdca8     bullsquid.obj
 0003:00002cc8       ?slSquidChaseEnemy@@3PAUSchedule_t@@A 100fdcc8     bullsquid.obj
 0003:00002ce0       ?tlSquidHurtHop@@3PAUTask_t@@A 100fdce0     bullsquid.obj
 0003:00002d00       ?slSquidHurtHop@@3PAUSchedule_t@@A 100fdd00     bullsquid.obj
 0003:00002d18       ?tlSquidSeeCrab@@3PAUTask_t@@A 100fdd18     bullsquid.obj
 0003:00002d38       ?slSquidSeeCrab@@3PAUSchedule_t@@A 100fdd38     bullsquid.obj
 0003:00002d50       ?tlSquidEat@@3PAUTask_t@@A 100fdd50     bullsquid.obj
 0003:00002dc0       ?slSquidEat@@3PAUSchedule_t@@A 100fddc0     bullsquid.obj
 0003:00002dd8       ?tlSquidSniffAndEat@@3PAUTask_t@@A 100fddd8     bullsquid.obj
 0003:00002e50       ?slSquidSniffAndEat@@3PAUSchedule_t@@A 100fde50     bullsquid.obj
 0003:00002e68       ?tlSquidWallow@@3PAUTask_t@@A 100fde68     bullsquid.obj
 0003:00002ec8       ?slSquidWallow@@3PAUSchedule_t@@A 100fdec8     bullsquid.obj
 0003:00002edc       ?m_scheduleList@CBullsquid@@2PAPAUSchedule_t@@A 100fdedc     bullsquid.obj
 0003:00002ef8       ??_C@_0M@DIJO@SquidWallow?$AA@ 100fdef8     bullsquid.obj
 0003:00002f04       ??_C@_0BB@ODOD@SquidSniffAndEat?$AA@ 100fdf04     bullsquid.obj
 0003:00002f18       ??_C@_08GBMK@SquidEat?$AA@ 100fdf18     bullsquid.obj
 0003:00002f24       ??_C@_0N@HMEG@SquidSeeCrab?$AA@ 100fdf24     bullsquid.obj
 0003:00002f34       ??_C@_0N@MGKN@SquidHurtHop?$AA@ 100fdf34     bullsquid.obj
 0003:00002f44       ??_C@_0BC@CGAE@Squid?5Chase?5Enemy?$AA@ 100fdf44     bullsquid.obj
 0003:00002f58       ??_C@_0BE@COJK@Squid?5Range?5Attack1?$AA@ 100fdf58     bullsquid.obj
 0003:00002f6c       ??_C@_0BB@KOPP@m_flNextSpitTime?$AA@ 100fdf6c     bullsquid.obj
 0003:00002f80       ??_C@_0BB@PHIP@m_flLastHurtTime?$AA@ 100fdf80     bullsquid.obj
 0003:00002f94       ??_C@_0BE@FLOA@m_fCanThreatDisplay?$AA@ 100fdf94     bullsquid.obj
 0003:00002fa8       ??_C@_0L@JHPF@CSquidSpit?$AA@ 100fdfa8     bullsquid.obj
 0003:00002fb4       ??_C@_0BE@GALE@sprites?1bigspit?4spr?$AA@ 100fdfb4     bullsquid.obj
 0003:00002fc8       ??_C@_09BEGG@squidspit?$AA@ 100fdfc8     bullsquid.obj
 0003:00002fd4       ??_C@_0L@BALC@CBullsquid?$AA@ 100fdfd4     bullsquid.obj
 0003:00002fe0       ??_C@_0BB@GGGK@monster_headcrab?$AA@ 100fdfe0     bullsquid.obj
 0003:00002ff4       ??_C@_0BM@FDAJ@Couldn?8t?5validate?5hint?5type?$AA@ 100fdff4     bullsquid.obj
 0003:00003010       ??_C@_0BJ@CPIC@bullchicken?1bc_idle5?4wav?$AA@ 100fe010     bullsquid.obj
 0003:0000302c       ??_C@_0BJ@IPKH@bullchicken?1bc_idle4?4wav?$AA@ 100fe02c     bullsquid.obj
 0003:00003048       ??_C@_0BJ@OPFN@bullchicken?1bc_idle3?4wav?$AA@ 100fe048     bullsquid.obj
 0003:00003064       ??_C@_0BJ@EPHI@bullchicken?1bc_idle2?4wav?$AA@ 100fe064     bullsquid.obj
 0003:00003080       ??_C@_0BJ@KPBH@bullchicken?1bc_idle1?4wav?$AA@ 100fe080     bullsquid.obj
 0003:0000309c       ??_C@_0BJ@JEJK@bullchicken?1bc_pain4?4wav?$AA@ 100fe09c     bullsquid.obj
 0003:000030b8       ??_C@_0BJ@PEGA@bullchicken?1bc_pain3?4wav?$AA@ 100fe0b8     bullsquid.obj
 0003:000030d4       ??_C@_0BJ@FEEF@bullchicken?1bc_pain2?4wav?$AA@ 100fe0d4     bullsquid.obj
 0003:000030f0       ??_C@_0BJ@LECK@bullchicken?1bc_pain1?4wav?$AA@ 100fe0f0     bullsquid.obj
 0003:0000310c       ??_C@_0BJ@KPPG@bullchicken?1bc_bite2?4wav?$AA@ 100fe10c     bullsquid.obj
 0003:00003128       ??_C@_0BJ@PND@bullchicken?1bc_bite3?4wav?$AA@ 100fe128     bullsquid.obj
 0003:00003144       ??_C@_0BF@OJMG@models?1bullsquid?4mdl?$AA@ 100fe144     bullsquid.obj
 0003:0000315c       ??_C@_0CA@CMAF@bullchicken?1bc_attackgrowl3?4wav?$AA@ 100fe15c     bullsquid.obj
 0003:0000317c       ??_C@_0CA@IMCA@bullchicken?1bc_attackgrowl2?4wav?$AA@ 100fe17c     bullsquid.obj
 0003:0000319c       ??_C@_0BP@GPDH@bullchicken?1bc_attackgrowl?4wav?$AA@ 100fe19c     bullsquid.obj
 0003:000031bc       ??_C@_0BI@NIM@bullchicken?1bc_die3?4wav?$AA@ 100fe1bc     bullsquid.obj
 0003:000031d4       ??_C@_0BI@KNKJ@bullchicken?1bc_die2?4wav?$AA@ 100fe1d4     bullsquid.obj
 0003:000031ec       ??_C@_0BI@ENMG@bullchicken?1bc_die1?4wav?$AA@ 100fe1ec     bullsquid.obj
 0003:00003204       ??_C@_0BL@GHBP@bullchicken?1bc_attack3?4wav?$AA@ 100fe204     bullsquid.obj
 0003:00003220       ??_C@_0BL@MHDK@bullchicken?1bc_attack2?4wav?$AA@ 100fe220     bullsquid.obj
 0003:0000323c       ??_C@_0BF@NENL@sprites?1tinyspit?4spr?$AA@ 100fe23c     bullsquid.obj
 0003:00003258       ?m_SaveData@CEnvGlobal@@2PAUTYPEDESCRIPTION@@A 100fe258     buttons.obj
 0003:00003288       ?m_SaveData@CEnvState@@2PAUTYPEDESCRIPTION@@A 100fe288     buttons.obj
 0003:000032c8       ?m_SaveData@CMultiSource@@2PAUTYPEDESCRIPTION@@A 100fe2c8     buttons.obj
 0003:00003308       ?m_SaveData@CBaseButton@@2PAUTYPEDESCRIPTION@@A 100fe308     buttons.obj
 0003:00003398       ?m_SaveData@CMomentaryRotButton@@2PAUTYPEDESCRIPTION@@A 100fe398     buttons.obj
 0003:000033f8       ?m_SaveData@CEnvSpark@@2PAUTYPEDESCRIPTION@@A 100fe3f8     buttons.obj
 0003:00003418       ??_C@_09JEFF@m_flDelay?$AA@ 100fe418     buttons.obj
 0003:00003424       ??_C@_05MAPN@m_end?$AA@    100fe424     buttons.obj
 0003:0000342c       ??_C@_0O@DKLE@m_returnSpeed?$AA@ 100fe42c     buttons.obj
 0003:0000343c       ??_C@_0M@BDFB@m_direction?$AA@ 100fe43c     buttons.obj
 0003:00003448       ??_C@_0L@GDAI@m_lastUsed?$AA@ 100fe448     buttons.obj
 0003:00003454       ??_C@_0BC@GNHM@m_strChangeTarget?$AA@ 100fe454     buttons.obj
 0003:00003468       ??_C@_0BE@LOMA@m_bUnlockedSentence?$AA@ 100fe468     buttons.obj
 0003:0000347c       ??_C@_0BB@JGCF@m_bUnlockedSound?$AA@ 100fe47c     buttons.obj
 0003:00003490       ??_C@_0BC@NOBM@m_bLockedSentence?$AA@ 100fe490     buttons.obj
 0003:000034a4       ??_C@_0P@GPPJ@m_bLockedSound?$AA@ 100fe4a4     buttons.obj
 0003:000034b4       ??_C@_0L@BMIP@m_hide_use?$AA@ 100fe4b4     buttons.obj
 0003:000034c0       ??_C@_0M@OHKE@m_fRotating?$AA@ 100fe4c0     buttons.obj
 0003:000034cc       ??_C@_0O@KGGK@m_fStayPushed?$AA@ 100fe4cc     buttons.obj
 0003:000034dc       ??_C@_08FJOH@m_iTotal?$AA@ 100fe4dc     buttons.obj
 0003:000034e8       ??_C@_0O@LOEO@m_rgTriggered?$AA@ 100fe4e8     buttons.obj
 0003:000034f8       ??_C@_0N@JFJJ@m_rgEntities?$AA@ 100fe4f8     buttons.obj
 0003:00003508       ??_C@_09CGML@m_sMaster?$AA@ 100fe508     buttons.obj
 0003:00003514       ??_C@_0P@BDOI@m_fTurnOffTime?$AA@ 100fe514     buttons.obj
 0003:00003524       ??_C@_0O@FABP@m_fTurnOnTime?$AA@ 100fe524     buttons.obj
 0003:00003534       ??_C@_08MKPK@m_iState?$AA@ 100fe534     buttons.obj
 0003:00003540       ??_C@_0P@NLGK@m_initialstate?$AA@ 100fe540     buttons.obj
 0003:00003550       ??_C@_0O@HEBJ@m_triggermode?$AA@ 100fe550     buttons.obj
 0003:00003560       ??_C@_0O@JHJL@m_globalstate?$AA@ 100fe560     buttons.obj
 0003:00003570       ??_C@_0L@JOKC@CEnvGlobal?$AA@ 100fe570     buttons.obj
 0003:0000357c       ??_C@_0N@JGEJ@initialstate?$AA@ 100fe57c     buttons.obj
 0003:0000358c       ??_C@_0M@FHKB@triggermode?$AA@ 100fe58c     buttons.obj
 0003:00003598       ??_C@_0M@LECD@globalstate?$AA@ 100fe598     buttons.obj
 0003:000035a4       ??_C@_09FAJH@CEnvState?$AA@ 100fe5a4     buttons.obj
 0003:000035b0       ??_C@_06ENCB@master?$AA@   100fe5b0     buttons.obj
 0003:000035b8       ??_C@_0M@NMEI@turnofftime?$AA@ 100fe5b8     buttons.obj
 0003:000035c4       ??_C@_0L@BIIA@turnontime?$AA@ 100fe5c4     buttons.obj
 0003:000035d0       ??_C@_0BF@ONAM@ignored?5trigger?5?$CFs?4?6?$AA@ 100fe5d0     buttons.obj
 0003:000035e8       ??_C@_0CG@KLOH@ignored?5trigger?5USE_OFF?$DL?5already@ 100fe5e8     buttons.obj
 0003:00003610       ??_C@_0CE@MMCM@ignored?5trigger?5USE_ON?$DL?5already?5@ 100fe610     buttons.obj
 0003:00003634       ??_C@_0CM@MDFB@ignored?5trigger?5?$CFs?$DL?5locked?5by?5ma@ 100fe634     buttons.obj
 0003:00003660       ??_C@_0BH@LKAC@DEBUG?3?5env_state?5?$CC?$CFs?$CC?5?$AA@ 100fe660     buttons.obj
 0003:00003678       ??_C@_0CL@NAIA@DEBUG?3?5env_state?5?$CC?$CFs?$CC?5triggered?0@ 100fe678     buttons.obj
 0003:000036a4       ??_C@_0DO@EHFK@DEBUG?3?5env_state?5?$CC?$CFs?$CC?5triggered?$DL@ 100fe6a4     buttons.obj
 0003:000036e4       ??_C@_02BGGP@?4?6?$AA@     100fe6e4     buttons.obj
 0003:000036e8       ??_C@_09PEGH@?5and?5?$CC?$CFs?$CC?$AA@ 100fe6e8     buttons.obj
 0003:000036f4       ??_C@_0O@OCEP@?3?5firing?5?$CC?$CFs?$CC?$AA@ 100fe6f4     buttons.obj
 0003:00003704       ??_C@_0CM@LGNG@DEBUG?3?5env_state?5?$CC?$CFs?$CC?5triggered?0@ 100fe704     buttons.obj
 0003:00003730       ??_C@_0DP@FCDL@DEBUG?3?5env_state?5?$CC?$CFs?$CC?5triggered?$DL@ 100fe730     buttons.obj
 0003:00003770       ??_C@_0CI@IJOL@DEBUG?3?5env_state?5?$CC?$CFs?$CC?5turned?5its@ 100fe770     buttons.obj
 0003:00003798       ??_C@_07EGPD@?5and?5?$CFs?$AA@ 100fe798     buttons.obj
 0003:000037a0       ??_C@_0M@EEKC@?3?5firing?5?$CFs?$AA@ 100fe7a0     buttons.obj
 0003:000037ac       ??_C@_0CH@ONOJ@DEBUG?3?5env_state?5?$CC?$CFs?$CC?5turned?5its@ 100fe7ac     buttons.obj
 0003:000037d4       ??_C@_0N@HENL@CMultiSource?$AA@ 100fe7d4     buttons.obj
 0003:000037e4       ??_C@_06NMIM@value3?$AA@   100fe7e4     buttons.obj
 0003:000037ec       ??_C@_06HGBL@value2?$AA@   100fe7ec     buttons.obj
 0003:000037f4       ??_C@_06IJKC@value1?$AA@   100fe7f4     buttons.obj
 0003:000037fc       ??_C@_0L@BJOF@killtarget?$AA@ 100fe7fc     buttons.obj
 0003:00003808       ??_C@_06OKPG@height?$AA@   100fe808     buttons.obj
 0003:00003810       ??_C@_0CE@GBFN@Multisource?5?$CFs?5enabled?5?$CI?$CFd?5input@ 100fe810     buttons.obj
 0003:00003834       ??_C@_0CI@EJNE@Multisource?5?$CFs?5deactivated?5?$CI?$CFd?5i@ 100fe834     buttons.obj
 0003:0000385c       ??_C@_0CJ@IAII@multisource?5?$CC?$CFs?$CC?3?5Used?5by?5non?9me@ 100fe85c     buttons.obj
 0003:00003888       ??_C@_0CO@OPGK@multisource?5?$CC?$CFs?$CC?3?5Used?5by?5non?9me@ 100fe888     buttons.obj
 0003:000038b8       ??_C@_0FB@OEIP@WARNING?3?5There?5are?5too?5many?5enti@ 100fe8b8     buttons.obj
 0003:0000390c       ??_C@_0O@FODH@multi_manager?$AA@ 100fe90c     buttons.obj
 0003:0000391c       ??_C@_0M@NGGN@CBaseButton?$AA@ 100fe91c     buttons.obj
 0003:00003928       ??_C@_02BHNN@EH?$AA@       100fe928     buttons.obj
 0003:0000392c       ??_C@_04OHKA@ECON?$AA@     100fe92c     buttons.obj
 0003:00003934       ??_C@_04FHOB@ERAD?$AA@     100fe934     buttons.obj
 0003:0000393c       ??_C@_05BAJO@ECHEM?$AA@    100fe93c     buttons.obj
 0003:00003944       ??_C@_05KNNG@EFIRE?$AA@    100fe944     buttons.obj
 0003:0000394c       ??_C@_02LMBH@EF?$AA@       100fe94c     buttons.obj
 0003:00003950       ??_C@_02OJDJ@ED?$AA@       100fe950     buttons.obj
 0003:00003954       ??_C@_02OJPC@EA?$AA@       100fe954     buttons.obj
 0003:00003958       ??_C@_02JICL@NG?$AA@       100fe958     buttons.obj
 0003:0000395c       ??_C@_02JJHG@NH?$AA@       100fe95c     buttons.obj
 0003:00003960       ??_C@_04KCMG@NCON?$AA@     100fe960     buttons.obj
 0003:00003968       ??_C@_04BCIH@NRAD?$AA@     100fe968     buttons.obj
 0003:00003970       ??_C@_05PBNL@NCHEM?$AA@    100fe970     buttons.obj
 0003:00003978       ??_C@_05EMJD@NFIRE?$AA@    100fe978     buttons.obj
 0003:00003980       ??_C@_02DCLM@NF?$AA@       100fe980     buttons.obj
 0003:00003984       ??_C@_02GHJC@ND?$AA@       100fe984     buttons.obj
 0003:00003988       ??_C@_02GHFJ@NA?$AA@       100fe988     buttons.obj
 0003:0000398c       ??_C@_0BD@INCL@buttons?1spark6?4wav?$AA@ 100fe98c     buttons.obj
 0003:000039a0       ??_C@_0BD@GNEE@buttons?1spark5?4wav?$AA@ 100fe9a0     buttons.obj
 0003:000039b4       ??_C@_0BD@MNGB@buttons?1spark4?4wav?$AA@ 100fe9b4     buttons.obj
 0003:000039c8       ??_C@_0BD@KNJL@buttons?1spark3?4wav?$AA@ 100fe9c8     buttons.obj
 0003:000039dc       ??_C@_0BD@NLO@buttons?1spark2?4wav?$AA@ 100fe9dc     buttons.obj
 0003:000039f0       ??_C@_0BD@ONNB@buttons?1spark1?4wav?$AA@ 100fe9f0     buttons.obj
 0003:00003a04       ??_C@_08DBLN@hide_use?$AA@ 100fea04     buttons.obj
 0003:00003a10       ??_C@_0BC@HBHD@unlocked_sentence?$AA@ 100fea10     buttons.obj
 0003:00003a24       ??_C@_0P@BKDI@unlocked_sound?$AA@ 100fea24     buttons.obj
 0003:00003a34       ??_C@_0BA@BJOH@locked_sentence?$AA@ 100fea34     buttons.obj
 0003:00003a44       ??_C@_0N@DKII@locked_sound?$AA@ 100fea44     buttons.obj
 0003:00003a54       ??_C@_0N@CDAP@changetarget?$AA@ 100fea54     buttons.obj
 0003:00003a64       ??_C@_0BE@GGO@buttons?1button9?4wav?$AA@ 100fea64     buttons.obj
 0003:00003a78       ??_C@_0BD@JHOG@buttons?1lever5?4wav?$AA@ 100fea78     buttons.obj
 0003:00003a8c       ??_C@_0BD@DHMD@buttons?1lever4?4wav?$AA@ 100fea8c     buttons.obj
 0003:00003aa0       ??_C@_0BD@FHDJ@buttons?1lever3?4wav?$AA@ 100feaa0     buttons.obj
 0003:00003ab4       ??_C@_0BD@PHBM@buttons?1lever2?4wav?$AA@ 100feab4     buttons.obj
 0003:00003ac8       ??_C@_0BD@BHHD@buttons?1lever1?4wav?$AA@ 100feac8     buttons.obj
 0003:00003adc       ??_C@_0BJ@HKMK@buttons?1lightswitch2?4wav?$AA@ 100feadc     buttons.obj
 0003:00003af8       ??_C@_0BL@LEDH@buttons?1latchunlocked1?4wav?$AA@ 100feaf8     buttons.obj
 0003:00003b14       ??_C@_0BJ@EOKP@buttons?1latchlocked1?4wav?$AA@ 100feb14     buttons.obj
 0003:00003b30       ??_C@_0BF@CGCH@buttons?1button11?4wav?$AA@ 100feb30     buttons.obj
 0003:00003b48       ??_C@_0BF@IGAC@buttons?1button10?4wav?$AA@ 100feb48     buttons.obj
 0003:00003b60       ??_C@_0BE@KGEL@buttons?1button8?4wav?$AA@ 100feb60     buttons.obj
 0003:00003b74       ??_C@_0BE@MHJL@buttons?1button7?4wav?$AA@ 100feb74     buttons.obj
 0003:00003b88       ??_C@_0BE@GHLO@buttons?1button6?4wav?$AA@ 100feb88     buttons.obj
 0003:00003b9c       ??_C@_0BE@IHNB@buttons?1button5?4wav?$AA@ 100feb9c     buttons.obj
 0003:00003bb0       ??_C@_0BE@CHPE@buttons?1button4?4wav?$AA@ 100febb0     buttons.obj
 0003:00003bc4       ??_C@_0BE@EHAO@buttons?1button3?4wav?$AA@ 100febc4     buttons.obj
 0003:00003bd8       ??_C@_0BE@OHCL@buttons?1button2?4wav?$AA@ 100febd8     buttons.obj
 0003:00003bec       ??_C@_0BE@HEE@buttons?1button1?4wav?$AA@ 100febec     buttons.obj
 0003:00003c00       ??_C@_0M@FNLL@multisource?$AA@ 100fec00     buttons.obj
 0003:00003c0c       ??_C@_0BE@FALH@CMomentaryRotButton?$AA@ 100fec0c     buttons.obj
 0003:00003c20       ??_C@_0M@BNKG@returnspeed?$AA@ 100fec20     buttons.obj
 0003:00003c2c       ??_C@_0BF@GEEH@momentary_rot_button?$AA@ 100fec2c     buttons.obj
 0003:00003c44       ??_C@_09BJOK@CEnvSpark?$AA@ 100fec44     buttons.obj
 0003:00003c50       ??_C@_08EBKM@MaxDelay?$AA@ 100fec50     buttons.obj
 0003:00003d28       ?m_SaveData@CBaseEntity@@2PAUTYPEDESCRIPTION@@A 100fed28     cbase.obj
 0003:00003e48       ??_C@_0N@IDE@m_pfnBlocked?$AA@ 100fee48     cbase.obj
 0003:00003e58       ??_C@_08PBLD@m_pfnUse?$AA@ 100fee58     cbase.obj
 0003:00003e64       ??_C@_0L@IDHF@m_pfnTouch?$AA@ 100fee64     cbase.obj
 0003:00003e70       ??_C@_0L@IGKD@m_pfnThink?$AA@ 100fee70     cbase.obj
 0003:00003e7c       ??_C@_0BE@PIJG@m_vecPostAssistAVel?$AA@ 100fee7c     cbase.obj
 0003:00003e90       ??_C@_0BD@LHLM@m_vecPostAssistVel?$AA@ 100fee90     cbase.obj
 0003:00003ea4       ??_C@_0BA@OKPI@m_fPevNextThink?$AA@ 100feea4     cbase.obj
 0003:00003eb4       ??_C@_0N@HKLC@m_fNextThink?$AA@ 100feeb4     cbase.obj
 0003:00003ec4       ??_C@_0M@OADG@m_activated?$AA@ 100feec4     cbase.obj
 0003:00003ed0       ??_C@_0BD@PEPG@m_vecRotWithOffset?$AA@ 100feed0     cbase.obj
 0003:00003ee4       ??_C@_0BE@FMLP@m_vecMoveWithOffset?$AA@ 100feee4     cbase.obj
 0003:00003ef8       ??_C@_08KENI@m_iStyle?$AA@ 100feef8     cbase.obj
 0003:00003f04       ??_C@_09COAM@m_iLFlags?$AA@ 100fef04     cbase.obj
 0003:00003f10       ??_C@_0BD@ENKJ@m_pSiblingMoveWith?$AA@ 100fef10     cbase.obj
 0003:00003f24       ??_C@_0BB@NKLJ@m_pChildMoveWith?$AA@ 100fef24     cbase.obj
 0003:00003f38       ??_C@_0M@OIFG@m_pMoveWith?$AA@ 100fef38     cbase.obj
 0003:00003f44       ??_C@_0L@BMF@m_MoveWith?$AA@ 100fef44     cbase.obj
 0003:00003f50       ??_C@_0L@GODC@m_pGoalEnt?$AA@ 100fef50     cbase.obj
 0003:00003f5c       ??_C@_0CB@JHCH@Dormant?5entity?5?$CFs?5is?5thinking?$CB?$CB?6@ 100fef5c     cbase.obj
 0003:00003f80       ??_C@_0CE@KHBN@ENTITY?5TABLE?5OR?5INDEX?5IS?5WRONG?$CB?$CB@ 100fef80     cbase.obj
 0003:00003fa4       ??_C@_0CI@LD@Global?5entity?5found?5?$CFs?0?5wrong?5cl@ 100fefa4     cbase.obj
 0003:00003fcc       ??_C@_0L@NALA@globalname?$AA@ 100fefcc     cbase.obj
 0003:00003fd8       ??_C@_0CH@ENPD@Global?5Entity?5?$CFs?5?$CI?$CFs?$CJ?5not?5in?5tab@ 100fefd8     cbase.obj
 0003:00004000       ??_C@_07BFFD@ENTVARS?$AA@  100ff000     cbase.obj
 0003:00004008       ??_C@_03KJBA@SWF?$AA@      100ff008     cbase.obj
 0003:0000400c       ??_C@_0BM@IKOP@Missing?5movewith?5entity?5?$CFs?6?$AA@ 100ff00c     cbase.obj
 0003:00004028       ??_C@_04JHGF@BASE?$AA@     100ff028     cbase.obj
 0003:00004030       ??_C@_0BF@DLND@NULL?5Ent?5in?5Create?$CB?6?$AA@ 100ff030     cbase.obj
 0003:00004190       ?custom_entity_field_alias@@3PAUentity_field_alias_t@@A 100ff190     client.obj
 0003:000042d4       ??_C@_0BC@DMHA@models?1player?4mdl?$AA@ 100ff2d4     client.obj
 0003:000042e8       ??_C@_0BI@DGKA@?9?5?$CFs?5has?5left?5the?5game?6?$AA@ 100ff2e8     client.obj
 0003:00004300       ??_C@_07MPIK@reload?6?$AA@ 100ff300     client.obj
 0003:00004308       ??_C@_0BK@NJM@?$CC?$CFs?$DM?$CFi?$DO?$DM?$CFs?$DO?$DM?$CFi?$DO?$CC?5?$CFs?5?$CC?$CFs?$CC?6?$AA@ 100ff308     client.obj
 0003:00004324       ??_C@_0BK@GHLF@?$CC?$CFs?$DM?$CFi?$DO?$DM?$CFs?$DO?$DM?$CFs?$DO?$CC?5?$CFs?5?$CC?$CFs?$CC?6?$AA@ 100ff324     client.obj
 0003:00004340       ??_C@_05LHJL@model?$AA@    100ff340     client.obj
 0003:00004348       ??_C@_01BJG@?6?$AA@        100ff348     client.obj
 0003:0000434c       ??_C@_06OFNJ@?$CFc?$CFs?3?5?$AA@ 100ff34c     client.obj
 0003:00004354       ??_C@_0O@NGBO@?$CFc?$CITEAM?$CJ?5?$CFs?3?5?$AA@ 100ff354     client.obj
 0003:00004364       ??_C@_02DILL@?$CFs?$AA@    100ff364     client.obj
 0003:00004368       ??_C@_05JKGE@?$CFs?5?$CFs?$AA@ 100ff368     client.obj
 0003:00004370       ??_C@_08PAEI@say_team?$AA@ 100ff370     client.obj
 0003:0000437c       ??_C@_03NJAM@say?$AA@      100ff37c     client.obj
 0003:00004380       ??_C@_0BF@IECC@Unknown?5command?3?5?$CFs?6?$AA@ 100ff380     client.obj
 0003:00004398       ??_C@_05BEID@crash?$AA@    100ff398     client.obj
 0003:000043a0       ??_C@_0BJ@OFHA@items?1painkiller_use?4wav?$AA@ 100ff3a0     client.obj
 0003:000043bc       ??_C@_0M@DEOC@painkillers?$AA@ 100ff3bc     client.obj
 0003:000043c8       ??_C@_0L@LID@painkiller?$AA@ 100ff3c8     client.obj
 0003:000043d4       ??_C@_0L@DIAE@headshield?$AA@ 100ff3d4     client.obj
 0003:000043e0       ??_C@_07JLPJ@gasmask?$AA@  100ff3e0     client.obj
 0003:000043e8       ??_C@_0L@NOO@listspread?$AA@ 100ff3e8     client.obj
 0003:000043f4       ??_C@_08CLAP@spectate?$AA@ 100ff3f4     client.obj
 0003:00004400       ??_C@_07DIEC@lastinv?$AA@  100ff400     client.obj
 0003:00004408       ??_C@_07BHGE@weapon_?$AA@  100ff408     client.obj
 0003:00004410       ??_C@_03CFBD@use?$AA@      100ff410     client.obj
 0003:00004414       ??_C@_0P@IPBG@?$CCfov?$CC?5is?5?$CC?$CFd?$CC?6?$AA@ 100ff414     client.obj
 0003:00004424       ??_C@_03CBNM@fov?$AA@      100ff424     client.obj
 0003:00004428       ??_C@_04NMBB@drop?$AA@     100ff428     client.obj
 0003:00004430       ??_C@_04JEOP@give?$AA@     100ff430     client.obj
 0003:00004438       ??_C@_0L@MGFB@fullupdate?$AA@ 100ff438     client.obj
 0003:00004444       ??_C@_0BE@ONDN@no?5ent?5on?5the?5way?4?6?$AA@ 100ff444     client.obj
 0003:00004458       ??_C@_04JJHH@ok?4?6?$AA@   100ff458     client.obj
 0003:00004460       ??_C@_0CD@GCLJ@usage?3?5setblend?5?$DMblend1?$DO?5?$DMblend2@ 100ff460     client.obj
 0003:00004484       ??_C@_08FGMF@setblend?$AA@ 100ff484     client.obj
 0003:00004490       ??_C@_0P@PEOE@Fired?5?$CFs?5?$CC?$CFs?$CC?6?$AA@ 100ff490     client.obj
 0003:000044a0       ??_C@_04OLBH@fire?$AA@     100ff4a0     client.obj
 0003:000044a8       ??_C@_0BP@CBHN@Syntax?3?5hud_color?5RRR?5GGG?5BBB?6?$AA@ 100ff4a8     client.obj
 0003:000044c8       ??_C@_09OLMF@hud_color?$AA@ 100ff4c8     client.obj
 0003:000044d4       ??_C@_0L@KFFO@VModEnable?$AA@ 100ff4d4     client.obj
 0003:000044e0       ??_C@_0CH@JKCP@?$CC?$CFs?$DM?$CFi?$DO?$DM?$CFs?$DO?$DM?$CFi?$DO?$CC?5changed?5name?5to@ 100ff4e0     client.obj
 0003:00004508       ??_C@_0CH@DKLD@?$CC?$CFs?$DM?$CFi?$DO?$DM?$CFs?$DO?$DM?$CFs?$DO?$CC?5changed?5name?5to@ 100ff508     client.obj
 0003:00004530       ??_C@_0BJ@POAB@?$CK?5?$CFs?5changed?5name?5to?5?$CFs?6?$AA@ 100ff530     client.obj
 0003:0000454c       ??_C@_04OPJK@name?$AA@     100ff54c     client.obj
 0003:00004554       ??_C@_0BD@KJPN@Can?8t?5instance?5?$CFs?6?$AA@ 100ff554     client.obj
 0003:00004568       ??_C@_0BH@FOCA@items?1gasm_breath4?4wav?$AA@ 100ff568     client.obj
 0003:00004580       ??_C@_0BH@DONK@items?1gasm_breath3?4wav?$AA@ 100ff580     client.obj
 0003:00004598       ??_C@_0BH@JOPP@items?1gasm_breath2?4wav?$AA@ 100ff598     client.obj
 0003:000045b0       ??_C@_0BH@HOJA@items?1gasm_breath1?4wav?$AA@ 100ff5b0     client.obj
 0003:000045c8       ??_C@_0BD@CCAJ@player?1geiger1?4wav?$AA@ 100ff5c8     client.obj
 0003:000045dc       ??_C@_0BD@MCGG@player?1geiger2?4wav?$AA@ 100ff5dc     client.obj
 0003:000045f0       ??_C@_0BD@GCED@player?1geiger3?4wav?$AA@ 100ff5f0     client.obj
 0003:00004604       ??_C@_0BD@CLJ@player?1geiger4?4wav?$AA@ 100ff604     client.obj
 0003:00004618       ??_C@_0BD@KCJM@player?1geiger5?4wav?$AA@ 100ff618     client.obj
 0003:0000462c       ??_C@_0BD@ECPD@player?1geiger6?4wav?$AA@ 100ff62c     client.obj
 0003:00004640       ??_C@_0BK@KHAC@common?1wpn_denyselect?4wav?$AA@ 100ff640     client.obj
 0003:0000465c       ??_C@_0BG@MCNG@common?1wpn_select?4wav?$AA@ 100ff65c     client.obj
 0003:00004674       ??_C@_0BK@MLCN@common?1wpn_moveselect?4wav?$AA@ 100ff674     client.obj
 0003:00004690       ??_C@_0BF@DDKC@common?1wpn_hudon?4wav?$AA@ 100ff690     client.obj
 0003:000046a8       ??_C@_0BG@BNOJ@common?1wpn_hudoff?4wav?$AA@ 100ff6a8     client.obj
 0003:000046c0       ??_C@_0BE@BIBC@player?1pl_pain7?4wav?$AA@ 100ff6c0     client.obj
 0003:000046d4       ??_C@_0BE@LIDH@player?1pl_pain6?4wav?$AA@ 100ff6d4     client.obj
 0003:000046e8       ??_C@_0BE@FIFI@player?1pl_pain5?4wav?$AA@ 100ff6e8     client.obj
 0003:000046fc       ??_C@_0BE@PIHN@player?1pl_pain4?4wav?$AA@ 100ff6fc     client.obj
 0003:00004710       ??_C@_0BE@DIKC@player?1pl_pain2?4wav?$AA@ 100ff710     client.obj
 0003:00004724       ??_C@_0BF@CHLM@common?1bodysplat?4wav?$AA@ 100ff724     client.obj
 0003:0000473c       ??_C@_0BE@BLL@common?1headshot?4wav?$AA@ 100ff73c     client.obj
 0003:00004750       ??_C@_0BG@JBNP@items?1headshield2?4wav?$AA@ 100ff750     client.obj
 0003:00004768       ??_C@_0BG@HBLA@items?1headshield1?4wav?$AA@ 100ff768     client.obj
 0003:00004780       ??_C@_0BD@BGDA@items?1gasmask2?4wav?$AA@ 100ff780     client.obj
 0003:00004794       ??_C@_0BD@PGFP@items?1gasmask1?4wav?$AA@ 100ff794     client.obj
 0003:000047a8       ??_C@_0BG@BKIG@items?1flashlight1?4wav?$AA@ 100ff7a8     client.obj
 0003:000047c0       ??_C@_0BC@NODO@debris?1glass3?4wav?$AA@ 100ff7c0     client.obj
 0003:000047d4       ??_C@_0BC@HOBL@debris?1glass2?4wav?$AA@ 100ff7d4     client.obj
 0003:000047e8       ??_C@_0BC@JOHE@debris?1glass1?4wav?$AA@ 100ff7e8     client.obj
 0003:000047fc       ??_C@_0BF@HOEM@plats?1train_use1?4wav?$AA@ 100ff7fc     client.obj
 0003:00004814       ??_C@_0BF@NKHA@player?1pl_grass4?4wav?$AA@ 100ff814     client.obj
 0003:0000482c       ??_C@_0BF@LKIK@player?1pl_grass3?4wav?$AA@ 100ff82c     client.obj
 0003:00004844       ??_C@_0BF@BKKP@player?1pl_grass2?4wav?$AA@ 100ff844     client.obj
 0003:0000485c       ??_C@_0BF@PKMA@player?1pl_grass1?4wav?$AA@ 100ff85c     client.obj
 0003:00004874       ??_C@_0BF@PIDO@player?1pl_beton4?4wav?$AA@ 100ff874     client.obj
 0003:0000488c       ??_C@_0BF@JIME@player?1pl_beton3?4wav?$AA@ 100ff88c     client.obj
 0003:000048a4       ??_C@_0BF@DIOB@player?1pl_beton2?4wav?$AA@ 100ff8a4     client.obj
 0003:000048bc       ??_C@_0BF@NIIO@player?1pl_beton1?4wav?$AA@ 100ff8bc     client.obj
 0003:000048d4       ??_C@_0BD@JMEP@player?1pl_asf4?4wav?$AA@ 100ff8d4     client.obj
 0003:000048e8       ??_C@_0BD@PMLF@player?1pl_asf3?4wav?$AA@ 100ff8e8     client.obj
 0003:000048fc       ??_C@_0BD@FMJA@player?1pl_asf2?4wav?$AA@ 100ff8fc     client.obj
 0003:00004910       ??_C@_0BD@LMPP@player?1pl_asf1?4wav?$AA@ 100ff910     client.obj
 0003:00004924       ??_C@_0BE@CHCK@player?1pl_wood4?4wav?$AA@ 100ff924     client.obj
